(lp0
(lp1
S'PR'
p2
aS'PR'
p3
aS'A'
p4
aS'A'
p5
aS'N'
p6
aS'P'
p7
aS'I'
p8
aS'I'
p9
aS'N'
p10
aS'N'
p11
aa(lp12
S'P'
p13
aS'P'
p14
aS'I'
p15
aS'I'
p16
aS'I'
p17
aS'I'
p18
aS'N'
p19
aa(lp20
S'N'
p21
aS'A'
p22
aS'N'
p23
aS'P'
p24
aS'P'
p25
aS'N'
p26
aS'R'
p27
aa(lp28
S'R'
p29
aS'A'
p30
aS'A'
p31
aS'N'
p32
aS'N'
p33
aS'E'
p34
aS'E'
p35
aS'N'
p36
aS'A'
p37
aS'N'
p38
aa(lp39
S'P'
p40
aS'P'
p41
aS'N'
p42
aS'P'
p43
aS'P'
p44
aS'N'
p45
aa(lp46
S'N'
p47
aS'R'
p48
aS'A'
p49
aS'A'
p50
aS'N'
p51
aS'N'
p52
aS'N'
p53
aS'P'
p54
aa(lp55
S'N'
p56
aS'N'
p57
aS'N'
p58
aS'P'
p59
aS'P'
p60
aS'I'
p61
aS'I'
p62
aS'N'
p63
aS'P'
p64
aS'P'
p65
aS'N'
p66
aa(lp67
S'N'
p68
aS'R'
p69
aS'A'
p70
aS'N'
p71
aS'A'
p72
aS'N'
p73
aa(lp74
S'A'
p75
aS'N'
p76
aS'I'
p77
aS'I'
p78
aS'N'
p79
aS'N'
p80
aS'A'
p81
aS'N'
p82
aS'P'
p83
aS'P'
p84
aS'N'
p85
aS'P'
p86
aS'P'
p87
aS'N'
p88
aa(lp89
S'PR'
p90
aS'PR'
p91
aS'A'
p92
aS'A'
p93
aS'N'
p94
aS'P'
p95
aS'N'
p96
aS'P'
p97
aS'R'
p98
aa(lp99
S'R'
p100
aS'N'
p101
aS'P'
p102
aS'P'
p103
aS'N'
p104
aS'P'
p105
aS'P'
p106
aS'N'
p107
aS'P'
p108
aS'N'
p109
aa(lp110
S'N'
p111
aS'PR'
p112
aS'A'
p113
aS'A'
p114
aS'N'
p115
aS'P'
p116
aS'I'
p117
aS'N'
p118
aS'N'
p119
aS'N'
p120
aS'N'
p121
aS'N'
p122
aa(lp123
S'I'
p124
aS'N'
p125
aS'I'
p126
aS'P'
p127
aS'P'
p128
aS'P'
p129
aS'N'
p130
aS'N'
p131
aS'I'
p132
aS'I'
p133
aS'N'
p134
aS'N'
p135
aS'N'
p136
aS'N'
p137
aa(lp138
S'N'
p139
aS'N'
p140
aS'N'
p141
aS'N'
p142
aS'N'
p143
aa(lp144
S'PR'
p145
aS'A'
p146
aS'N'
p147
aS'A'
p148
aS'N'
p149
aS'N'
p150
aS'N'
p151
aS'N'
p152
aa(lp153
S'N'
p154
aS'N'
p155
aS'N'
p156
aS'N'
p157
aS'N'
p158
aS'N'
p159
aS'N'
p160
aa(lp161
S'N'
p162
aS'PR'
p163
aS'PR'
p164
aS'PR'
p165
aS'N'
p166
aa(lp167
S'PR'
p168
aS'N'
p169
aS'A'
p170
aS'A'
p171
aS'N'
p172
aS'E'
p173
aS'E'
p174
aS'E'
p175
aS'N'
p176
aS'N'
p177
aa(lp178
S'I'
p179
aS'N'
p180
aS'I'
p181
aS'I'
p182
aS'I'
p183
aS'N'
p184
aa(lp185
S'N'
p186
aS'N'
p187
aS'N'
p188
aa(lp189
S'N'
p190
aS'N'
p191
aS'N'
p192
aS'N'
p193
aS'N'
p194
aS'N'
p195
aS'N'
p196
aS'N'
p197
aS'N'
p198
aa(lp199
S'N'
p200
aS'N'
p201
aa(lp202
S'PR'
p203
aS'PR'
p204
aS'A'
p205
aS'A'
p206
aS'N'
p207
aS'N'
p208
aS'P'
p209
aS'P'
p210
aS'P'
p211
aS'N'
p212
aa(lp213
S'P'
p214
aS'N'
p215
aS'R'
p216
aS'R'
p217
aS'N'
p218
aS'N'
p219
aS'I'
p220
aS'N'
p221
aS'I'
p222
aS'N'
p223
aS'N'
p224
aS'I'
p225
aa(lp226
S'I'
p227
aS'N'
p228
aS'I'
p229
aS'I'
p230
aS'N'
p231
aS'P'
p232
aS'P'
p233
aS'P'
p234
aS'P'
p235
aS'N'
p236
aa(lp237
S'I'
p238
aS'I'
p239
aS'N'
p240
aS'N'
p241
aS'N'
p242
aS'N'
p243
aS'P'
p244
aS'P'
p245
aS'I'
p246
aS'N'
p247
aS'N'
p248
aa(lp249
S'N'
p250
aS'N'
p251
aS'N'
p252
aa(lp253
S'N'
p254
aS'R'
p255
aS'A'
p256
aS'N'
p257
aS'A'
p258
aS'N'
p259
aS'I'
p260
aS'R'
p261
aS'N'
p262
aa(lp263
S'R'
p264
aS'N'
p265
aS'I'
p266
aS'R'
p267
aS'N'
p268
aS'N'
p269
aa(lp270
S'PR'
p271
aS'N'
p272
aS'P'
p273
aS'P'
p274
aS'P'
p275
aa(lp276
S'A'
p277
aS'A'
p278
aS'N'
p279
aS'A'
p280
aS'N'
p281
aS'P'
p282
aS'P'
p283
aS'N'
p284
aS'P'
p285
aS'P'
p286
aS'N'
p287
aS'N'
p288
aS'N'
p289
aa(lp290
S'N'
p291
aS'N'
p292
aS'N'
p293
aS'N'
p294
aS'N'
p295
aS'N'
p296
aa(lp297
S'N'
p298
aS'N'
p299
aS'PR'
p300
aS'PR'
p301
aS'A'
p302
aS'A'
p303
aa(lp304
S'N'
p305
aS'P'
p306
aS'N'
p307
aS'I'
p308
aS'I'
p309
aS'N'
p310
aS'N'
p311
aS'R'
p312
aS'R'
p313
aS'N'
p314
aS'N'
p315
aS'N'
p316
aS'R'
p317
aS'N'
p318
aS'R'
p319
aS'R'
p320
aS'N'
p321
aa(lp322
S'N'
p323
aS'R'
p324
aa(lp325
S'A'
p326
aS'P'
p327
aS'P'
p328
aS'N'
p329
aS'N'
p330
aS'P'
p331
aS'P'
p332
aS'N'
p333
aS'P'
p334
aS'P'
p335
aS'P'
p336
aS'P'
p337
aa(lp338
S'N'
p339
aS'N'
p340
aS'N'
p341
aS'P'
p342
aS'P'
p343
aS'N'
p344
aS'N'
p345
aS'R'
p346
aS'R'
p347
aS'N'
p348
aa(lp349
S'N'
p350
aS'N'
p351
aa(lp352
S'N'
p353
aS'N'
p354
aS'N'
p355
aS'N'
p356
aS'N'
p357
aS'N'
p358
aS'N'
p359
aS'N'
p360
aS'N'
p361
aS'N'
p362
aS'N'
p363
aa(lp364
S'N'
p365
aS'N'
p366
aS'N'
p367
aS'N'
p368
aS'N'
p369
aS'N'
p370
aS'E'
p371
aS'E'
p372
aS'E'
p373
aS'A'
p374
aS'A'
p375
aa(lp376
S'N'
p377
aS'N'
p378
aS'E'
p379
aS'E'
p380
aS'E'
p381
aS'E'
p382
aS'N'
p383
aa(lp384
S'N'
p385
aS'E'
p386
aS'A'
p387
aS'A'
p388
aa(lp389
S'N'
p390
aS'P'
p391
aS'P'
p392
aS'N'
p393
aa.