(lp0
(lp1
S'PR'
p2
aS'PR'
p3
aS'A'
p4
aS'A'
p5
aS'N'
p6
aS'E'
p7
aS'E'
p8
aS'N'
p9
aa(lp10
S'N'
p11
aS'N'
p12
aS'N'
p13
aS'N'
p14
aS'N'
p15
aS'N'
p16
aS'N'
p17
aS'N'
p18
aS'N'
p19
aa(lp20
S'PR'
p21
aS'PR'
p22
aS'PR'
p23
aS'A'
p24
aS'A'
p25
aS'N'
p26
aS'P'
p27
aS'I'
p28
aS'I'
p29
aS'N'
p30
aS'I'
p31
aS'N'
p32
aS'N'
p33
aS'N'
p34
aS'N'
p35
aS'P'
p36
aS'P'
p37
aS'P'
p38
aS'P'
p39
aS'N'
p40
aS'A'
p41
aS'A'
p42
aS'N'
p43
aS'P'
p44
aS'P'
p45
aS'E'
p46
aS'E'
p47
aS'E'
p48
aS'N'
p49
aa(lp50
S'PR'
p51
aS'PR'
p52
aS'A'
p53
aS'N'
p54
aS'A'
p55
aS'N'
p56
aS'E'
p57
aS'E'
p58
aS'N'
p59
aa(lp60
S'PR'
p61
aS'PR'
p62
aS'A'
p63
aS'A'
p64
aS'N'
p65
aS'P'
p66
aS'I'
p67
aS'I'
p68
aS'N'
p69
aS'I'
p70
aS'N'
p71
aS'I'
p72
aS'I'
p73
aS'P'
p74
aS'N'
p75
aS'P'
p76
aS'P'
p77
aS'N'
p78
aa(lp79
S'N'
p80
aS'N'
p81
aS'N'
p82
aS'N'
p83
aS'N'
p84
aS'N'
p85
aS'N'
p86
aS'N'
p87
aS'N'
p88
aS'N'
p89
aS'N'
p90
aS'N'
p91
aS'N'
p92
aS'N'
p93
aS'N'
p94
aS'N'
p95
aS'N'
p96
aS'N'
p97
aS'N'
p98
aS'N'
p99
aa(lp100
S'N'
p101
aS'N'
p102
aS'PR'
p103
aS'N'
p104
aS'N'
p105
aS'N'
p106
aS'N'
p107
aS'I'
p108
aS'I'
p109
aS'N'
p110
aS'I'
p111
aS'I'
p112
aS'I'
p113
aS'I'
p114
aS'N'
p115
aS'N'
p116
aS'I'
p117
aS'I'
p118
aS'N'
p119
aS'A'
p120
aS'A'
p121
aS'N'
p122
aS'N'
p123
aS'N'
p124
aS'P'
p125
aS'P'
p126
aS'P'
p127
aS'P'
p128
aS'N'
p129
aS'N'
p130
aS'E'
p131
aS'N'
p132
aS'P'
p133
aS'P'
p134
aS'N'
p135
aS'N'
p136
aS'A'
p137
aS'N'
p138
aS'I'
p139
aS'I'
p140
aS'N'
p141
aS'P'
p142
aS'P'
p143
aS'N'
p144
aS'N'
p145
aS'N'
p146
aS'N'
p147
aS'N'
p148
aS'N'
p149
aS'N'
p150
aS'N'
p151
aS'N'
p152
aS'N'
p153
aS'N'
p154
aS'N'
p155
aS'N'
p156
aS'N'
p157
aS'N'
p158
aS'N'
p159
aS'N'
p160
aS'N'
p161
aS'N'
p162
aS'N'
p163
aa(lp164
S'N'
p165
aS'N'
p166
aS'N'
p167
aS'R'
p168
aS'A'
p169
aS'A'
p170
aS'A'
p171
aS'N'
p172
aS'I'
p173
aS'I'
p174
aS'N'
p175
aS'N'
p176
aS'N'
p177
aS'A'
p178
aS'N'
p179
aS'P'
p180
aS'P'
p181
aS'N'
p182
aS'P'
p183
aS'P'
p184
aS'N'
p185
aS'N'
p186
aS'N'
p187
aS'N'
p188
aa(lp189
S'N'
p190
aS'N'
p191
aS'N'
p192
aS'N'
p193
aS'N'
p194
aS'R'
p195
aS'N'
p196
aS'P'
p197
aS'P'
p198
aS'P'
p199
aS'N'
p200
aa(lp201
S'E'
p202
aS'E'
p203
aS'E'
p204
aS'N'
p205
aS'N'
p206
aS'A'
p207
aS'A'
p208
aS'N'
p209
aS'E'
p210
aS'E'
p211
aS'N'
p212
aS'I'
p213
aS'I'
p214
aS'N'
p215
aS'N'
p216
aS'N'
p217
aS'N'
p218
aS'N'
p219
aa(lp220
S'E'
p221
aS'E'
p222
aS'N'
p223
aS'E'
p224
aS'E'
p225
aS'A'
p226
aS'A'
p227
aS'N'
p228
aS'N'
p229
aS'E'
p230
aS'E'
p231
aS'N'
p232
aS'E'
p233
aS'E'
p234
aS'N'
p235
aa(lp236
S'N'
p237
aS'N'
p238
aS'N'
p239
aS'N'
p240
aS'I'
p241
aS'A'
p242
aS'A'
p243
aS'N'
p244
aS'N'
p245
aS'N'
p246
aS'N'
p247
aS'N'
p248
aS'N'
p249
aS'I'
p250
aS'N'
p251
aS'I'
p252
aS'I'
p253
aS'N'
p254
aa(lp255
S'N'
p256
aS'R'
p257
aS'A'
p258
aS'A'
p259
aS'N'
p260
aS'I'
p261
aS'I'
p262
aS'N'
p263
aa(lp264
S'R'
p265
aS'A'
p266
aS'P'
p267
aS'P'
p268
aS'I'
p269
aS'I'
p270
aS'I'
p271
aS'N'
p272
aS'N'
p273
aS'N'
p274
aS'N'
p275
aS'I'
p276
aS'N'
p277
aS'I'
p278
aS'P'
p279
aS'P'
p280
aS'P'
p281
aS'N'
p282
aa(lp283
S'E'
p284
aS'E'
p285
aS'N'
p286
aS'E'
p287
aS'E'
p288
aS'A'
p289
aS'A'
p290
aS'N'
p291
aS'N'
p292
aS'E'
p293
aS'N'
p294
aS'P'
p295
aS'P'
p296
aS'P'
p297
aS'P'
p298
aS'P'
p299
aS'P'
p300
aS'P'
p301
aS'P'
p302
aS'P'
p303
aS'N'
p304
aS'N'
p305
aS'N'
p306
aa(lp307
S'N'
p308
aS'E'
p309
aS'E'
p310
aS'A'
p311
aS'A'
p312
aS'N'
p313
aS'N'
p314
aS'P'
p315
aS'P'
p316
aS'P'
p317
aS'P'
p318
aS'P'
p319
aS'P'
p320
aS'P'
p321
aS'P'
p322
aS'N'
p323
aa(lp324
S'N'
p325
aS'P'
p326
aS'P'
p327
aS'N'
p328
aS'N'
p329
aS'E'
p330
aS'E'
p331
aS'A'
p332
aS'P'
p333
aS'P'
p334
aS'P'
p335
aS'P'
p336
aS'P'
p337
aS'P'
p338
aS'N'
p339
aa(lp340
S'E'
p341
aS'E'
p342
aS'E'
p343
aS'A'
p344
aS'A'
p345
aS'N'
p346
aS'E'
p347
aS'E'
p348
aS'E'
p349
aS'E'
p350
aS'E'
p351
aS'E'
p352
aS'N'
p353
aS'P'
p354
aS'P'
p355
aS'P'
p356
aS'P'
p357
aS'P'
p358
aS'P'
p359
aS'N'
p360
aa(lp361
S'N'
p362
aS'N'
p363
aS'N'
p364
aS'N'
p365
aS'N'
p366
aS'N'
p367
aS'N'
p368
aS'N'
p369
aS'N'
p370
aa(lp371
S'E'
p372
aS'E'
p373
aS'A'
p374
aS'A'
p375
aS'N'
p376
aS'N'
p377
aS'N'
p378
aa.