(lp0
(lp1
(lp2
S'***START***'
p3
aS'None'
p4
ag4
aa(lp5
S'***START2***'
p6
ag4
ag4
aa(lp7
S'-MnO2'
p8
aS'PR'
p9
aS'JJ'
p10
aa(lp11
S'catalyst'
p12
aS'PR'
p13
aS'NN'
p14
aa(lp15
S'was'
p16
aS'A'
p17
aS'VBD'
p18
aa(lp19
S'synthesized'
p20
aS'A'
p21
aS'VBN'
p22
aa(lp23
S'by'
p24
aS'N'
p25
aS'IN'
p26
aa(lp27
S'a'
p28
aS'N'
p29
aS'DT'
p30
aa(lp31
S'hydrothermal'
p32
aS'E'
p33
ag10
aa(lp34
S'route'
p35
aS'E'
p36
ag14
aa(lp37
S'.'
p38
aS'N'
p39
aS'.'
p40
aa(lp41
S'***END***'
p42
ag4
ag4
aa(lp43
S'***END2***'
p44
ag4
ag4
aaa(lp45
(lp46
g3
ag4
ag4
aa(lp47
g6
ag4
ag4
aa(lp48
S'Aqueous'
p49
aS'P'
p50
aS'JJ'
p51
aa(lp52
S'solutions'
p53
aS'P'
p54
aS'NNS'
p55
aa(lp56
S'of'
p57
aS'N'
p58
aS'IN'
p59
aa(lp60
S'KMnO4'
p61
aS'I'
p62
aS'NNP'
p63
aa(lp64
S'and'
p65
aS'N'
p66
aS'CC'
p67
aa(lp68
S'MnSO4'
p69
aS'I'
p70
ag63
aa(lp71
S'(molecular'
p72
aS'P'
p73
ag63
aa(lp74
S'ratio'
p75
aS'P'
p76
aS'NN'
p77
aa(lp78
S'='
p79
aS'P'
p80
aS'VBD'
p81
aa(lp82
S'2:1)'
p83
aS'P'
p84
aS'CD'
p85
aa(lp86
S'were'
p87
aS'A'
p88
aS'VBD'
p89
aa(lp90
S'mixed'
p91
aS'A'
p92
ag51
aa(lp93
S'and'
p94
aS'N'
p95
ag67
aa(lp96
S'stirred'
p97
aS'A'
p98
ag81
aa(lp99
S'vigorously'
p100
aS'N'
p101
aS'RB'
p102
aa(lp103
S'for'
p104
aS'N'
p105
aS'IN'
p106
aa(lp107
S'30'
p108
aS'P'
p109
aS'CD'
p110
aa(lp111
S'min'
p112
aS'P'
p113
ag77
aa(lp114
S'until'
p115
aS'N'
p116
aS'IN'
p117
aa(lp118
S'a'
p119
aS'N'
p120
aS'DT'
p121
aa(lp122
S'dark'
p123
aS'PR'
p124
ag51
aa(lp125
S'purple'
p126
aS'PR'
p127
ag51
aa(lp128
S'solution'
p129
aS'PR'
p130
ag77
aa(lp131
S'was'
p132
aS'N'
p133
ag81
aa(lp134
S'formed'
p135
aS'N'
p136
aS'VBN'
p137
aa(lp138
S'.'
p139
aS'N'
p140
aS'.'
p141
aa(lp142
g42
ag4
ag4
aa(lp143
g44
ag4
ag4
aaa(lp144
(lp145
g3
ag4
ag4
aa(lp146
g6
ag4
ag4
aa(lp147
S'Afterwards'
p148
aS'N'
p149
aS'NNS'
p150
aa(lp151
S','
p152
aS'N'
p153
aS','
p154
aa(lp155
S'the'
p156
aS'N'
p157
aS'DT'
p158
aa(lp159
S'solution'
p160
aS'R'
p161
aS'NN'
p162
aa(lp163
S'was'
p164
aS'A'
p165
aS'VBD'
p166
aa(lp167
S'loaded'
p168
aS'A'
p169
aS'VBN'
p170
aa(lp171
S'to'
p172
aS'N'
p173
aS'TO'
p174
aa(lp175
S'a'
p176
aS'N'
p177
aS'DT'
p178
aa(lp179
S'Teflon-lined'
p180
aS'E'
p181
aS'JJ'
p182
aa(lp183
S'stainless'
p184
aS'E'
p185
ag162
aa(lp186
S'steel'
p187
aS'E'
p188
aS'NN'
p189
aa(lp190
S'vessel'
p191
aS'E'
p192
ag162
aa(lp193
S'and'
p194
aS'N'
p195
aS'CC'
p196
aa(lp197
S'heated'
p198
aS'A'
p199
ag170
aa(lp200
S'at'
p201
aS'N'
p202
aS'IN'
p203
aa(lp204
S'180'
p205
aS'P'
p206
aS'CD'
p207
aa(lp208
S'C'
p209
aS'P'
p210
aS'NNP'
p211
aa(lp212
S'for'
p213
aS'N'
p214
aS'IN'
p215
aa(lp216
S'12'
p217
aS'P'
p218
aS'CD'
p219
aa(lp220
S'h'
p221
aS'P'
p222
ag162
aa(lp223
S'.'
p224
aS'N'
p225
aS'.'
p226
aa(lp227
g42
ag4
ag4
aa(lp228
g44
ag4
ag4
aaa(lp229
(lp230
g3
ag4
ag4
aa(lp231
g6
ag4
ag4
aa(lp232
S'After'
p233
aS'N'
p234
aS'IN'
p235
aa(lp236
S'the'
p237
aS'N'
p238
aS'DT'
p239
aa(lp240
S'reaction'
p241
aS'N'
p242
aS'NN'
p243
aa(lp244
S'had'
p245
aS'N'
p246
aS'VBD'
p247
aa(lp248
S'run'
p249
aS'N'
p250
aS'VBN'
p251
aa(lp252
S'to'
p253
aS'N'
p254
aS'TO'
p255
aa(lp256
S'completion'
p257
aS'N'
p258
ag243
aa(lp259
S','
p260
aS'N'
p261
aS','
p262
aa(lp263
S'the'
p264
aS'N'
p265
ag239
aa(lp266
S'brownish'
p267
aS'R'
p268
aS'JJ'
p269
aa(lp270
S'black'
p271
aS'R'
p272
aS'JJ'
p273
aa(lp274
S'precipitates'
p275
aS'R'
p276
aS'NNS'
p277
aa(lp278
S'were'
p279
aS'A'
p280
aS'VBD'
p281
aa(lp282
S'cooled'
p283
aS'A'
p284
ag251
aa(lp285
S'down'
p286
aS'N'
p287
aS'RB'
p288
aa(lp289
S'to'
p290
aS'N'
p291
ag255
aa(lp292
S'room'
p293
aS'P'
p294
aS'NN'
p295
aa(lp296
S'temperature'
p297
aS'P'
p298
ag243
aa(lp299
S';'
p300
aS'N'
p301
aS':'
p302
aa(lp303
S'then'
p304
aS'N'
p305
aS'RB'
p306
aa(lp307
S'the'
p308
aS'N'
p309
ag239
aa(lp310
S'precipitate'
p311
aS'R'
p312
ag243
aa(lp313
S'was'
p314
aS'A'
p315
ag247
aa(lp316
S'separated'
p317
aS'A'
p318
ag251
aa(lp319
S'by'
p320
aS'N'
p321
aS'IN'
p322
aa(lp323
S'vacuum'
p324
aS'E'
p325
ag243
aa(lp326
S'filtration'
p327
aS'E'
p328
ag243
aa(lp329
S';'
p330
aS'N'
p331
ag302
aa(lp332
S'and'
p333
aS'N'
p334
aS'CC'
p335
aa(lp336
S'last,'
p337
aS'N'
p338
aS'VB'
p339
aa(lp340
S'washed'
p341
aS'A'
p342
ag251
aa(lp343
S'to'
p344
aS'N'
p345
ag255
aa(lp346
S'remove'
p347
aS'N'
p348
ag339
aa(lp349
S'the'
p350
aS'N'
p351
ag239
aa(lp352
S'unreacted'
p353
aS'N'
p354
ag269
aa(lp355
S'material'
p356
aS'N'
p357
ag243
aa(lp358
S'and'
p359
aS'N'
p360
ag335
aa(lp361
S'soluble'
p362
aS'N'
p363
ag269
aa(lp364
S'products'
p365
aS'N'
p366
aS'NNS'
p367
aa(lp368
S'.'
p369
aS'N'
p370
aS'.'
p371
aa(lp372
g42
ag4
ag4
aa(lp373
g44
ag4
ag4
aaa(lp374
(lp375
g3
ag4
ag4
aa(lp376
g6
ag4
ag4
aa(lp377
S'After'
p378
aS'N'
p379
aS'IN'
p380
aa(lp381
S'being'
p382
aS'N'
p383
aS'VBG'
p384
aa(lp385
S'dried'
p386
aS'A'
p387
aS'VBN'
p388
aa(lp389
S'under'
p390
aS'N'
p391
aS'IN'
p392
aa(lp393
S'vacuum'
p394
aS'P'
p395
aS'NN'
p396
aa(lp397
S'at'
p398
aS'N'
p399
aS'IN'
p400
aa(lp401
S'100'
p402
aS'P'
p403
aS'CD'
p404
aa(lp405
S'C'
p406
aS'P'
p407
aS'NNP'
p408
aa(lp409
S'for'
p410
aS'N'
p411
aS'IN'
p412
aa(lp413
S'6'
p414
aS'P'
p415
aS'CD'
p416
aa(lp417
S'h'
p418
aS'P'
p419
ag396
aa(lp420
S','
p421
aS'N'
p422
aS','
p423
aa(lp424
S'the'
p425
aS'N'
p426
aS'DT'
p427
aa(lp428
S'precipitate'
p429
aS'R'
p430
ag396
aa(lp431
S'was'
p432
aS'A'
p433
aS'VBD'
p434
aa(lp435
S'dispersed'
p436
aS'A'
p437
ag388
aa(lp438
S'by'
p439
aS'N'
p440
aS'IN'
p441
aa(lp442
S'ball'
p443
aS'E'
p444
ag396
aa(lp445
S'milling'
p446
aS'E'
p447
ag396
aa(lp448
S'and'
p449
aS'N'
p450
aS'CC'
p451
aa(lp452
S'dried'
p453
aS'A'
p454
ag388
aa(lp455
S'under'
p456
aS'N'
p457
ag392
aa(lp458
S'vacuum'
p459
aS'P'
p460
ag396
aa(lp461
S'at'
p462
aS'N'
p463
ag400
aa(lp464
S'80'
p465
aS'P'
p466
aS'CD'
p467
aa(lp468
S'C'
p469
aS'P'
p470
ag408
aa(lp471
S'for'
p472
aS'N'
p473
ag412
aa(lp474
S'6'
p475
aS'P'
p476
ag416
aa(lp477
S'h'
p478
aS'P'
p479
ag396
aa(lp480
S'to'
p481
aS'N'
p482
aS'TO'
p483
aa(lp484
S'obtain'
p485
aS'N'
p486
aS'VB'
p487
aa(lp488
S'the'
p489
aS'N'
p490
ag427
aa(lp491
S'final'
p492
aS'PR'
p493
aS'JJ'
p494
aa(lp495
S'products'
p496
aS'PR'
p497
aS'NNS'
p498
aa(lp499
S'.'
p500
aS'N'
p501
aS'.'
p502
aa(lp503
g42
ag4
ag4
aa(lp504
g44
ag4
ag4
aaa(lp505
(lp506
g3
ag4
ag4
aa(lp507
g6
ag4
ag4
aa(lp508
S'Phase'
p509
aS'PR'
p510
aS'NNP'
p511
aa(lp512
S'identification'
p513
aS'PR'
p514
aS'NN'
p515
aa(lp516
S'of'
p517
aS'N'
p518
aS'IN'
p519
aa(lp520
S'the'
p521
aS'N'
p522
aS'DT'
p523
aa(lp524
S'prepared'
p525
aS'R'
p526
aS'JJ'
p527
aa(lp528
S'-MnO2'
p529
aS'R'
p530
ag515
aa(lp531
S'was'
p532
aS'A'
p533
aS'VBD'
p534
aa(lp535
S'conducted'
p536
aS'A'
p537
aS'VBN'
p538
aa(lp539
S'by'
p540
aS'N'
p541
aS'IN'
p542
aa(lp543
S'XRD'
p544
aS'E'
p545
ag511
aa(lp546
S'analysis'
p547
aS'E'
p548
ag515
aa(lp549
S'(DX2700'
p550
aS'E'
p551
ag515
aa(lp552
S','
p553
aS'N'
p554
aS','
p555
aa(lp556
S'Dandong'
p557
aS'N'
p558
ag511
aa(lp559
S'FangYuan'
p560
aS'N'
p561
ag511
aa(lp562
S'Instrument'
p563
aS'N'
p564
ag511
aa(lp565
S'Co.,'
p566
aS'N'
p567
ag511
aa(lp568
S'Ltd.)'
p569
aS'N'
p570
ag511
aa(lp571
S'.'
p572
aS'N'
p573
aS'.'
p574
aa(lp575
g42
ag4
ag4
aa(lp576
g44
ag4
ag4
aaa(lp577
(lp578
g3
ag4
ag4
aa(lp579
g6
ag4
ag4
aa(lp580
S'The'
p581
aS'N'
p582
aS'DT'
p583
aa(lp584
S'morphology'
p585
aS'PR'
p586
aS'NN'
p587
aa(lp588
S'of'
p589
aS'N'
p590
aS'IN'
p591
aa(lp592
S'the'
p593
aS'N'
p594
aS'DT'
p595
aa(lp596
S'resulting'
p597
aS'R'
p598
aS'VBG'
p599
aa(lp600
S'-MnO2'
p601
aS'R'
p602
aS'JJ'
p603
aa(lp604
S'particles'
p605
aS'R'
p606
aS'NNS'
p607
aa(lp608
S'was'
p609
aS'A'
p610
aS'VBD'
p611
aa(lp612
S'observed'
p613
aS'A'
p614
aS'VBN'
p615
aa(lp616
S'using'
p617
aS'N'
p618
aS'VBG'
p619
aa(lp620
S'a'
p621
aS'N'
p622
aS'DT'
p623
aa(lp624
S'scanning'
p625
aS'E'
p626
ag599
aa(lp627
S'electron'
p628
aS'E'
p629
ag587
aa(lp630
S'microscope'
p631
aS'E'
p632
ag587
aa(lp633
S'(SEM'
p634
aS'E'
p635
aS'NNP'
p636
aa(lp637
S','
p638
aS'N'
p639
aS','
p640
aa(lp641
S'Nova'
p642
aS'N'
p643
ag636
aa(lp644
S'430,'
p645
aS'N'
p646
aS'CD'
p647
aa(lp648
S'FEI'
p649
aS'N'
p650
ag636
aa(lp651
S'Company'
p652
aS'N'
p653
ag636
aa(lp654
S'in'
p655
aS'N'
p656
aS'IN'
p657
aa(lp658
S'Netherlands)'
p659
aS'N'
p660
ag636
aa(lp661
S'.'
p662
aS'N'
p663
aS'.'
p664
aa(lp665
g42
ag4
ag4
aa(lp666
g44
ag4
ag4
aaa(lp667
(lp668
g3
ag4
ag4
aa(lp669
g6
ag4
ag4
aa(lp670
S'The'
p671
aS'N'
p672
aS'DT'
p673
aa(lp674
S'surface'
p675
aS'PR'
p676
aS'NN'
p677
aa(lp678
S'area'
p679
aS'PR'
p680
aS'NN'
p681
aa(lp682
S'of'
p683
aS'N'
p684
aS'IN'
p685
aa(lp686
S'the'
p687
aS'N'
p688
aS'DT'
p689
aa(lp690
S'synthesized'
p691
aS'R'
p692
aS'JJ'
p693
aa(lp694
S'materials'
p695
aS'R'
p696
aS'NNS'
p697
aa(lp698
S'was'
p699
aS'A'
p700
aS'VBD'
p701
aa(lp702
S'studied'
p703
aS'A'
p704
aS'VBN'
p705
aa(lp706
S'using'
p707
aS'N'
p708
aS'VBG'
p709
aa(lp710
S'BET'
p711
aS'E'
p712
aS'NNP'
p713
aa(lp714
S'measurements'
p715
aS'E'
p716
aS'NNS'
p717
aa(lp718
S'(3H-2000PS1'
p719
aS'E'
p720
ag693
aa(lp721
S','
p722
aS'N'
p723
aS','
p724
aa(lp725
S'BeiShiDe'
p726
aS'N'
p727
ag713
aa(lp728
S'Instrument'
p729
aS'N'
p730
ag713
aa(lp731
S'Technology'
p732
aS'N'
p733
ag713
aa(lp734
S'(Beijing)'
p735
aS'N'
p736
ag713
aa(lp737
S'Co.,'
p738
aS'N'
p739
ag713
aa(lp740
S'Ltd.)'
p741
aS'N'
p742
ag713
aa(lp743
S'.'
p744
aS'N'
p745
aS'.'
p746
aa(lp747
g42
ag4
ag4
aa(lp748
g44
ag4
ag4
aaa(lp749
(lp750
g3
ag4
ag4
aa(lp751
g6
ag4
ag4
aa(lp752
S'The'
p753
aS'N'
p754
aS'DT'
p755
aa(lp756
S'air'
p757
aS'PR'
p758
aS'NN'
p759
aa(lp760
S'cathode'
p761
aS'PR'
p762
ag759
aa(lp763
S'was'
p764
aS'A'
p765
aS'VBD'
p766
aa(lp767
S'prepared'
p768
aS'A'
p769
aS'VBN'
p770
aa(lp771
S'on'
p772
aS'N'
p773
aS'IN'
p774
aa(lp775
S'the'
p776
aS'N'
p777
aS'DT'
p778
aa(lp779
S'nickel'
p780
aS'I'
p781
ag759
aa(lp782
S'foam'
p783
aS'I'
p784
ag759
aa(lp785
S'.'
p786
aS'N'
p787
aS'.'
p788
aa(lp789
g42
ag4
ag4
aa(lp790
g44
ag4
ag4
aaa(lp791
(lp792
g3
ag4
ag4
aa(lp793
g6
ag4
ag4
aa(lp794
S'An'
p795
aS'N'
p796
aS'DT'
p797
aa(lp798
S'N-methyl-2-pyrrolidone'
p799
aS'I'
p800
aS'JJ'
p801
aa(lp802
S'(NMP)'
p803
aS'I'
p804
aS'NN'
p805
aa(lp806
S'slurry'
p807
aS'I'
p808
ag805
aa(lp809
S'of'
p810
aS'N'
p811
aS'IN'
p812
aa(lp813
S'PVDF'
p814
aS'P'
p815
aS'NNP'
p816
aa(lp817
S'was'
p818
aS'A'
p819
aS'VBD'
p820
aa(lp821
S'mixed'
p822
aS'A'
p823
ag801
aa(lp824
S'with'
p825
aS'N'
p826
aS'IN'
p827
aa(lp828
S'previously'
p829
aS'N'
p830
aS'RB'
p831
aa(lp832
S'prepared'
p833
aS'R'
p834
aS'VBN'
p835
aa(lp836
S'-MnO2'
p837
aS'R'
p838
ag805
aa(lp839
S','
p840
aS'N'
p841
aS','
p842
aa(lp843
S'graphite'
p844
aS'I'
p845
ag801
aa(lp846
S'(Tianjin'
p847
aS'N'
p848
ag805
aa(lp849
S'BoDi'
p850
aS'N'
p851
ag816
aa(lp852
S'CO.,'
p853
aS'N'
p854
ag816
aa(lp855
S'Ltd.)'
p856
aS'N'
p857
ag816
aa(lp858
S'and'
p859
aS'N'
p860
aS'CC'
p861
aa(lp862
S'Super'
p863
aS'I'
p864
ag816
aa(lp865
S'P'
p866
aS'I'
p867
ag816
aa(lp868
S'(Taiyuan'
p869
aS'N'
p870
ag816
aa(lp871
S'city'
p872
aS'N'
p873
aS'NN'
p874
aa(lp875
S'power'
p876
aS'N'
p877
aS'NN'
p878
aa(lp879
S'battery'
p880
aS'N'
p881
ag805
aa(lp882
S'material'
p883
aS'N'
p884
ag805
aa(lp885
S'Co.,'
p886
aS'N'
p887
ag816
aa(lp888
S'Ltd.)'
p889
aS'N'
p890
ag816
aa(lp891
S'in'
p892
aS'N'
p893
aS'IN'
p894
aa(lp895
S'a'
p896
aS'N'
p897
aS'DT'
p898
aa(lp899
S'weight'
p900
aS'P'
p901
ag805
aa(lp902
S'ratio'
p903
aS'P'
p904
ag805
aa(lp905
S'of'
p906
aS'P'
p907
ag812
aa(lp908
S'5:9:12:6'
p909
aS'P'
p910
aS'CD'
p911
aa(lp912
S','
p913
aS'N'
p914
ag842
aa(lp915
S'respectively'
p916
aS'N'
p917
aS'RB'
p918
aa(lp919
S'.'
p920
aS'N'
p921
aS'.'
p922
aa(lp923
g42
ag4
ag4
aa(lp924
g44
ag4
ag4
aaa(lp925
(lp926
g3
ag4
ag4
aa(lp927
g6
ag4
ag4
aa(lp928
S'And'
p929
aS'N'
p930
aS'CC'
p931
aa(lp932
S'the'
p933
aS'N'
p934
aS'DT'
p935
aa(lp936
S'slurry'
p937
aS'R'
p938
aS'NN'
p939
aa(lp940
S'was'
p941
aS'A'
p942
aS'VBD'
p943
aa(lp944
S'deposited'
p945
aS'A'
p946
aS'VBN'
p947
aa(lp948
S'over'
p949
aS'N'
p950
aS'IN'
p951
aa(lp952
S'the'
p953
aS'N'
p954
ag935
aa(lp955
S'nickel'
p956
aS'I'
p957
ag939
aa(lp958
S'foam'
p959
aS'I'
p960
ag939
aa(lp961
S'by'
p962
aS'N'
p963
aS'IN'
p964
aa(lp965
S'using'
p966
aS'N'
p967
aS'VBG'
p968
aa(lp969
S'a'
p970
aS'N'
p971
aS'DT'
p972
aa(lp973
S'doctor'
p974
aS'E'
p975
ag939
aa(lp976
S'blade'
p977
aS'E'
p978
ag939
aa(lp979
S'.'
p980
aS'N'
p981
aS'.'
p982
aa(lp983
g42
ag4
ag4
aa(lp984
g44
ag4
ag4
aaa(lp985
(lp986
g3
ag4
ag4
aa(lp987
g6
ag4
ag4
aa(lp988
S'Then'
p989
aS'N'
p990
aS'RB'
p991
aa(lp992
S'the'
p993
aS'N'
p994
aS'DT'
p995
aa(lp996
S'coated'
p997
aS'R'
p998
aS'VBN'
p999
aa(lp1000
S'nickel'
p1001
aS'R'
p1002
aS'NN'
p1003
aa(lp1004
S'foam'
p1005
aS'R'
p1006
ag1003
aa(lp1007
S'was'
p1008
aS'A'
p1009
aS'VBD'
p1010
aa(lp1011
S'dried'
p1012
aS'A'
p1013
ag999
aa(lp1014
S'at'
p1015
aS'N'
p1016
aS'IN'
p1017
aa(lp1018
S'120'
p1019
aS'P'
p1020
aS'CD'
p1021
aa(lp1022
S'C'
p1023
aS'P'
p1024
aS'NNP'
p1025
aa(lp1026
S'for'
p1027
aS'N'
p1028
aS'IN'
p1029
aa(lp1030
S'2'
p1031
aS'P'
p1032
aS'CD'
p1033
aa(lp1034
S'h'
p1035
aS'P'
p1036
ag1003
aa(lp1037
S'in'
p1038
aS'N'
p1039
aS'IN'
p1040
aa(lp1041
S'a'
p1042
aS'N'
p1043
aS'DT'
p1044
aa(lp1045
S'vacuum'
p1046
aS'E'
p1047
ag1003
aa(lp1048
S'oven'
p1049
aS'E'
p1050
aS'RB'
p1051
aa(lp1052
S'.'
p1053
aS'N'
p1054
aS'.'
p1055
aa(lp1056
g42
ag4
ag4
aa(lp1057
g44
ag4
ag4
aaa(lp1058
(lp1059
g3
ag4
ag4
aa(lp1060
g6
ag4
ag4
aa(lp1061
S'According'
p1062
aS'N'
p1063
aS'VBG'
p1064
aa(lp1065
S'to'
p1066
aS'N'
p1067
aS'TO'
p1068
aa(lp1069
S'the'
p1070
aS'N'
p1071
aS'DT'
p1072
aa(lp1073
S'method'
p1074
aS'E'
p1075
aS'NN'
p1076
aa(lp1077
S'described'
p1078
aS'E'
p1079
aS'VBN'
p1080
aa(lp1081
S'above'
p1082
aS'E'
p1083
aS'IN'
p1084
aa(lp1085
S','
p1086
aS'N'
p1087
aS','
p1088
aa(lp1089
S'-MnO2'
p1090
aS'I'
p1091
aS'UH'
p1092
aa(lp1093
S','
p1094
aS'N'
p1095
ag1088
aa(lp1096
S'graphite'
p1097
aS'I'
p1098
aS'JJ'
p1099
aa(lp1100
S'and'
p1101
aS'N'
p1102
aS'CC'
p1103
aa(lp1104
S'PVDF'
p1105
aS'I'
p1106
aS'NNP'
p1107
aa(lp1108
S'were'
p1109
aS'A'
p1110
aS'VBD'
p1111
aa(lp1112
S'combined'
p1113
aS'A'
p1114
ag1080
aa(lp1115
S'at'
p1116
aS'N'
p1117
aS'IN'
p1118
aa(lp1119
S'a'
p1120
aS'N'
p1121
aS'DT'
p1122
aa(lp1123
S'weight'
p1124
aS'P'
p1125
ag1076
aa(lp1126
S'ratio'
p1127
aS'P'
p1128
ag1076
aa(lp1129
S'of'
p1130
aS'P'
p1131
aS'IN'
p1132
aa(lp1133
S'9:18:5'
p1134
aS'P'
p1135
aS'CD'
p1136
aa(lp1137
S','
p1138
aS'N'
p1139
ag1088
aa(lp1140
S'and'
p1141
aS'N'
p1142
ag1103
aa(lp1143
S'-MnO2'
p1144
aS'I'
p1145
ag1092
aa(lp1146
S','
p1147
aS'N'
p1148
ag1088
aa(lp1149
S'Super'
p1150
aS'I'
p1151
ag1107
aa(lp1152
S'P'
p1153
aS'I'
p1154
ag1107
aa(lp1155
S'and'
p1156
aS'N'
p1157
ag1103
aa(lp1158
S'PVDF'
p1159
aS'I'
p1160
ag1107
aa(lp1161
S'in'
p1162
aS'N'
p1163
aS'IN'
p1164
aa(lp1165
S'the'
p1166
aS'N'
p1167
ag1072
aa(lp1168
S'weight'
p1169
aS'P'
p1170
ag1076
aa(lp1171
S'ratio'
p1172
aS'P'
p1173
ag1076
aa(lp1174
S'of'
p1175
aS'P'
p1176
ag1132
aa(lp1177
S'9:27:6.6'
p1178
aS'P'
p1179
ag1136
aa(lp1180
S','
p1181
aS'N'
p1182
ag1088
aa(lp1183
S'respectively,'
p1184
aS'N'
p1185
ag1076
aa(lp1186
S'to'
p1187
aS'N'
p1188
ag1068
aa(lp1189
S'prepare'
p1190
aS'N'
p1191
aS'VB'
p1192
aa(lp1193
S'a'
p1194
aS'N'
p1195
ag1122
aa(lp1196
S'series'
p1197
aS'N'
p1198
aS'NN'
p1199
aa(lp1200
S'of'
p1201
aS'N'
p1202
ag1132
aa(lp1203
S'cathode'
p1204
aS'N'
p1205
ag1099
aa(lp1206
S'sheets'
p1207
aS'N'
p1208
aS'NNS'
p1209
aa(lp1210
S'composed'
p1211
aS'N'
p1212
ag1080
aa(lp1213
S'of'
p1214
aS'N'
p1215
ag1132
aa(lp1216
S'different'
p1217
aS'N'
p1218
aS'JJ'
p1219
aa(lp1220
S'active'
p1221
aS'N'
p1222
aS'JJ'
p1223
aa(lp1224
S'materials'
p1225
aS'N'
p1226
aS'NNS'
p1227
aa(lp1228
S'.'
p1229
aS'N'
p1230
aS'.'
p1231
aa(lp1232
g42
ag4
ag4
aa(lp1233
g44
ag4
ag4
aaa(lp1234
(lp1235
g3
ag4
ag4
aa(lp1236
g6
ag4
ag4
aa(lp1237
S'Electrochemical'
p1238
aS'E'
p1239
aS'JJ'
p1240
aa(lp1241
S'characterizations'
p1242
aS'E'
p1243
aS'NNS'
p1244
aa(lp1245
S'were'
p1246
aS'A'
p1247
aS'VBD'
p1248
aa(lp1249
S'carried'
p1250
aS'A'
p1251
aS'VBN'
p1252
aa(lp1253
S'out'
p1254
aS'A'
p1255
aS'RP'
p1256
aa(lp1257
S'using'
p1258
aS'N'
p1259
aS'VBG'
p1260
aa(lp1261
S'a'
p1262
aS'N'
p1263
aS'DT'
p1264
aa(lp1265
S'coin'
p1266
aS'E'
p1267
aS'NN'
p1268
aa(lp1269
S'type'
p1270
aS'E'
p1271
ag1268
aa(lp1272
S'cell'
p1273
aS'E'
p1274
ag1268
aa(lp1275
S'assembled'
p1276
aS'N'
p1277
aS'VBD'
p1278
aa(lp1279
S'in'
p1280
aS'N'
p1281
aS'IN'
p1282
aa(lp1283
S'an'
p1284
aS'N'
p1285
aS'DT'
p1286
aa(lp1287
S'Ar-filled'
p1288
aS'E'
p1289
ag1240
aa(lp1290
S'dry'
p1291
aS'E'
p1292
ag1240
aa(lp1293
S'glove'
p1294
aS'E'
p1295
ag1268
aa(lp1296
S'box'
p1297
aS'E'
p1298
ag1268
aa(lp1299
S'.'
p1300
aS'N'
p1301
aS'.'
p1302
aa(lp1303
g42
ag4
ag4
aa(lp1304
g44
ag4
ag4
aaa(lp1305
(lp1306
g3
ag4
ag4
aa(lp1307
g6
ag4
ag4
aa(lp1308
S'A'
p1309
aS'N'
p1310
aS'DT'
p1311
aa(lp1312
S'lithium'
p1313
aS'I'
p1314
aS'NN'
p1315
aa(lp1316
S'foil'
p1317
aS'I'
p1318
ag1315
aa(lp1319
S'was'
p1320
aS'A'
p1321
aS'VBD'
p1322
aa(lp1323
S'used'
p1324
aS'A'
p1325
aS'VBN'
p1326
aa(lp1327
S'as'
p1328
aS'N'
p1329
aS'IN'
p1330
aa(lp1331
S'the'
p1332
aS'N'
p1333
aS'DT'
p1334
aa(lp1335
S'anode'
p1336
aS'N'
p1337
ag1315
aa(lp1338
S'electrode'
p1339
aS'N'
p1340
ag1315
aa(lp1341
S','
p1342
aS'N'
p1343
aS','
p1344
aa(lp1345
S'celgard'
p1346
aS'I'
p1347
ag1315
aa(lp1348
S'2300'
p1349
aS'I'
p1350
aS'CD'
p1351
aa(lp1352
S'as'
p1353
aS'N'
p1354
ag1330
aa(lp1355
S'the'
p1356
aS'N'
p1357
ag1334
aa(lp1358
S'separator,'
p1359
aS'N'
p1360
ag1315
aa(lp1361
S'and'
p1362
aS'N'
p1363
aS'CC'
p1364
aa(lp1365
S'1'
p1366
aS'P'
p1367
aS'CD'
p1368
aa(lp1369
S'M'
p1370
aS'P'
p1371
aS'NNP'
p1372
aa(lp1373
S'LiPF6'
p1374
aS'I'
p1375
ag1372
aa(lp1376
S'+'
p1377
aS'I'
p1378
ag1372
aa(lp1379
S'EC'
p1380
aS'I'
p1381
aS'NNP'
p1382
aa(lp1383
S'+'
p1384
aS'I'
p1385
ag1372
aa(lp1386
S'DMC'
p1387
aS'I'
p1388
ag1372
aa(lp1389
S'(volume'
p1390
aS'P'
p1391
ag1372
aa(lp1392
S'ratio'
p1393
aS'P'
p1394
ag1315
aa(lp1395
S'of'
p1396
aS'P'
p1397
aS'IN'
p1398
aa(lp1399
S'l:l:1)'
p1400
aS'P'
p1401
ag1315
aa(lp1402
S'as'
p1403
aS'N'
p1404
ag1330
aa(lp1405
S'the'
p1406
aS'N'
p1407
ag1334
aa(lp1408
S'electrolyte'
p1409
aS'N'
p1410
ag1315
aa(lp1411
S'.'
p1412
aS'N'
p1413
aS'.'
p1414
aa(lp1415
g42
ag4
ag4
aa(lp1416
g44
ag4
ag4
aaa(lp1417
(lp1418
g3
ag4
ag4
aa(lp1419
g6
ag4
ag4
aa(lp1420
S'The'
p1421
aS'N'
p1422
aS'DT'
p1423
aa(lp1424
S'cell'
p1425
aS'N'
p1426
aS'NN'
p1427
aa(lp1428
S'was'
p1429
aS'N'
p1430
aS'VBD'
p1431
aa(lp1432
S'gas'
p1433
aS'N'
p1434
aS'NN'
p1435
aa(lp1436
S'tight'
p1437
aS'N'
p1438
ag1427
aa(lp1439
S'except'
p1440
aS'N'
p1441
aS'IN'
p1442
aa(lp1443
S'for'
p1444
aS'N'
p1445
aS'IN'
p1446
aa(lp1447
S'the'
p1448
aS'N'
p1449
aS'DT'
p1450
aa(lp1451
S'stainless'
p1452
aS'N'
p1453
ag1427
aa(lp1454
S'steel'
p1455
aS'N'
p1456
aS'NN'
p1457
aa(lp1458
S'mesh'
p1459
aS'N'
p1460
ag1427
aa(lp1461
S'window'
p1462
aS'N'
p1463
ag1427
aa(lp1464
S'which'
p1465
aS'N'
p1466
aS'WDT'
p1467
aa(lp1468
S'was'
p1469
aS'N'
p1470
ag1431
aa(lp1471
S'exposed'
p1472
aS'N'
p1473
aS'VBN'
p1474
aa(lp1475
S'at'
p1476
aS'N'
p1477
aS'IN'
p1478
aa(lp1479
S'the'
p1480
aS'N'
p1481
ag1450
aa(lp1482
S'porous'
p1483
aS'N'
p1484
aS'JJ'
p1485
aa(lp1486
S'cathode'
p1487
aS'N'
p1488
ag1427
aa(lp1489
S'to'
p1490
aS'N'
p1491
aS'TO'
p1492
aa(lp1493
S'ambient'
p1494
aS'N'
p1495
aS'VB'
p1496
aa(lp1497
S'atmosphere'
p1498
aS'N'
p1499
aS'RB'
p1500
aa(lp1501
S'.'
p1502
aS'N'
p1503
aS'.'
p1504
aa(lp1505
g42
ag4
ag4
aa(lp1506
g44
ag4
ag4
aaa(lp1507
(lp1508
g3
ag4
ag4
aa(lp1509
g6
ag4
ag4
aa(lp1510
S'Finally,'
p1511
aS'N'
p1512
aS'IN'
p1513
aa(lp1514
S'the'
p1515
aS'N'
p1516
aS'DT'
p1517
aa(lp1518
S'cells'
p1519
aS'PR'
p1520
aS'NNS'
p1521
aa(lp1522
S'with'
p1523
aS'N'
p1524
aS'IN'
p1525
aa(lp1526
S'waterproof'
p1527
aS'I'
p1528
aS'JJ'
p1529
aa(lp1530
S'membranes'
p1531
aS'I'
p1532
aS'NNS'
p1533
aa(lp1534
S'made'
p1535
aS'N'
p1536
aS'VBN'
p1537
aa(lp1538
S'in-house'
p1539
aS'N'
p1540
aS'NN'
p1541
aa(lp1542
S'were'
p1543
aS'A'
p1544
aS'VBD'
p1545
aa(lp1546
S'sealed'
p1547
aS'A'
p1548
ag1537
aa(lp1549
S'in'
p1550
aS'N'
p1551
aS'IN'
p1552
aa(lp1553
S'a'
p1554
aS'N'
p1555
aS'DT'
p1556
aa(lp1557
S'bag'
p1558
aS'E'
p1559
ag1541
aa(lp1560
S'for'
p1561
aS'N'
p1562
aS'IN'
p1563
aa(lp1564
S'12'
p1565
aS'P'
p1566
aS'CD'
p1567
aa(lp1568
S'h'
p1569
aS'P'
p1570
ag1541
aa(lp1571
S'(Fig.'
p1572
aS'N'
p1573
ag1529
aa(lp1574
S'1)'
p1575
aS'N'
p1576
aS'CD'
p1577
aa(lp1578
S'.'
p1579
aS'N'
p1580
aS'.'
p1581
aa(lp1582
g42
ag4
ag4
aa(lp1583
g44
ag4
ag4
aaa(lp1584
(lp1585
g3
ag4
ag4
aa(lp1586
g6
ag4
ag4
aa(lp1587
S'All'
p1588
aS'N'
p1589
aS'DT'
p1590
aa(lp1591
S'electrochemical'
p1592
aS'E'
p1593
aS'JJ'
p1594
aa(lp1595
S'investigation'
p1596
aS'E'
p1597
aS'NN'
p1598
aa(lp1599
S'and'
p1600
aS'N'
p1601
aS'CC'
p1602
aa(lp1603
S'characterization'
p1604
aS'E'
p1605
aS'NN'
p1606
aa(lp1607
S'of'
p1608
aS'N'
p1609
aS'IN'
p1610
aa(lp1611
S'the'
p1612
aS'N'
p1613
aS'DT'
p1614
aa(lp1615
S'cell'
p1616
aS'R'
p1617
ag1606
aa(lp1618
S'were'
p1619
aS'A'
p1620
aS'VBD'
p1621
aa(lp1622
S'conducted'
p1623
aS'A'
p1624
aS'VBN'
p1625
aa(lp1626
S'under'
p1627
aS'N'
p1628
aS'IN'
p1629
aa(lp1630
S'ambient'
p1631
aS'P'
p1632
ag1606
aa(lp1633
S'atmosphere'
p1634
aS'P'
p1635
ag1606
aa(lp1636
S'.'
p1637
aS'N'
p1638
aS'.'
p1639
aa(lp1640
g42
ag4
ag4
aa(lp1641
g44
ag4
ag4
aaa(lp1642
(lp1643
g3
ag4
ag4
aa(lp1644
g6
ag4
ag4
aa(lp1645
S'Linear'
p1646
aS'E'
p1647
aS'JJ'
p1648
aa(lp1649
S'scanning'
p1650
aS'E'
p1651
aS'VBG'
p1652
aa(lp1653
S'voltammetry'
p1654
aS'E'
p1655
aS'NN'
p1656
aa(lp1657
S'tests'
p1658
aS'E'
p1659
aS'NNS'
p1660
aa(lp1661
S'were'
p1662
aS'A'
p1663
aS'VBD'
p1664
aa(lp1665
S'carried'
p1666
aS'A'
p1667
aS'VBN'
p1668
aa(lp1669
S'out'
p1670
aS'A'
p1671
aS'RP'
p1672
aa(lp1673
S'by'
p1674
aS'N'
p1675
aS'IN'
p1676
aa(lp1677
S'a'
p1678
aS'N'
p1679
aS'DT'
p1680
aa(lp1681
S'three'
p1682
aS'E'
p1683
aS'CD'
p1684
aa(lp1685
S'electrodes'
p1686
aS'E'
p1687
ag1660
aa(lp1688
S'system'
p1689
aS'E'
p1690
aS'NN'
p1691
aa(lp1692
S'on'
p1693
aS'N'
p1694
aS'IN'
p1695
aa(lp1696
S'an'
p1697
aS'N'
p1698
aS'DT'
p1699
aa(lp1700
S'electrochemistry'
p1701
aS'E'
p1702
ag1656
aa(lp1703
S'workstation'
p1704
aS'E'
p1705
ag1656
aa(lp1706
S'(CHI660'
p1707
aS'E'
p1708
aS'NNP'
p1709
aa(lp1710
S','
p1711
aS'N'
p1712
aS','
p1713
aa(lp1714
S'Shanghai'
p1715
aS'N'
p1716
ag1709
aa(lp1717
S'ChenHua'
p1718
aS'N'
p1719
ag1709
aa(lp1720
S'Co.)'
p1721
aS'N'
p1722
ag1709
aa(lp1723
S'.'
p1724
aS'N'
p1725
aS'.'
p1726
aa(lp1727
g42
ag4
ag4
aa(lp1728
g44
ag4
ag4
aaa(lp1729
(lp1730
g3
ag4
ag4
aa(lp1731
g6
ag4
ag4
aa(lp1732
S'The'
p1733
aS'N'
p1734
aS'DT'
p1735
aa(lp1736
S'working'
p1737
aS'N'
p1738
aS'VBG'
p1739
aa(lp1740
S'electrode'
p1741
aS'N'
p1742
aS'NN'
p1743
aa(lp1744
S'was'
p1745
aS'A'
p1746
aS'VBD'
p1747
aa(lp1748
S'the'
p1749
aS'N'
p1750
aS'DT'
p1751
aa(lp1752
S'as-prepared'
p1753
aS'R'
p1754
aS'JJ'
p1755
aa(lp1756
S'electrode'
p1757
aS'R'
p1758
ag1743
aa(lp1759
S'(0.5'
p1760
aS'P'
p1761
aS'NNP'
p1762
aa(lp1763
S'cm'
p1764
aS'P'
p1765
aS'VBZ'
p1766
aa(lp1767
S'0.5'
p1768
aS'P'
p1769
aS'CD'
p1770
aa(lp1771
S'cm)'
p1772
aS'P'
p1773
ag1743
aa(lp1774
S','
p1775
aS'N'
p1776
aS','
p1777
aa(lp1778
S'Pt'
p1779
aS'I'
p1780
ag1762
aa(lp1781
S'film'
p1782
aS'I'
p1783
aS'NN'
p1784
aa(lp1785
S'electrode,'
p1786
aS'N'
p1787
ag1747
aa(lp1788
S'a'
p1789
aS'N'
p1790
aS'DT'
p1791
aa(lp1792
S'saturated'
p1793
aS'P'
p1794
ag1755
aa(lp1795
S'calomel'
p1796
aS'I'
p1797
ag1743
aa(lp1798
S'electrode'
p1799
aS'I'
p1800
ag1743
aa(lp1801
S'was'
p1802
aS'A'
p1803
ag1747
aa(lp1804
S'as'
p1805
aS'N'
p1806
aS'IN'
p1807
aa(lp1808
S'the'
p1809
aS'N'
p1810
ag1751
aa(lp1811
S'reference'
p1812
aS'N'
p1813
ag1743
aa(lp1814
S'electrode'
p1815
aS'N'
p1816
ag1743
aa(lp1817
S','
p1818
aS'N'
p1819
ag1777
aa(lp1820
S'0.1'
p1821
aS'P'
p1822
ag1770
aa(lp1823
S'mol/L'
p1824
aS'P'
p1825
ag1743
aa(lp1826
S'NaOH'
p1827
aS'I'
p1828
ag1762
aa(lp1829
S'solution'
p1830
aS'I'
p1831
ag1743
aa(lp1832
S'as'
p1833
aS'N'
p1834
ag1807
aa(lp1835
S'the'
p1836
aS'N'
p1837
ag1751
aa(lp1838
S'electrolyte'
p1839
aS'N'
p1840
ag1743
aa(lp1841
S'.'
p1842
aS'N'
p1843
aS'.'
p1844
aa(lp1845
g42
ag4
ag4
aa(lp1846
g44
ag4
ag4
aaa(lp1847
(lp1848
g3
ag4
ag4
aa(lp1849
g6
ag4
ag4
aa(lp1850
S'The'
p1851
aS'N'
p1852
aS'DT'
p1853
aa(lp1854
S'potential'
p1855
aS'P'
p1856
aS'NN'
p1857
aa(lp1858
S'of'
p1859
aS'P'
p1860
aS'IN'
p1861
aa(lp1862
S'the'
p1863
aS'P'
p1864
aS'DT'
p1865
aa(lp1866
S'scan'
p1867
aS'P'
p1868
aS'JJ'
p1869
aa(lp1870
S'range'
p1871
aS'P'
p1872
ag1857
aa(lp1873
S'was'
p1874
aS'A'
p1875
aS'VBD'
p1876
aa(lp1877
S'from'
p1878
aS'N'
p1879
aS'IN'
p1880
aa(lp1881
S'ocp'
p1882
aS'P'
p1883
ag1869
aa(lp1884
S'to1.0'
p1885
aS'P'
p1886
ag1857
aa(lp1887
S'V'
p1888
aS'P'
p1889
aS'NNP'
p1890
aa(lp1891
S','
p1892
aS'N'
p1893
aS','
p1894
aa(lp1895
S'and'
p1896
aS'N'
p1897
aS'CC'
p1898
aa(lp1899
S'the'
p1900
aS'N'
p1901
ag1865
aa(lp1902
S'scan'
p1903
aS'P'
p1904
ag1869
aa(lp1905
S'rate'
p1906
aS'P'
p1907
aS'NN'
p1908
aa(lp1909
S'is'
p1910
aS'A'
p1911
aS'VBZ'
p1912
aa(lp1913
S'10'
p1914
aS'P'
p1915
aS'CD'
p1916
aa(lp1917
S'mV/s'
p1918
aS'P'
p1919
ag1857
aa(lp1920
S'.'
p1921
aS'N'
p1922
aS'.'
p1923
aa(lp1924
g42
ag4
ag4
aa(lp1925
g44
ag4
ag4
aaa(lp1926
(lp1927
g3
ag4
ag4
aa(lp1928
g6
ag4
ag4
aa(lp1929
S'Charge'
p1930
aS'E'
p1931
aS'NN'
p1932
aa(lp1933
S'and'
p1934
aS'E'
p1935
aS'CC'
p1936
aa(lp1937
S'discharge'
p1938
aS'E'
p1939
ag1932
aa(lp1940
S'performance'
p1941
aS'E'
p1942
aS'NN'
p1943
aa(lp1944
S'was'
p1945
aS'A'
p1946
aS'VBD'
p1947
aa(lp1948
S'conducted'
p1949
aS'A'
p1950
aS'VBN'
p1951
aa(lp1952
S'on'
p1953
aS'N'
p1954
aS'IN'
p1955
aa(lp1956
S'a'
p1957
aS'N'
p1958
aS'DT'
p1959
aa(lp1960
S'cell'
p1961
aS'E'
p1962
ag1932
aa(lp1963
S'test'
p1964
aS'E'
p1965
ag1932
aa(lp1966
S'system'
p1967
aS'E'
p1968
aS'NN'
p1969
aa(lp1970
S'(CT2001A'
p1971
aS'E'
p1972
aS'NNP'
p1973
aa(lp1974
S','
p1975
aS'N'
p1976
aS','
p1977
aa(lp1978
S'Wuhan'
p1979
aS'N'
p1980
ag1973
aa(lp1981
S'Jinnuo'
p1982
aS'N'
p1983
ag1973
aa(lp1984
S'Electronics'
p1985
aS'N'
p1986
ag1973
aa(lp1987
S'Co.,'
p1988
aS'N'
p1989
ag1973
aa(lp1990
S'Ltd.)'
p1991
aS'N'
p1992
ag1973
aa(lp1993
S'at'
p1994
aS'N'
p1995
aS'IN'
p1996
aa(lp1997
S'the'
p1998
aS'N'
p1999
aS'DT'
p2000
aa(lp2001
S'voltage'
p2002
aS'P'
p2003
ag1932
aa(lp2004
S'range'
p2005
aS'P'
p2006
ag1932
aa(lp2007
S'of'
p2008
aS'P'
p2009
aS'IN'
p2010
aa(lp2011
S'2.04.2'
p2012
aS'P'
p2013
aS'CD'
p2014
aa(lp2015
S'V'
p2016
aS'P'
p2017
ag1973
aa(lp2018
S'.'
p2019
aS'N'
p2020
aS'.'
p2021
aa(lp2022
g42
ag4
ag4
aa(lp2023
g44
ag4
ag4
aaa(lp2024
(lp2025
g3
ag4
ag4
aa(lp2026
g6
ag4
ag4
aa(lp2027
S'A'
p2028
aS'N'
p2029
aS'DT'
p2030
aa(lp2031
S'CHI660'
p2032
aS'E'
p2033
aS'NNP'
p2034
aa(lp2035
S'electrochemistry'
p2036
aS'E'
p2037
aS'NN'
p2038
aa(lp2039
S'workstation'
p2040
aS'E'
p2041
ag2038
aa(lp2042
S'was'
p2043
aS'A'
p2044
aS'VBD'
p2045
aa(lp2046
S'employed'
p2047
aS'A'
p2048
aS'VBN'
p2049
aa(lp2050
S'to'
p2051
aS'N'
p2052
aS'TO'
p2053
aa(lp2054
S'collect'
p2055
aS'P'
p2056
aS'VB'
p2057
aa(lp2058
S'the'
p2059
aS'N'
p2060
aS'DT'
p2061
aa(lp2062
S'cyclic'
p2063
aS'PR'
p2064
aS'JJ'
p2065
aa(lp2066
S'voltammetry'
p2067
aS'PR'
p2068
ag2038
aa(lp2069
S'results'
p2070
aS'PR'
p2071
aS'NNS'
p2072
aa(lp2073
S'of'
p2074
aS'N'
p2075
aS'IN'
p2076
aa(lp2077
S'the'
p2078
aS'N'
p2079
ag2061
aa(lp2080
S'cell'
p2081
aS'R'
p2082
ag2038
aa(lp2083
S'at'
p2084
aS'N'
p2085
aS'IN'
p2086
aa(lp2087
S'2.04.2'
p2088
aS'P'
p2089
aS'CD'
p2090
aa(lp2091
S'V'
p2092
aS'P'
p2093
ag2034
aa(lp2094
S'at'
p2095
aS'N'
p2096
ag2086
aa(lp2097
S'a'
p2098
aS'N'
p2099
aS'DT'
p2100
aa(lp2101
S'scanning'
p2102
aS'P'
p2103
aS'VBG'
p2104
aa(lp2105
S'rate'
p2106
aS'P'
p2107
aS'NN'
p2108
aa(lp2109
S'of'
p2110
aS'P'
p2111
ag2076
aa(lp2112
S'0.1'
p2113
aS'P'
p2114
ag2090
aa(lp2115
S'mV/s'
p2116
aS'P'
p2117
ag2038
aa(lp2118
S'.'
p2119
aS'N'
p2120
aS'.'
p2121
aa(lp2122
g42
ag4
ag4
aa(lp2123
g44
ag4
ag4
aaa(lp2124
(lp2125
g3
ag4
ag4
aa(lp2126
g6
ag4
ag4
aa(lp2127
S'The'
p2128
aS'N'
p2129
aS'DT'
p2130
aa(lp2131
S'conductivity'
p2132
aS'PR'
p2133
aS'NN'
p2134
aa(lp2135
S'was'
p2136
aS'A'
p2137
aS'VBD'
p2138
aa(lp2139
S'measured'
p2140
aS'A'
p2141
aS'VBN'
p2142
aa(lp2143
S'by'
p2144
aS'N'
p2145
aS'IN'
p2146
aa(lp2147
S'AC'
p2148
aS'E'
p2149
aS'NNP'
p2150
aa(lp2151
S'impedance'
p2152
aS'E'
p2153
ag2134
aa(lp2154
S'method'
p2155
aS'E'
p2156
ag2134
aa(lp2157
S'using'
p2158
aS'N'
p2159
aS'VBG'
p2160
aa(lp2161
S'a'
p2162
aS'N'
p2163
aS'DT'
p2164
aa(lp2165
S'frequency'
p2166
aS'E'
p2167
ag2134
aa(lp2168
S'impedance'
p2169
aS'E'
p2170
ag2134
aa(lp2171
S'analyzer'
p2172
aS'E'
p2173
ag2134
aa(lp2174
S'(IM6e'
p2175
aS'E'
p2176
ag2150
aa(lp2177
S','
p2178
aS'N'
p2179
aS','
p2180
aa(lp2181
S'Germany'
p2182
aS'N'
p2183
aS'NNP'
p2184
aa(lp2185
S'Zahner'
p2186
aS'N'
p2187
ag2150
aa(lp2188
S'Co.'
p2189
aS'N'
p2190
aS'NNP'
p2191
aa(lp2192
S'LTD)'
p2193
aS'N'
p2194
ag2150
aa(lp2195
S'in'
p2196
aS'N'
p2197
aS'IN'
p2198
aa(lp2199
S'the'
p2200
aS'N'
p2201
aS'DT'
p2202
aa(lp2203
S'range'
p2204
aS'P'
p2205
ag2134
aa(lp2206
S'of'
p2207
aS'P'
p2208
aS'IN'
p2209
aa(lp2210
S'0.01100'
p2211
aS'P'
p2212
aS'CD'
p2213
aa(lp2214
S'kHz'
p2215
aS'P'
p2216
aS'NNS'
p2217
aa(lp2218
S'.'
p2219
aS'N'
p2220
aS'.'
p2221
aa(lp2222
g42
ag4
ag4
aa(lp2223
g44
ag4
ag4
aaa(lp2224
(lp2225
g3
ag4
ag4
aa(lp2226
g6
ag4
ag4
aa(lp2227
S'The'
p2228
aS'N'
p2229
aS'DT'
p2230
aa(lp2231
S'amplitude'
p2232
aS'P'
p2233
aS'NN'
p2234
aa(lp2235
S'of'
p2236
aS'P'
p2237
aS'IN'
p2238
aa(lp2239
S'the'
p2240
aS'P'
p2241
aS'DT'
p2242
aa(lp2243
S'AC'
p2244
aS'P'
p2245
aS'NNP'
p2246
aa(lp2247
S'potential'
p2248
aS'P'
p2249
aS'JJ'
p2250
aa(lp2251
S'signal'
p2252
aS'P'
p2253
ag2234
aa(lp2254
S'was'
p2255
aS'A'
p2256
aS'VBD'
p2257
aa(lp2258
S'fixed'
p2259
aS'A'
p2260
aS'VBN'
p2261
aa(lp2262
S'at'
p2263
aS'N'
p2264
aS'IN'
p2265
aa(lp2266
S'5'
p2267
aS'P'
p2268
aS'CD'
p2269
aa(lp2270
S'mV'
p2271
aS'P'
p2272
ag2234
aa(lp2273
S'for'
p2274
aS'N'
p2275
aS'IN'
p2276
aa(lp2277
S'all'
p2278
aS'N'
p2279
aS'DT'
p2280
aa(lp2281
S'measurements'
p2282
aS'N'
p2283
aS'NNS'
p2284
aa(lp2285
S'.'
p2286
aS'N'
p2287
aS'.'
p2288
aa(lp2289
g42
ag4
ag4
aa(lp2290
g44
ag4
ag4
aaa.