(lp0
(lp1
(lp2
S'***START***'
p3
aS'None'
p4
ag4
aa(lp5
S'***START2***'
p6
ag4
ag4
aa(lp7
S'The'
p8
aS'N'
p9
aS'DT'
p10
aa(lp11
S'S/C'
p12
aS'PR'
p13
aS'NNP'
p14
aa(lp15
S'composites'
p16
aS'PR'
p17
aS'NNS'
p18
aa(lp19
S'were'
p20
aS'A'
p21
aS'VBD'
p22
aa(lp23
S'pulverized'
p24
aS'A'
p25
aS'VBN'
p26
aa(lp27
S'using'
p28
aS'N'
p29
aS'VBG'
p30
aa(lp31
S'a'
p32
aS'N'
p33
aS'DT'
p34
aa(lp35
S'ball'
p36
aS'E'
p37
aS'NN'
p38
aa(lp39
S'mill'
p40
aS'E'
p41
ag38
aa(lp42
S'and'
p43
aS'N'
p44
aS'CC'
p45
aa(lp46
S'sieved'
p47
aS'E'
p48
aS'VBD'
p49
aa(lp50
S'through'
p51
aS'N'
p52
aS'IN'
p53
aa(lp54
S'a'
p55
aS'N'
p56
ag34
aa(lp57
S'25'
p58
aS'P'
p59
aS'CD'
p60
aa(lp61
S'm'
p62
aS'P'
p63
ag38
aa(lp64
S'opening'
p65
aS'P'
p66
ag38
aa(lp67
S'stainless'
p68
aS'I'
p69
ag38
aa(lp70
S'steel'
p71
aS'I'
p72
aS'NN'
p73
aa(lp74
S'sieve'
p75
aS'I'
p76
ag18
aa(lp77
S'.'
p78
aS'N'
p79
aS'.'
p80
aa(lp81
S'***END***'
p82
ag4
ag4
aa(lp83
S'***END2***'
p84
ag4
ag4
aaa(lp85
(lp86
g3
ag4
ag4
aa(lp87
g6
ag4
ag4
aa(lp88
S'Slurries'
p89
aS'PR'
p90
aS'NNS'
p91
aa(lp92
S'were'
p93
aS'A'
p94
aS'VBD'
p95
aa(lp96
S'prepared'
p97
aS'A'
p98
aS'VBN'
p99
aa(lp100
S'using'
p101
aS'N'
p102
aS'VBG'
p103
aa(lp104
S'the'
p105
aS'N'
p106
aS'DT'
p107
aa(lp108
S'S/C'
p109
aS'R'
p110
aS'NNP'
p111
aa(lp112
S'composites'
p113
aS'R'
p114
ag91
aa(lp115
S'and'
p116
aS'N'
p117
aS'CC'
p118
aa(lp119
S'a'
p120
aS'N'
p121
aS'DT'
p122
aa(lp123
S'solution'
p124
aS'N'
p125
aS'NN'
p126
aa(lp127
S'of'
p128
aS'N'
p129
aS'IN'
p130
aa(lp131
S'1'
p132
aS'P'
p133
aS'CD'
p134
aa(lp135
S'wt'
p136
aS'P'
p137
ag126
aa(lp138
S'%'
p139
aS'P'
p140
aS'NN'
p141
aa(lp142
S'fluoride)'
p143
aS'I'
p144
aS'JJ'
p145
aa(lp146
S'(PVDF)'
p147
aS'I'
p148
ag126
aa(lp149
S'in'
p150
aS'N'
p151
aS'IN'
p152
aa(lp153
S'anhydrous'
p154
aS'I'
p155
ag145
aa(lp156
S'N-methyl-2-pyrolidinone'
p157
aS'I'
p158
ag145
aa(lp159
S'(NMP)'
p160
aS'I'
p161
ag126
aa(lp162
S'with'
p163
aS'N'
p164
aS'IN'
p165
aa(lp166
S'a'
p167
aS'N'
p168
ag122
aa(lp169
S'ratio'
p170
aS'P'
p171
ag126
aa(lp172
S'of'
p173
aS'P'
p174
ag130
aa(lp175
S'1:5'
p176
aS'P'
p177
aS'CD'
p178
aa(lp179
S'.'
p180
aS'N'
p181
aS'.'
p182
aa(lp183
g82
ag4
ag4
aa(lp184
g84
ag4
ag4
aaa(lp185
(lp186
g3
ag4
ag4
aa(lp187
g6
ag4
ag4
aa(lp188
S'The'
p189
aS'N'
p190
aS'DT'
p191
aa(lp192
S'slurries'
p193
aS'R'
p194
aS'NNS'
p195
aa(lp196
S'were'
p197
aS'A'
p198
aS'VBD'
p199
aa(lp200
S'applied'
p201
aS'A'
p202
aS'VBN'
p203
aa(lp204
S'to'
p205
aS'N'
p206
aS'TO'
p207
aa(lp208
S'10'
p209
aS'P'
p210
aS'CD'
p211
aa(lp212
S'mm'
p213
aS'P'
p214
ag195
aa(lp215
S'diameter'
p216
aS'P'
p217
aS'RB'
p218
aa(lp219
S'aluminum'
p220
aS'I'
p221
aS'VBP'
p222
aa(lp223
S'current'
p224
aS'N'
p225
aS'JJ'
p226
aa(lp227
S'collectors'
p228
aS'N'
p229
ag195
aa(lp230
S'and'
p231
aS'N'
p232
aS'CC'
p233
aa(lp234
S'dried'
p235
aS'A'
p236
ag203
aa(lp237
S'at'
p238
aS'N'
p239
aS'IN'
p240
aa(lp241
S'120'
p242
aS'P'
p243
aS'CD'
p244
aa(lp245
S'C'
p246
aS'P'
p247
aS'NNP'
p248
aa(lp249
S'for'
p250
aS'N'
p251
aS'IN'
p252
aa(lp253
S'4'
p254
aS'P'
p255
aS'CD'
p256
aa(lp257
S'h'
p258
aS'P'
p259
aS'NN'
p260
aa(lp261
S'.'
p262
aS'N'
p263
aS'.'
p264
aa(lp265
g82
ag4
ag4
aa(lp266
g84
ag4
ag4
aaa(lp267
(lp268
g3
ag4
ag4
aa(lp269
g6
ag4
ag4
aa(lp270
S'For'
p271
aS'N'
p272
aS'IN'
p273
aa(lp274
S'the'
p275
aS'N'
p276
aS'DT'
p277
aa(lp278
S'purpose'
p279
aS'N'
p280
aS'NN'
p281
aa(lp282
S'of'
p283
aS'N'
p284
aS'IN'
p285
aa(lp286
S'comparison'
p287
aS'N'
p288
ag281
aa(lp289
S','
p290
aS'N'
p291
aS','
p292
aa(lp293
S'the'
p294
aS'N'
p295
ag277
aa(lp296
S'original'
p297
aS'N'
p298
aS'JJ'
p299
aa(lp300
S'mesoporous'
p301
aS'I'
p302
ag299
aa(lp303
S'carbon'
p304
aS'I'
p305
ag281
aa(lp306
S'(MPC)'
p307
aS'I'
p308
ag281
aa(lp309
S'with'
p310
aS'N'
p311
aS'IN'
p312
aa(lp313
S'24.1'
p314
aS'P'
p315
aS'CD'
p316
aa(lp317
S'wt'
p318
aS'P'
p319
aS'NNS'
p320
aa(lp321
S'%'
p322
aS'P'
p323
aS'NN'
p324
aa(lp325
S'sulfur'
p326
aS'I'
p327
ag299
aa(lp328
S'loading'
p329
aS'N'
p330
ag281
aa(lp331
S'and'
p332
aS'N'
p333
aS'CC'
p334
aa(lp335
S'WVA-1500'
p336
aS'I'
p337
aS'NNP'
p338
aa(lp339
S'(MeadWestvaco'
p340
aS'N'
p341
ag338
aa(lp342
S'Corporation)'
p343
aS'N'
p344
ag338
aa(lp345
S'with'
p346
aS'N'
p347
ag312
aa(lp348
S'sulfur'
p349
aS'I'
p350
ag299
aa(lp351
S'loading'
p352
aS'N'
p353
ag281
aa(lp354
S'of'
p355
aS'N'
p356
ag285
aa(lp357
S'25.2'
p358
aS'P'
p359
ag316
aa(lp360
S'wt'
p361
aS'P'
p362
ag320
aa(lp363
S'%'
p364
aS'P'
p365
ag324
aa(lp366
S'were'
p367
aS'A'
p368
aS'VBD'
p369
aa(lp370
S'also'
p371
aS'N'
p372
aS'RB'
p373
aa(lp374
S'prepared'
p375
aS'A'
p376
aS'VBN'
p377
aa(lp378
S'as'
p379
aS'N'
p380
aS'IN'
p381
aa(lp382
S'cathodes'
p383
aS'N'
p384
ag320
aa(lp385
S'by'
p386
aS'N'
p387
aS'IN'
p388
aa(lp389
S'applying'
p390
aS'N'
p391
aS'VBG'
p392
aa(lp393
S'an'
p394
aS'N'
p395
aS'DT'
p396
aa(lp397
S'identical'
p398
aS'E'
p399
ag299
aa(lp400
S'procedure'
p401
aS'E'
p402
ag281
aa(lp403
S'that'
p404
aS'N'
p405
aS'WDT'
p406
aa(lp407
S'was'
p408
aS'N'
p409
aS'VBD'
p410
aa(lp411
S'used'
p412
aS'N'
p413
ag377
aa(lp414
S'for'
p415
aS'N'
p416
aS'IN'
p417
aa(lp418
S'the'
p419
aS'N'
p420
ag277
aa(lp421
S'preparation'
p422
aS'N'
p423
ag281
aa(lp424
S'of'
p425
aS'N'
p426
ag285
aa(lp427
S'S/C'
p428
aS'N'
p429
ag338
aa(lp430
S'composite'
p431
aS'N'
p432
ag299
aa(lp433
S'cathodes'
p434
aS'N'
p435
ag320
aa(lp436
S'.'
p437
aS'N'
p438
aS'.'
p439
aa(lp440
g82
ag4
ag4
aa(lp441
g84
ag4
ag4
aaa(lp442
(lp443
g3
ag4
ag4
aa(lp444
g6
ag4
ag4
aa(lp445
S'The'
p446
aS'N'
p447
aS'DT'
p448
aa(lp449
S'batteries'
p450
aS'PR'
p451
aS'NNS'
p452
aa(lp453
S'were'
p454
aS'A'
p455
aS'VBD'
p456
aa(lp457
S'assembled'
p458
aS'A'
p459
aS'VBN'
p460
aa(lp461
S'as'
p462
aS'N'
p463
aS'IN'
p464
aa(lp465
S'Swagelok'
p466
aS'E'
p467
aS'NNP'
p468
aa(lp469
S'cells'
p470
aS'E'
p471
aS'NNS'
p472
aa(lp473
S'by'
p474
aS'N'
p475
aS'IN'
p476
aa(lp477
S'using'
p478
aS'N'
p479
aS'VBG'
p480
aa(lp481
S'the'
p482
aS'N'
p483
aS'DT'
p484
aa(lp485
S'S/C'
p486
aS'R'
p487
ag468
aa(lp488
S'composite'
p489
aS'R'
p490
aS'JJ'
p491
aa(lp492
S'coated'
p493
aS'R'
p494
aS'VBD'
p495
aa(lp496
S'aluminum'
p497
aS'R'
p498
aS'NN'
p499
aa(lp500
S'foil'
p501
aS'R'
p502
ag499
aa(lp503
S'(10'
p504
aS'P'
p505
ag468
aa(lp506
S'mm'
p507
aS'P'
p508
ag499
aa(lp509
S'diameter'
p510
aS'P'
p511
ag499
aa(lp512
S','
p513
aS'N'
p514
aS','
p515
aa(lp516
S'7'
p517
aS'P'
p518
aS'CD'
p519
aa(lp520
S'mm'
p521
aS'P'
p522
ag499
aa(lp523
S'thickness)'
p524
aS'P'
p525
ag499
aa(lp526
S'as'
p527
aS'N'
p528
ag464
aa(lp529
S'the'
p530
aS'N'
p531
ag484
aa(lp532
S'cathode'
p533
aS'N'
p534
ag499
aa(lp535
S','
p536
aS'N'
p537
ag515
aa(lp538
S'and'
p539
aS'N'
p540
aS'CC'
p541
aa(lp542
S'a'
p543
aS'N'
p544
aS'DT'
p545
aa(lp546
S'lithium'
p547
aS'I'
p548
ag499
aa(lp549
S'foil'
p550
aS'I'
p551
ag499
aa(lp552
S'(7'
p553
aS'P'
p554
ag468
aa(lp555
S'mm'
p556
aS'P'
p557
ag499
aa(lp558
S'thickness'
p559
aS'P'
p560
ag499
aa(lp561
S'and'
p562
aS'N'
p563
ag541
aa(lp564
S'10'
p565
aS'P'
p566
aS'CD'
p567
aa(lp568
S'mm'
p569
aS'P'
p570
ag499
aa(lp571
S'diameter)'
p572
aS'P'
p573
ag499
aa(lp574
S'as'
p575
aS'N'
p576
ag464
aa(lp577
S'the'
p578
aS'N'
p579
ag484
aa(lp580
S'anode'
p581
aS'N'
p582
ag499
aa(lp583
S','
p584
aS'N'
p585
ag515
aa(lp586
S'a'
p587
aS'N'
p588
ag545
aa(lp589
S'Celgard'
p590
aS'I'
p591
ag468
aa(lp592
S'3225'
p593
aS'I'
p594
aS'CD'
p595
aa(lp596
S'separator'
p597
aS'I'
p598
ag499
aa(lp599
S'(10.3'
p600
aS'P'
p601
ag468
aa(lp602
S'mm'
p603
aS'P'
p604
ag499
aa(lp605
S'diameter)'
p606
aS'P'
p607
ag499
aa(lp608
S','
p609
aS'N'
p610
ag515
aa(lp611
S'and'
p612
aS'N'
p613
ag541
aa(lp614
S'an'
p615
aS'N'
p616
aS'DT'
p617
aa(lp618
S'organic'
p619
aS'R'
p620
ag491
aa(lp621
S'electrolyte'
p622
aS'R'
p623
ag499
aa(lp624
S'.'
p625
aS'N'
p626
aS'.'
p627
aa(lp628
g82
ag4
ag4
aa(lp629
g84
ag4
ag4
aaa(lp630
(lp631
g3
ag4
ag4
aa(lp632
g6
ag4
ag4
aa(lp633
S'The'
p634
aS'N'
p635
aS'DT'
p636
aa(lp637
S'organic'
p638
aS'PR'
p639
aS'JJ'
p640
aa(lp641
S'electrolytes'
p642
aS'PR'
p643
aS'NNS'
p644
aa(lp645
S'were'
p646
aS'N'
p647
aS'VBD'
p648
aa(lp649
S'solutions'
p650
aS'N'
p651
ag644
aa(lp652
S'of'
p653
aS'N'
p654
aS'IN'
p655
aa(lp656
S'Bis-'
p657
aS'I'
p658
aS'NNP'
p659
aa(lp660
S'(trifluoromethane)sulfonimide'
p661
aS'I'
p662
ag659
aa(lp663
S'lithium'
p664
aS'I'
p665
aS'NN'
p666
aa(lp667
S'(LiTFSI)'
p668
aS'I'
p669
ag659
aa(lp670
S'(99.95%'
p671
aS'P'
p672
ag659
aa(lp673
S'trace'
p674
aS'P'
p675
ag666
aa(lp676
S'metals'
p677
aS'P'
p678
ag644
aa(lp679
S'basis)'
p680
aS'P'
p681
aS'VBP'
p682
aa(lp683
S'in'
p684
aS'N'
p685
aS'IN'
p686
aa(lp687
S'a'
p688
aS'N'
p689
aS'DT'
p690
aa(lp691
S'mixed'
p692
aS'N'
p693
ag640
aa(lp694
S'solvent'
p695
aS'N'
p696
ag666
aa(lp697
S'of'
p698
aS'N'
p699
ag655
aa(lp700
S'1,3-dioxolane'
p701
aS'I'
p702
ag640
aa(lp703
S'(DOL)'
p704
aS'I'
p705
ag666
aa(lp706
S'and'
p707
aS'N'
p708
aS'CC'
p709
aa(lp710
S'dimethoxyethane'
p711
aS'I'
p712
ag666
aa(lp713
S'(DME)'
p714
aS'I'
p715
ag644
aa(lp716
S'with'
p717
aS'N'
p718
aS'IN'
p719
aa(lp720
S'volume'
p721
aS'P'
p722
aS'NN'
p723
aa(lp724
S'ratio'
p725
aS'P'
p726
ag666
aa(lp727
S'of'
p728
aS'P'
p729
ag655
aa(lp730
S'55:40'
p731
aS'P'
p732
aS'CD'
p733
aa(lp734
S'.'
p735
aS'N'
p736
aS'.'
p737
aa(lp738
g82
ag4
ag4
aa(lp739
g84
ag4
ag4
aaa(lp740
(lp741
g3
ag4
ag4
aa(lp742
g6
ag4
ag4
aa(lp743
S'The'
p744
aS'N'
p745
aS'DT'
p746
aa(lp747
S'organic'
p748
aS'N'
p749
aS'JJ'
p750
aa(lp751
S'electrolyte'
p752
aS'N'
p753
aS'NN'
p754
aa(lp755
S'filled'
p756
aS'N'
p757
aS'VBD'
p758
aa(lp759
S'the'
p760
aS'N'
p761
aS'DT'
p762
aa(lp763
S'pores'
p764
aS'N'
p765
aS'NNS'
p766
aa(lp767
S'of'
p768
aS'N'
p769
aS'IN'
p770
aa(lp771
S'the'
p772
aS'N'
p773
ag762
aa(lp774
S'cathode'
p775
aS'N'
p776
ag754
aa(lp777
S'and'
p778
aS'N'
p779
aS'CC'
p780
aa(lp781
S'separator'
p782
aS'N'
p783
ag754
aa(lp784
S'.'
p785
aS'N'
p786
aS'.'
p787
aa(lp788
g82
ag4
ag4
aa(lp789
g84
ag4
ag4
aaa(lp790
(lp791
g3
ag4
ag4
aa(lp792
g6
ag4
ag4
aa(lp793
S'The'
p794
aS'N'
p795
aS'DT'
p796
aa(lp797
S'cathode'
p798
aS'R'
p799
aS'NN'
p800
aa(lp801
S','
p802
aS'N'
p803
aS','
p804
aa(lp805
S'separator'
p806
aS'R'
p807
ag800
aa(lp808
S','
p809
aS'N'
p810
ag804
aa(lp811
S'and'
p812
aS'N'
p813
aS'CC'
p814
aa(lp815
S'anode'
p816
aS'R'
p817
aS'NNS'
p818
aa(lp819
S'were'
p820
aS'A'
p821
aS'VBD'
p822
aa(lp823
S'pressed'
p824
aS'A'
p825
aS'VBN'
p826
aa(lp827
S'by'
p828
aS'N'
p829
aS'IN'
p830
aa(lp831
S'a'
p832
aS'N'
p833
aS'DT'
p834
aa(lp835
S'spring'
p836
aS'I'
p837
ag800
aa(lp838
S'to'
p839
aS'N'
p840
aS'TO'
p841
aa(lp842
g82
ag4
ag4
aa(lp843
g84
ag4
ag4
aaa(lp844
(lp845
g3
ag4
ag4
aa(lp846
g6
ag4
ag4
aa(lp847
S'ensure'
p848
aS'N'
p849
aS'VB'
p850
aa(lp851
S'tight'
p852
aS'N'
p853
aS'JJ'
p854
aa(lp855
S'contact'
p856
aS'N'
p857
aS'NN'
p858
aa(lp859
S'.'
p860
aS'N'
p861
aS'.'
p862
aa(lp863
g82
ag4
ag4
aa(lp864
g84
ag4
ag4
aaa(lp865
(lp866
g3
ag4
ag4
aa(lp867
g6
ag4
ag4
aa(lp868
S'A'
p869
aS'N'
p870
aS'DT'
p871
aa(lp872
S'typical'
p873
aS'N'
p874
aS'JJ'
p875
aa(lp876
S'cell'
p877
aS'N'
p878
aS'NN'
p879
aa(lp880
S'contained'
p881
aS'N'
p882
aS'VBD'
p883
aa(lp884
S'about'
p885
aS'N'
p886
aS'IN'
p887
aa(lp888
S'0.2'
p889
aS'N'
p890
aS'CD'
p891
aa(lp892
S'mg'
p893
aS'N'
p894
aS'NNS'
p895
aa(lp896
S'of'
p897
aS'N'
p898
aS'IN'
p899
aa(lp900
S'sulfur'
p901
aS'N'
p902
ag879
aa(lp903
S'.'
p904
aS'N'
p905
aS'.'
p906
aa(lp907
g82
ag4
ag4
aa(lp908
g84
ag4
ag4
aaa(lp909
(lp910
g3
ag4
ag4
aa(lp911
g6
ag4
ag4
aa(lp912
S'No'
p913
aS'N'
p914
aS'DT'
p915
aa(lp916
S'excess'
p917
aS'N'
p918
aS'NN'
p919
aa(lp920
S'of'
p921
aS'N'
p922
aS'IN'
p923
aa(lp924
S'electrolyte'
p925
aS'N'
p926
ag919
aa(lp927
S'was'
p928
aS'N'
p929
aS'VBD'
p930
aa(lp931
S'left'
p932
aS'N'
p933
aS'VBN'
p934
aa(lp935
S'in'
p936
aS'N'
p937
aS'IN'
p938
aa(lp939
S'the'
p940
aS'N'
p941
aS'DT'
p942
aa(lp943
S'assembled'
p944
aS'N'
p945
aS'JJ'
p946
aa(lp947
S'cell'
p948
aS'N'
p949
ag919
aa(lp950
S'.'
p951
aS'N'
p952
aS'.'
p953
aa(lp954
g82
ag4
ag4
aa(lp955
g84
ag4
ag4
aaa(lp956
(lp957
g3
ag4
ag4
aa(lp958
g6
ag4
ag4
aa(lp959
S'The'
p960
aS'N'
p961
aS'DT'
p962
aa(lp963
S'batteries'
p964
aS'R'
p965
aS'NNS'
p966
aa(lp967
S'were'
p968
aS'A'
p969
aS'VBD'
p970
aa(lp971
S'tested'
p972
aS'A'
p973
aS'VBN'
p974
aa(lp975
S'in'
p976
aS'N'
p977
aS'IN'
p978
aa(lp979
S'a'
p980
aS'N'
p981
aS'DT'
p982
aa(lp983
S'Maccor'
p984
aS'E'
p985
aS'NNP'
p986
aa(lp987
S'4000'
p988
aS'E'
p989
aS'CD'
p990
aa(lp991
S'series'
p992
aS'E'
p993
aS'NN'
p994
aa(lp995
S'battery'
p996
aS'E'
p997
aS'NN'
p998
aa(lp999
S'tester'
p1000
aS'E'
p1001
ag998
aa(lp1002
S'.'
p1003
aS'N'
p1004
aS'.'
p1005
aa(lp1006
g82
ag4
ag4
aa(lp1007
g84
ag4
ag4
aaa(lp1008
(lp1009
g3
ag4
ag4
aa(lp1010
g6
ag4
ag4
aa(lp1011
S'The'
p1012
aS'N'
p1013
aS'DT'
p1014
aa(lp1015
S'batteries'
p1016
aS'R'
p1017
aS'NNS'
p1018
aa(lp1019
S'were'
p1020
aS'A'
p1021
aS'VBD'
p1022
aa(lp1023
S'cycled'
p1024
aS'A'
p1025
aS'VBN'
p1026
aa(lp1027
S'between'
p1028
aS'P'
p1029
aS'IN'
p1030
aa(lp1031
S'1.0'
p1032
aS'P'
p1033
aS'CD'
p1034
aa(lp1035
S'to'
p1036
aS'P'
p1037
aS'TO'
p1038
aa(lp1039
S'3.6'
p1040
aS'P'
p1041
ag1034
aa(lp1042
S'V'
p1043
aS'P'
p1044
aS'NNP'
p1045
aa(lp1046
S'.'
p1047
aS'N'
p1048
aS'.'
p1049
aa(lp1050
g82
ag4
ag4
aa(lp1051
g84
ag4
ag4
aaa(lp1052
(lp1053
g3
ag4
ag4
aa(lp1054
g6
ag4
ag4
aa(lp1055
S'Each'
p1056
aS'N'
p1057
aS'DT'
p1058
aa(lp1059
S'cycle'
p1060
aS'N'
p1061
aS'NN'
p1062
aa(lp1063
S'was'
p1064
aS'N'
p1065
aS'VBD'
p1066
aa(lp1067
S'started'
p1068
aS'N'
p1069
aS'VBN'
p1070
aa(lp1071
S'with'
p1072
aS'N'
p1073
aS'IN'
p1074
aa(lp1075
S'the'
p1076
aS'N'
p1077
aS'DT'
p1078
aa(lp1079
S'discharge'
p1080
aS'N'
p1081
aS'NN'
p1082
aa(lp1083
S'half-cycle'
p1084
aS'N'
p1085
ag1082
aa(lp1086
S'.'
p1087
aS'N'
p1088
aS'.'
p1089
aa(lp1090
g82
ag4
ag4
aa(lp1091
g84
ag4
ag4
aaa(lp1092
(lp1093
g3
ag4
ag4
aa(lp1094
g6
ag4
ag4
aa(lp1095
S'Unless'
p1096
aS'N'
p1097
aS'IN'
p1098
aa(lp1099
S'specified'
p1100
aS'N'
p1101
aS'VBN'
p1102
aa(lp1103
S','
p1104
aS'N'
p1105
aS','
p1106
aa(lp1107
S'all'
p1108
aS'N'
p1109
aS'DT'
p1110
aa(lp1111
S'batteries'
p1112
aS'R'
p1113
aS'NNS'
p1114
aa(lp1115
S'were'
p1116
aS'A'
p1117
aS'VBD'
p1118
aa(lp1119
S'tested'
p1120
aS'A'
p1121
ag1102
aa(lp1122
S'at'
p1123
aS'N'
p1124
aS'IN'
p1125
aa(lp1126
S'the'
p1127
aS'N'
p1128
aS'DT'
p1129
aa(lp1130
S'same'
p1131
aS'N'
p1132
aS'JJ'
p1133
aa(lp1134
S'current'
p1135
aS'P'
p1136
aS'JJ'
p1137
aa(lp1138
S'of'
p1139
aS'P'
p1140
aS'IN'
p1141
aa(lp1142
S'0.5'
p1143
aS'P'
p1144
aS'CD'
p1145
aa(lp1146
S'mA'
p1147
aS'P'
p1148
aS'NN'
p1149
aa(lp1150
S'for'
p1151
aS'N'
p1152
aS'IN'
p1153
aa(lp1154
S'both'
p1155
aS'N'
p1156
ag1110
aa(lp1157
S'charging'
p1158
aS'N'
p1159
aS'VBG'
p1160
aa(lp1161
S'and'
p1162
aS'N'
p1163
aS'CC'
p1164
aa(lp1165
S'discharging'
p1166
aS'N'
p1167
ag1160
aa(lp1168
S'.'
p1169
aS'N'
p1170
aS'.'
p1171
aa(lp1172
g82
ag4
ag4
aa(lp1173
g84
ag4
ag4
aaa(lp1174
(lp1175
g3
ag4
ag4
aa(lp1176
g6
ag4
ag4
aa(lp1177
S'An'
p1178
aS'N'
p1179
aS'DT'
p1180
aa(lp1181
S'average'
p1182
aS'N'
p1183
aS'JJ'
p1184
aa(lp1185
S'current'
p1186
aS'P'
p1187
aS'JJ'
p1188
aa(lp1189
S'density'
p1190
aS'P'
p1191
aS'NN'
p1192
aa(lp1193
S'of'
p1194
aS'P'
p1195
aS'IN'
p1196
aa(lp1197
S'2.5'
p1198
aS'P'
p1199
aS'CD'
p1200
aa(lp1201
S'A/g'
p1202
aS'P'
p1203
aS'NNP'
p1204
aa(lp1205
S'was'
p1206
aS'A'
p1207
aS'VBD'
p1208
aa(lp1209
S'used'
p1210
aS'A'
p1211
aS'VBN'
p1212
aa(lp1213
S'for'
p1214
aS'N'
p1215
aS'IN'
p1216
aa(lp1217
S'all'
p1218
aS'N'
p1219
aS'DT'
p1220
aa(lp1221
S'cells'
p1222
aS'R'
p1223
aS'NNS'
p1224
aa(lp1225
S'.'
p1226
aS'N'
p1227
aS'.'
p1228
aa(lp1229
g82
ag4
ag4
aa(lp1230
g84
ag4
ag4
aaa(lp1231
(lp1232
g3
ag4
ag4
aa(lp1233
g6
ag4
ag4
aa(lp1234
S'The'
p1235
aS'N'
p1236
aS'DT'
p1237
aa(lp1238
S'cutoff'
p1239
aS'PR'
p1240
aS'NN'
p1241
aa(lp1242
S'current'
p1243
aS'PR'
p1244
aS'JJ'
p1245
aa(lp1246
S'for'
p1247
aS'N'
p1248
aS'IN'
p1249
aa(lp1250
S'the'
p1251
aS'N'
p1252
aS'DT'
p1253
aa(lp1254
S'charge'
p1255
aS'E'
p1256
ag1241
aa(lp1257
S'cycle'
p1258
aS'E'
p1259
aS'NN'
p1260
aa(lp1261
S'was'
p1262
aS'A'
p1263
aS'VBD'
p1264
aa(lp1265
S'set'
p1266
aS'A'
p1267
aS'VBN'
p1268
aa(lp1269
S'to'
p1270
aS'N'
p1271
aS'TO'
p1272
aa(lp1273
S'0.05'
p1274
aS'P'
p1275
aS'CD'
p1276
aa(lp1277
S'mA'
p1278
aS'P'
p1279
aS'NNS'
p1280
aa(lp1281
S'.'
p1282
aS'N'
p1283
aS'.'
p1284
aa(lp1285
g82
ag4
ag4
aa(lp1286
g84
ag4
ag4
aaa(lp1287
(lp1288
g3
ag4
ag4
aa(lp1289
g6
ag4
ag4
aa(lp1290
S'The'
p1291
aS'N'
p1292
aS'DT'
p1293
aa(lp1294
S'calculation'
p1295
aS'N'
p1296
aS'NN'
p1297
aa(lp1298
S'of'
p1299
aS'N'
p1300
aS'IN'
p1301
aa(lp1302
S'specific'
p1303
aS'N'
p1304
aS'JJ'
p1305
aa(lp1306
S'discharge'
p1307
aS'N'
p1308
ag1297
aa(lp1309
S'capacities'
p1310
aS'N'
p1311
aS'NNS'
p1312
aa(lp1313
S'is'
p1314
aS'N'
p1315
aS'VBZ'
p1316
aa(lp1317
S'based'
p1318
aS'N'
p1319
aS'VBN'
p1320
aa(lp1321
S'on'
p1322
aS'N'
p1323
aS'IN'
p1324
aa(lp1325
S'the'
p1326
aS'N'
p1327
aS'DT'
p1328
aa(lp1329
S'mass'
p1330
aS'N'
p1331
ag1297
aa(lp1332
S'of'
p1333
aS'N'
p1334
ag1301
aa(lp1335
S'elemental'
p1336
aS'N'
p1337
ag1305
aa(lp1338
S'sulfur'
p1339
aS'N'
p1340
ag1297
aa(lp1341
S'.'
p1342
aS'N'
p1343
aS'.'
p1344
aa(lp1345
g82
ag4
ag4
aa(lp1346
g84
ag4
ag4
aaa.