(lp0
(lp1
(lp2
S'***START***'
p3
aS'None'
p4
ag4
aa(lp5
S'***START2***'
p6
ag4
ag4
aa(lp7
S'Tubular'
p8
aS'I'
p9
aS'JJ'
p10
aa(lp11
S'CSZ'
p12
aS'I'
p13
aS'NNP'
p14
aa(lp15
S'(ZR-11'
p16
aS'N'
p17
aS'NN'
p18
aa(lp19
S','
p20
aS'N'
p21
aS','
p22
aa(lp23
S'Nikkato)'
p24
aS'N'
p25
ag14
aa(lp26
S'was'
p27
aS'A'
p28
aS'VBD'
p29
aa(lp30
S'used'
p31
aS'A'
p32
aS'VBN'
p33
aa(lp34
S'as'
p35
aS'N'
p36
aS'IN'
p37
aa(lp38
S'the'
p39
aS'N'
p40
aS'DT'
p41
aa(lp42
S'electrolyte'
p43
aS'PR'
p44
ag18
aa(lp45
S'.'
p46
aS'N'
p47
aS'.'
p48
aa(lp49
S'***END***'
p50
ag4
ag4
aa(lp51
S'***END2***'
p52
ag4
ag4
aaa(lp53
(lp54
g3
ag4
ag4
aa(lp55
g6
ag4
ag4
aa(lp56
S'Platinum'
p57
aS'I'
p58
aS'NNP'
p59
aa(lp60
S'paste'
p61
aS'I'
p62
aS'NN'
p63
aa(lp64
S'(TR-7902'
p65
aS'N'
p66
ag63
aa(lp67
S','
p68
aS'N'
p69
aS','
p70
aa(lp71
S'Tanaka'
p72
aS'N'
p73
ag59
aa(lp74
S'Kikinzoku)'
p75
aS'N'
p76
ag59
aa(lp77
S'was'
p78
aS'A'
p79
aS'VBD'
p80
aa(lp81
S'painted'
p82
aS'A'
p83
aS'VBN'
p84
aa(lp85
S'on'
p86
aS'N'
p87
aS'IN'
p88
aa(lp89
S'the'
p90
aS'N'
p91
aS'DT'
p92
aa(lp93
S'inside'
p94
aS'P'
p95
ag63
aa(lp96
S'and'
p97
aS'P'
p98
aS'CC'
p99
aa(lp100
S'outside'
p101
aS'P'
p102
aS'IN'
p103
aa(lp104
S'of'
p105
aS'N'
p106
aS'IN'
p107
aa(lp108
S'the'
p109
aS'N'
p110
ag92
aa(lp111
S'CSZ'
p112
aS'R'
p113
ag59
aa(lp114
S'tube'
p115
aS'P'
p116
ag63
aa(lp117
S'as'
p118
aS'N'
p119
ag103
aa(lp120
S'the'
p121
aS'N'
p122
ag92
aa(lp123
S'anode'
p124
aS'N'
p125
ag63
aa(lp126
S'and'
p127
aS'N'
p128
ag99
aa(lp129
S'cathode'
p130
aS'N'
p131
ag63
aa(lp132
S','
p133
aS'N'
p134
ag70
aa(lp135
S'followed'
p136
aS'A'
p137
ag84
aa(lp138
S'by'
p139
aS'N'
p140
aS'IN'
p141
aa(lp142
S'calcination'
p143
aS'P'
p144
ag63
aa(lp145
S'at'
p146
aS'N'
p147
aS'IN'
p148
aa(lp149
S'1273'
p150
aS'P'
p151
aS'CD'
p152
aa(lp153
S'K'
p154
aS'P'
p155
ag59
aa(lp156
S'for'
p157
aS'N'
p158
aS'IN'
p159
aa(lp160
S'30'
p161
aS'P'
p162
aS'CD'
p163
aa(lp164
S'min'
p165
aS'P'
p166
ag63
aa(lp167
S'(electrode'
p168
aS'P'
p169
ag59
aa(lp170
S'surface'
p171
aS'P'
p172
ag63
aa(lp173
S'area:'
p174
aS'P'
p175
ag80
aa(lp176
S'13'
p177
aS'P'
p178
aS'CD'
p179
aa(lp180
S'cm2)'
p181
aS'P'
p182
ag63
aa(lp183
S'.'
p184
aS'N'
p185
aS'.'
p186
aa(lp187
g50
ag4
ag4
aa(lp188
g52
ag4
ag4
aaa(lp189
(lp190
g3
ag4
ag4
aa(lp191
g6
ag4
ag4
aa(lp192
S'Lithium'
p193
aS'I'
p194
aS'NNP'
p195
aa(lp196
S'foil'
p197
aS'I'
p198
aS'NN'
p199
aa(lp200
S'(20'
p201
aS'P'
p202
ag195
aa(lp203
S'mg)'
p204
aS'P'
p205
ag199
aa(lp206
S'was'
p207
aS'A'
p208
aS'VBD'
p209
aa(lp210
S'inserted'
p211
aS'A'
p212
aS'VBN'
p213
aa(lp214
S'in'
p215
aS'N'
p216
aS'IN'
p217
aa(lp218
S'a'
p219
aS'N'
p220
aS'DT'
p221
aa(lp222
S'small'
p223
aS'N'
p224
aS'JJ'
p225
aa(lp226
S'MgO'
p227
aS'E'
p228
ag195
aa(lp229
S'tube'
p230
aS'E'
p231
ag199
aa(lp232
S'(MG-12G'
p233
aS'N'
p234
ag199
aa(lp235
S','
p236
aS'N'
p237
aS','
p238
aa(lp239
S'Nikkato)'
p240
aS'N'
p241
ag195
aa(lp242
S','
p243
aS'N'
p244
ag238
aa(lp245
S'which'
p246
aS'N'
p247
aS'WDT'
p248
aa(lp249
S'was'
p250
aS'A'
p251
ag209
aa(lp252
S'placed'
p253
aS'A'
p254
ag213
aa(lp255
S'and'
p256
aS'A'
p257
aS'CC'
p258
aa(lp259
S'fixed'
p260
aS'A'
p261
ag213
aa(lp262
S'in'
p263
aS'N'
p264
ag217
aa(lp265
S'the'
p266
aS'N'
p267
aS'DT'
p268
aa(lp269
S'CSZ'
p270
aS'R'
p271
ag195
aa(lp272
S'electrolyte'
p273
aS'R'
p274
ag199
aa(lp275
S'tube'
p276
aS'R'
p277
ag199
aa(lp278
S'.'
p279
aS'N'
p280
aS'.'
p281
aa(lp282
g50
ag4
ag4
aa(lp283
g52
ag4
ag4
aaa(lp284
(lp285
g3
ag4
ag4
aa(lp286
g6
ag4
ag4
aa(lp287
S'The'
p288
aS'N'
p289
aS'DT'
p290
aa(lp291
S'CSZ'
p292
aS'R'
p293
aS'NNP'
p294
aa(lp295
S'tube'
p296
aS'R'
p297
aS'NN'
p298
aa(lp299
S'was'
p300
aS'A'
p301
aS'VBD'
p302
aa(lp303
S'sealed'
p304
aS'A'
p305
aS'VBN'
p306
aa(lp307
S'by'
p308
aS'N'
p309
aS'IN'
p310
aa(lp311
S'epoxy'
p312
aS'I'
p313
aS'JJ'
p314
aa(lp315
S'resin'
p316
aS'I'
p317
ag298
aa(lp318
S'in'
p319
aS'N'
p320
aS'IN'
p321
aa(lp322
S'an'
p323
aS'N'
p324
aS'DT'
p325
aa(lp326
S'argon-filled'
p327
aS'E'
p328
ag314
aa(lp329
S'glove'
p330
aS'E'
p331
ag298
aa(lp332
S'box'
p333
aS'E'
p334
ag298
aa(lp335
S'.'
p336
aS'N'
p337
aS'.'
p338
aa(lp339
g50
ag4
ag4
aa(lp340
g52
ag4
ag4
aaa(lp341
(lp342
g3
ag4
ag4
aa(lp343
g6
ag4
ag4
aa(lp344
S'After'
p345
aS'N'
p346
aS'IN'
p347
aa(lp348
S'the'
p349
aS'N'
p350
aS'DT'
p351
aa(lp352
S'anodic'
p353
aS'E'
p354
aS'JJ'
p355
aa(lp356
S'chamber'
p357
aS'E'
p358
aS'NN'
p359
aa(lp360
S'was'
p361
aS'A'
p362
aS'VBD'
p363
aa(lp364
S'filled'
p365
aS'A'
p366
aS'VBN'
p367
aa(lp368
S'with'
p369
aS'N'
p370
aS'IN'
p371
aa(lp372
S'Ar'
p373
aS'I'
p374
aS'NNP'
p375
aa(lp376
S'and'
p377
aS'N'
p378
aS'CC'
p379
aa(lp380
S'Li'
p381
aS'I'
p382
ag375
aa(lp383
S','
p384
aS'N'
p385
aS','
p386
aa(lp387
S'the'
p388
aS'N'
p389
ag351
aa(lp390
S'entire'
p391
aS'R'
p392
aS'JJ'
p393
aa(lp394
S'cell'
p395
aS'R'
p396
ag359
aa(lp397
S'was'
p398
aS'A'
p399
ag363
aa(lp400
S'heated'
p401
aS'A'
p402
ag367
aa(lp403
S'to'
p404
aS'N'
p405
aS'TO'
p406
aa(lp407
S'1073'
p408
aS'P'
p409
aS'CD'
p410
aa(lp411
S'K'
p412
aS'P'
p413
ag375
aa(lp414
S'.'
p415
aS'N'
p416
aS'.'
p417
aa(lp418
g50
ag4
ag4
aa(lp419
g52
ag4
ag4
aaa(lp420
(lp421
g3
ag4
ag4
aa(lp422
g6
ag4
ag4
aa(lp423
S'Discharge'
p424
aS'E'
p425
aS'NN'
p426
aa(lp427
S'measurements'
p428
aS'E'
p429
aS'NNS'
p430
aa(lp431
S'were'
p432
aS'A'
p433
aS'VBD'
p434
aa(lp435
S'performed'
p436
aS'A'
p437
aS'VBN'
p438
aa(lp439
S'at'
p440
aS'N'
p441
aS'IN'
p442
aa(lp443
S'0.077'
p444
aS'P'
p445
aS'CD'
p446
aa(lp447
S'mA'
p448
aS'P'
p449
ag426
aa(lp450
S'cm2'
p451
aS'P'
p452
ag426
aa(lp453
S'in'
p454
aS'N'
p455
aS'IN'
p456
aa(lp457
S'constant-current'
p458
aS'P'
p459
aS'JJ'
p460
aa(lp461
S'mode'
p462
aS'N'
p463
ag426
aa(lp464
S','
p465
aS'N'
p466
aS','
p467
aa(lp468
S'with'
p469
aS'N'
p470
aS'IN'
p471
aa(lp472
S'the'
p473
aS'N'
p474
aS'DT'
p475
aa(lp476
S'two'
p477
aS'E'
p478
aS'CD'
p479
aa(lp480
S'probes'
p481
aS'E'
p482
ag430
aa(lp483
S'method'
p484
aS'E'
p485
ag426
aa(lp486
S'.'
p487
aS'N'
p488
aS'.'
p489
aa(lp490
g50
ag4
ag4
aa(lp491
g52
ag4
ag4
aaa(lp492
(lp493
g3
ag4
ag4
aa(lp494
g6
ag4
ag4
aa(lp495
S'Air'
p496
aS'I'
p497
aS'NNP'
p498
aa(lp499
S'was'
p500
aS'A'
p501
aS'VBD'
p502
aa(lp503
S'fed'
p504
aS'A'
p505
aS'VBN'
p506
aa(lp507
S'into'
p508
aS'N'
p509
aS'IN'
p510
aa(lp511
S'the'
p512
aS'N'
p513
aS'DT'
p514
aa(lp515
S'cathode'
p516
aS'P'
p517
aS'JJ'
p518
aa(lp519
S'side'
p520
aS'P'
p521
aS'NN'
p522
aa(lp523
S'at'
p524
aS'N'
p525
aS'IN'
p526
aa(lp527
S'a'
p528
aS'N'
p529
aS'DT'
p530
aa(lp531
S'flow'
p532
aS'P'
p533
ag518
aa(lp534
S'rate'
p535
aS'P'
p536
aS'NN'
p537
aa(lp538
S'of'
p539
aS'P'
p540
aS'IN'
p541
aa(lp542
S'100'
p543
aS'P'
p544
aS'CD'
p545
aa(lp546
S'mLmin1'
p547
aS'P'
p548
ag522
aa(lp549
S'.'
p550
aS'N'
p551
aS'.'
p552
aa(lp553
g50
ag4
ag4
aa(lp554
g52
ag4
ag4
aaa(lp555
(lp556
g3
ag4
ag4
aa(lp557
g6
ag4
ag4
aa(lp558
S'Impedance'
p559
aS'E'
p560
aS'NN'
p561
aa(lp562
S'analysis'
p563
aS'E'
p564
ag561
aa(lp565
S'was'
p566
aS'A'
p567
aS'VBD'
p568
aa(lp569
S'undertaken'
p570
aS'A'
p571
aS'VBN'
p572
aa(lp573
S'under'
p574
aS'N'
p575
aS'IN'
p576
aa(lp577
S'open-circuit'
p578
aS'P'
p579
aS'JJ'
p580
aa(lp581
S'conditions'
p582
aS'P'
p583
aS'NNS'
p584
aa(lp585
S'with'
p586
aS'N'
p587
aS'IN'
p588
aa(lp589
S'a'
p590
aS'N'
p591
aS'DT'
p592
aa(lp593
S'frequency'
p594
aS'P'
p595
ag561
aa(lp596
S'range'
p597
aS'P'
p598
ag561
aa(lp599
S'of'
p600
aS'P'
p601
aS'IN'
p602
aa(lp603
S'0.1100'
p604
aS'P'
p605
aS'CD'
p606
aa(lp607
S'000'
p608
aS'P'
p609
ag606
aa(lp610
S'Hz'
p611
aS'P'
p612
aS'NNP'
p613
aa(lp614
S'and'
p615
aS'N'
p616
aS'CC'
p617
aa(lp618
S'10'
p619
aS'P'
p620
aS'CD'
p621
aa(lp622
S'mV'
p623
aS'P'
p624
aS'NNS'
p625
aa(lp626
S'alternating'
p627
aS'P'
p628
aS'VBG'
p629
aa(lp630
S'current'
p631
aS'P'
p632
aS'JJ'
p633
aa(lp634
S'(ac)'
p635
aS'P'
p636
ag580
aa(lp637
S'amplitude'
p638
aS'P'
p639
ag561
aa(lp640
S'with'
p641
aS'N'
p642
ag588
aa(lp643
S'a'
p644
aS'N'
p645
ag592
aa(lp646
S'Sorlartron'
p647
aS'E'
p648
ag613
aa(lp649
S'1260/'
p650
aS'E'
p651
ag606
aa(lp652
S'1287'
p653
aS'E'
p654
ag606
aa(lp655
S'impedance'
p656
aS'E'
p657
ag561
aa(lp658
S'analyzer'
p659
aS'E'
p660
ag561
aa(lp661
S'.'
p662
aS'N'
p663
aS'.'
p664
aa(lp665
g50
ag4
ag4
aa(lp666
g52
ag4
ag4
aaa(lp667
(lp668
g3
ag4
ag4
aa(lp669
g6
ag4
ag4
aa(lp670
S'Morphology'
p671
aS'E'
p672
aS'NNP'
p673
aa(lp674
S'and'
p675
aS'E'
p676
aS'CC'
p677
aa(lp678
S'elementary'
p679
aS'E'
p680
aS'JJ'
p681
aa(lp682
S'analysis'
p683
aS'E'
p684
aS'NN'
p685
aa(lp686
S'studies'
p687
aS'E'
p688
aS'NNS'
p689
aa(lp690
S'of'
p691
aS'N'
p692
aS'IN'
p693
aa(lp694
S'Li'
p695
aS'I'
p696
ag673
aa(lp697
S'powder'
p698
aS'I'
p699
ag685
aa(lp700
S'were'
p701
aS'A'
p702
aS'VBD'
p703
aa(lp704
S'performed'
p705
aS'A'
p706
aS'VBN'
p707
aa(lp708
S'by'
p709
aS'N'
p710
aS'IN'
p711
aa(lp712
S'using'
p713
aS'N'
p714
aS'VBG'
p715
aa(lp716
S'a'
p717
aS'N'
p718
aS'DT'
p719
aa(lp720
S'SEM-EDX'
p721
aS'E'
p722
ag681
aa(lp723
S'instrument'
p724
aS'E'
p725
ag685
aa(lp726
S'(VE-7800'
p727
aS'N'
p728
ag685
aa(lp729
S','
p730
aS'N'
p731
aS','
p732
aa(lp733
S'KEYENCE,'
p734
aS'N'
p735
ag673
aa(lp736
S'EDAX'
p737
aS'N'
p738
ag673
aa(lp739
S'type'
p740
aS'N'
p741
aS'VBD'
p742
aa(lp743
S'7980)'
p744
aS'E'
p745
aS'CD'
p746
aa(lp747
S'.'
p748
aS'N'
p749
aS'.'
p750
aa(lp751
g50
ag4
ag4
aa(lp752
g52
ag4
ag4
aaa.