(lp0
(lp1
(lp2
S'***START***'
p3
aS'None'
p4
ag4
aa(lp5
S'***START2***'
p6
ag4
ag4
aa(lp7
S'Titanate'
p8
aS'PR'
p9
aS'NN'
p10
aa(lp11
S'nanowires'
p12
aS'PR'
p13
aS'NNS'
p14
aa(lp15
S'were'
p16
aS'A'
p17
aS'VBD'
p18
aa(lp19
S'synthesized'
p20
aS'A'
p21
aS'VBN'
p22
aa(lp23
S'by'
p24
aS'N'
p25
aS'IN'
p26
aa(lp27
S'adding'
p28
aS'P'
p29
aS'VBG'
p30
aa(lp31
S'anatase'
p32
aS'I'
p33
ag10
aa(lp34
S'TiO2'
p35
aS'I'
p36
aS'NNP'
p37
aa(lp38
S'to'
p39
aS'N'
p40
aS'TO'
p41
aa(lp42
S'a'
p43
aS'N'
p44
aS'DT'
p45
aa(lp46
S'15'
p47
aS'P'
p48
aS'CD'
p49
aa(lp50
S'M'
p51
aS'P'
p52
ag37
aa(lp53
S'aqueous'
p54
aS'I'
p55
aS'JJ'
p56
aa(lp57
S'solution'
p58
aS'I'
p59
ag10
aa(lp60
S'of'
p61
aS'I'
p62
aS'IN'
p63
aa(lp64
S'NaOH'
p65
aS'I'
p66
ag37
aa(lp67
S'.'
p68
aS'N'
p69
aS'.'
p70
aa(lp71
S'***END***'
p72
ag4
ag4
aa(lp73
S'***END2***'
p74
ag4
ag4
aaa(lp75
(lp76
g3
ag4
ag4
aa(lp77
g6
ag4
ag4
aa(lp78
S'After'
p79
aS'N'
p80
aS'IN'
p81
aa(lp82
S'stirring'
p83
aS'A'
p84
aS'VBG'
p85
aa(lp86
S'for'
p87
aS'N'
p88
aS'IN'
p89
aa(lp90
S'1'
p91
aS'P'
p92
aS'CD'
p93
aa(lp94
S'h'
p95
aS'P'
p96
aS'PDT'
p97
aa(lp98
S'the'
p99
aS'N'
p100
aS'DT'
p101
aa(lp102
S'resulting'
p103
aS'R'
p104
ag85
aa(lp105
S'suspension'
p106
aS'R'
p107
aS'NN'
p108
aa(lp109
S'was'
p110
aS'A'
p111
aS'VBD'
p112
aa(lp113
S'transferred'
p114
aS'A'
p115
aS'VBN'
p116
aa(lp117
S'to'
p118
aS'N'
p119
aS'TO'
p120
aa(lp121
S'a'
p122
aS'N'
p123
aS'DT'
p124
aa(lp125
S'Teflon-lined'
p126
aS'E'
p127
aS'JJ'
p128
aa(lp129
S'autoclave'
p130
aS'E'
p131
ag108
aa(lp132
S'and'
p133
aS'N'
p134
aS'CC'
p135
aa(lp136
S'heated'
p137
aS'A'
p138
ag112
aa(lp139
S'to'
p140
aS'N'
p141
ag120
aa(lp142
S'170'
p143
aS'P'
p144
aS'CD'
p145
aa(lp146
S'C'
p147
aS'P'
p148
aS'NNP'
p149
aa(lp150
S'for'
p151
aS'N'
p152
ag89
aa(lp153
S'72'
p154
aS'P'
p155
ag145
aa(lp156
S'h'
p157
aS'P'
p158
ag97
aa(lp159
S'.'
p160
aS'N'
p161
aS'.'
p162
aa(lp163
g72
ag4
ag4
aa(lp164
g74
ag4
ag4
aaa(lp165
(lp166
g3
ag4
ag4
aa(lp167
g6
ag4
ag4
aa(lp168
S'The'
p169
aS'N'
p170
aS'DT'
p171
aa(lp172
S'product'
p173
aS'R'
p174
aS'NN'
p175
aa(lp176
S'was'
p177
aS'A'
p178
aS'VBD'
p179
aa(lp180
S'acid-washed'
p181
aS'A'
p182
aS'JJ'
p183
aa(lp184
S','
p185
aS'N'
p186
aS','
p187
aa(lp188
S'which'
p189
aS'N'
p190
aS'WDT'
p191
aa(lp192
S'involved'
p193
aS'N'
p194
ag179
aa(lp195
S'stirring'
p196
aS'P'
p197
aS'VBG'
p198
aa(lp199
S'the'
p200
aS'N'
p201
aS'DT'
p202
aa(lp203
S'sample'
p204
aS'N'
p205
aS'NN'
p206
aa(lp207
S'in'
p208
aS'N'
p209
aS'IN'
p210
aa(lp211
S'0.05'
p212
aS'P'
p213
aS'CD'
p214
aa(lp215
S'M'
p216
aS'P'
p217
aS'NNP'
p218
aa(lp219
S'HCl'
p220
aS'I'
p221
ag218
aa(lp222
S'solution'
p223
aS'I'
p224
ag206
aa(lp225
S'for'
p226
aS'N'
p227
aS'IN'
p228
aa(lp229
S'2'
p230
aS'P'
p231
aS'CD'
p232
aa(lp233
S'h'
p234
aS'P'
p235
ag206
aa(lp236
S'.'
p237
aS'N'
p238
aS'.'
p239
aa(lp240
g72
ag4
ag4
aa(lp241
g74
ag4
ag4
aaa(lp242
(lp243
g3
ag4
ag4
aa(lp244
g6
ag4
ag4
aa(lp245
S'The'
p246
aS'N'
p247
aS'DT'
p248
aa(lp249
S'material'
p250
aS'R'
p251
aS'NN'
p252
aa(lp253
S'was'
p254
aS'A'
p255
aS'VBD'
p256
aa(lp257
S'then'
p258
aS'N'
p259
aS'RB'
p260
aa(lp261
S'filtered'
p262
aS'A'
p263
aS'VBN'
p264
aa(lp265
S','
p266
aS'N'
p267
aS','
p268
aa(lp269
S'washed'
p270
aS'A'
p271
ag264
aa(lp272
S'with'
p273
aS'N'
p274
aS'IN'
p275
aa(lp276
S'distilled'
p277
aS'I'
p278
aS'JJ'
p279
aa(lp280
S'water'
p281
aS'I'
p282
aS'NN'
p283
aa(lp284
S','
p285
aS'N'
p286
ag268
aa(lp287
S'and'
p288
aS'N'
p289
aS'CC'
p290
aa(lp291
S'dried'
p292
aS'A'
p293
ag256
aa(lp294
S'at'
p295
aS'N'
p296
aS'IN'
p297
aa(lp298
S'80'
p299
aS'P'
p300
aS'CD'
p301
aa(lp302
S'C'
p303
aS'P'
p304
aS'NNP'
p305
aa(lp306
S'for'
p307
aS'N'
p308
aS'IN'
p309
aa(lp310
S'15'
p311
aS'P'
p312
aS'CD'
p313
aa(lp314
S'h'
p315
aS'P'
p316
ag252
aa(lp317
S'.'
p318
aS'N'
p319
aS'.'
p320
aa(lp321
g72
ag4
ag4
aa(lp322
g74
ag4
ag4
aaa(lp323
(lp324
g3
ag4
ag4
aa(lp325
g6
ag4
ag4
aa(lp326
S'TiO2(B)'
p327
aS'PR'
p328
aS'NNP'
p329
aa(lp330
S'nanowires'
p331
aS'PR'
p332
aS'NNS'
p333
aa(lp334
S'were'
p335
aS'A'
p336
aS'VBD'
p337
aa(lp338
S'prepared'
p339
aS'A'
p340
aS'VBN'
p341
aa(lp342
S'by'
p343
aS'N'
p344
aS'IN'
p345
aa(lp346
S'heating'
p347
aS'P'
p348
aS'VBG'
p349
aa(lp350
S'the'
p351
aS'N'
p352
aS'DT'
p353
aa(lp354
S'acid-washed'
p355
aS'P'
p356
aS'JJ'
p357
aa(lp358
S'titanate'
p359
aS'R'
p360
aS'NN'
p361
aa(lp362
S'nanowires'
p363
aS'R'
p364
ag333
aa(lp365
S'at'
p366
aS'N'
p367
aS'IN'
p368
aa(lp369
S'400'
p370
aS'P'
p371
aS'CD'
p372
aa(lp373
S'C'
p374
aS'P'
p375
ag329
aa(lp376
S'for'
p377
aS'N'
p378
aS'IN'
p379
aa(lp380
S'4'
p381
aS'P'
p382
aS'CD'
p383
aa(lp384
S'h'
p385
aS'P'
p386
ag361
aa(lp387
S'in'
p388
aS'N'
p389
aS'IN'
p390
aa(lp391
S'air'
p392
aS'P'
p393
ag361
aa(lp394
S'.'
p395
aS'N'
p396
aS'.'
p397
aa(lp398
g72
ag4
ag4
aa(lp399
g74
ag4
ag4
aaa(lp400
(lp401
g3
ag4
ag4
aa(lp402
g6
ag4
ag4
aa(lp403
S'The'
p404
aS'N'
p405
aS'DT'
p406
aa(lp407
S'GPE'
p408
aS'PR'
p409
aS'NNP'
p410
aa(lp411
S'was'
p412
aS'A'
p413
aS'VBD'
p414
aa(lp415
S'formed'
p416
aS'A'
p417
aS'VBN'
p418
aa(lp419
S'by'
p420
aS'N'
p421
aS'IN'
p422
aa(lp423
S'trapping'
p424
aS'P'
p425
aS'VBG'
p426
aa(lp427
S'LiPF6'
p428
aS'I'
p429
ag410
aa(lp430
S'dissolved'
p431
aS'N'
p432
ag414
aa(lp433
S'in'
p434
aS'N'
p435
aS'IN'
p436
aa(lp437
S'a'
p438
aS'N'
p439
aS'DT'
p440
aa(lp441
S'mixture'
p442
aS'N'
p443
aS'NN'
p444
aa(lp445
S'of'
p446
aS'N'
p447
aS'IN'
p448
aa(lp449
S'EC'
p450
aS'I'
p451
aS'NNP'
p452
aa(lp453
S'and'
p454
aS'N'
p455
aS'CC'
p456
aa(lp457
S'PC'
p458
aS'I'
p459
ag410
aa(lp460
S'(20:40:40'
p461
aS'P'
p462
ag410
aa(lp463
S'by'
p464
aS'P'
p465
ag422
aa(lp466
S'weight)'
p467
aS'P'
p468
ag444
aa(lp469
S'in'
p470
aS'N'
p471
ag436
aa(lp472
S'a'
p473
aS'N'
p474
ag440
aa(lp475
S'PVdF'
p476
aS'I'
p477
ag410
aa(lp478
S'matrix'
p479
aS'I'
p480
ag444
aa(lp481
S','
p482
aS'N'
p483
aS','
p484
aa(lp485
S'following'
p486
aS'N'
p487
ag426
aa(lp488
S'a'
p489
aS'N'
p490
ag440
aa(lp491
S'procedure'
p492
aS'N'
p493
ag444
aa(lp494
S'described'
p495
aS'N'
p496
ag418
aa(lp497
S'in'
p498
aS'N'
p499
ag436
aa(lp500
S'detail'
p501
aS'N'
p502
ag444
aa(lp503
S'elsewhere'
p504
aS'N'
p505
aS'RB'
p506
aa(lp507
S'.'
p508
aS'N'
p509
aS'.'
p510
aa(lp511
g72
ag4
ag4
aa(lp512
g74
ag4
ag4
aaa(lp513
(lp514
g3
ag4
ag4
aa(lp515
g6
ag4
ag4
aa(lp516
S'LiFePO4'
p517
aS'PR'
p518
aS'NNP'
p519
aa(lp520
S'was'
p521
aS'A'
p522
aS'VBD'
p523
aa(lp524
S'generously'
p525
aS'N'
p526
aS'RB'
p527
aa(lp528
S'provided'
p529
aS'A'
p530
aS'VBN'
p531
aa(lp532
S'by'
p533
aS'N'
p534
aS'IN'
p535
aa(lp536
S'Dr.'
p537
aS'N'
p538
aS'NNP'
p539
aa(lp540
S'Margret'
p541
aS'N'
p542
ag519
aa(lp543
S'WohlfahrtMehrens'
p544
aS'N'
p545
ag519
aa(lp546
S'of'
p547
aS'N'
p548
aS'IN'
p549
aa(lp550
S'ZSW'
p551
aS'N'
p552
ag519
aa(lp553
S'in'
p554
aS'N'
p555
aS'IN'
p556
aa(lp557
S'Ulm'
p558
aS'N'
p559
ag519
aa(lp560
S','
p561
aS'N'
p562
aS','
p563
aa(lp564
S'Germany'
p565
aS'N'
p566
aS'NNP'
p567
aa(lp568
S'.'
p569
aS'N'
p570
aS'.'
p571
aa(lp572
g72
ag4
ag4
aa(lp573
g74
ag4
ag4
aaa(lp574
(lp575
g3
ag4
ag4
aa(lp576
g6
ag4
ag4
aa(lp577
S'The'
p578
aS'N'
p579
aS'DT'
p580
aa(lp581
S'nickel'
p582
aS'PR'
p583
aS'JJ'
p584
aa(lp585
S'manganese'
p586
aS'PR'
p587
ag584
aa(lp588
S'spinel'
p589
aS'PR'
p590
aS'NNS'
p591
aa(lp592
S','
p593
aS'N'
p594
aS','
p595
aa(lp596
S'LiNi0.5Mn1.5O4'
p597
aS'PR'
p598
aS'NNP'
p599
aa(lp600
S','
p601
aS'N'
p602
ag595
aa(lp603
S'was'
p604
aS'A'
p605
aS'VBD'
p606
aa(lp607
S'obtained'
p608
aS'A'
p609
aS'VBN'
p610
aa(lp611
S'by'
p612
aS'N'
p613
aS'IN'
p614
aa(lp615
S'a'
p616
aS'E'
p617
aS'DT'
p618
aa(lp619
S'wet-chemistry'
p620
aS'E'
p621
ag584
aa(lp622
S'route'
p623
aS'E'
p624
aS'NN'
p625
aa(lp626
S'starting'
p627
aS'N'
p628
aS'VBG'
p629
aa(lp630
S'from'
p631
aS'N'
p632
aS'IN'
p633
aa(lp634
S'LiNO3'
p635
aS'I'
p636
ag599
aa(lp637
S','
p638
aS'N'
p639
ag595
aa(lp640
S'Ni(NO3)2H2O'
p641
aS'I'
p642
ag599
aa(lp643
S'and'
p644
aS'I'
p645
aS'CC'
p646
aa(lp647
S'Mn(NO3)2H2O'
p648
aS'I'
p649
ag599
aa(lp650
S'.'
p651
aS'N'
p652
aS'.'
p653
aa(lp654
g72
ag4
ag4
aa(lp655
g74
ag4
ag4
aaa(lp656
(lp657
g3
ag4
ag4
aa(lp658
g6
ag4
ag4
aa(lp659
S'The'
p660
aS'N'
p661
aS'DT'
p662
aa(lp663
S'synthesis'
p664
aS'N'
p665
aS'NN'
p666
aa(lp667
S'procedures'
p668
aS'N'
p669
aS'NNS'
p670
aa(lp671
S'and'
p672
aS'N'
p673
aS'CC'
p674
aa(lp675
S'characterization'
p676
aS'N'
p677
ag666
aa(lp678
S'of'
p679
aS'N'
p680
aS'IN'
p681
aa(lp682
S'both'
p683
aS'N'
p684
aS'DT'
p685
aa(lp686
S'cathode'
p687
aS'N'
p688
ag666
aa(lp689
S'materials'
p690
aS'N'
p691
aS'NNS'
p692
aa(lp693
S'have'
p694
aS'N'
p695
aS'VBP'
p696
aa(lp697
S'been'
p698
aS'N'
p699
aS'VBN'
p700
aa(lp701
S'described'
p702
aS'N'
p703
aS'VBN'
p704
aa(lp705
S'previously'
p706
aS'N'
p707
aS'RB'
p708
aa(lp709
S'.'
p710
aS'N'
p711
aS'.'
p712
aa(lp713
g72
ag4
ag4
aa(lp714
g74
ag4
ag4
aaa(lp715
(lp716
g3
ag4
ag4
aa(lp717
g6
ag4
ag4
aa(lp718
S'Composite'
p719
aS'PR'
p720
aS'NNP'
p721
aa(lp722
S'electrodes'
p723
aS'PR'
p724
aS'NNS'
p725
aa(lp726
S'were'
p727
aS'A'
p728
aS'VBD'
p729
aa(lp730
S'fabricated'
p731
aS'A'
p732
aS'VBN'
p733
aa(lp734
S'in'
p735
aS'N'
p736
aS'IN'
p737
aa(lp738
S'the'
p739
aS'N'
p740
aS'DT'
p741
aa(lp742
S'form'
p743
aS'P'
p744
aS'NN'
p745
aa(lp746
S'of'
p747
aS'P'
p748
aS'IN'
p749
aa(lp750
S'films'
p751
aS'P'
p752
ag725
aa(lp753
S'by'
p754
aS'N'
p755
aS'IN'
p756
aa(lp757
S'dispersing'
p758
aS'P'
p759
aS'VBG'
p760
aa(lp761
S'the'
p762
aS'N'
p763
ag741
aa(lp764
S'active'
p765
aS'R'
p766
aS'JJ'
p767
aa(lp768
S'materials'
p769
aS'R'
p770
aS'NNS'
p771
aa(lp772
S'(i.e.'
p773
aS'N'
p774
aS'VBP'
p775
aa(lp776
S','
p777
aS'N'
p778
aS','
p779
aa(lp780
S'TiO2(B)'
p781
aS'I'
p782
ag721
aa(lp783
S','
p784
aS'N'
p785
ag779
aa(lp786
S'LiFePO4'
p787
aS'I'
p788
ag721
aa(lp789
S','
p790
aS'N'
p791
ag779
aa(lp792
S'or'
p793
aS'N'
p794
aS'CC'
p795
aa(lp796
S'LiNi0.5-'
p797
aS'I'
p798
aS'JJ'
p799
aa(lp800
S'Mn1.5O4)'
p801
aS'I'
p802
ag721
aa(lp803
S'in'
p804
aS'N'
p805
ag737
aa(lp806
S'N-methylpyrrolidinone'
p807
aS'I'
p808
ag721
aa(lp809
S'(NMP)'
p810
aS'I'
p811
ag721
aa(lp812
S'with'
p813
aS'N'
p814
aS'IN'
p815
aa(lp816
S'8'
p817
aS'P'
p818
aS'CD'
p819
aa(lp820
S'or'
p821
aS'P'
p822
ag795
aa(lp823
S'10'
p824
aS'P'
p825
aS'CD'
p826
aa(lp827
S'wt%'
p828
aS'P'
p829
ag745
aa(lp830
S'of'
p831
aS'N'
p832
ag749
aa(lp833
g72
ag4
ag4
aa(lp834
g74
ag4
ag4
aaa(lp835
(lp836
g3
ag4
ag4
aa(lp837
g6
ag4
ag4
aa(lp838
S'Super'
p839
aS'I'
p840
aS'NNP'
p841
aa(lp842
S'P'
p843
aS'I'
p844
ag841
aa(lp845
S'(M.M.M.'
p846
aS'N'
p847
ag841
aa(lp848
S'Carbon'
p849
aS'N'
p850
ag841
aa(lp851
S'Belgium)'
p852
aS'N'
p853
ag841
aa(lp854
S'and'
p855
aS'N'
p856
aS'CC'
p857
aa(lp858
S'10'
p859
aS'P'
p860
aS'CD'
p861
aa(lp862
S'wt%'
p863
aS'P'
p864
aS'NN'
p865
aa(lp866
S'PVdF'
p867
aS'I'
p868
ag841
aa(lp869
S'(Solvay'
p870
aS'N'
p871
ag841
aa(lp872
S'Solef'
p873
aS'N'
p874
ag841
aa(lp875
S'UHMW'
p876
aS'N'
p877
ag841
aa(lp878
S'6020)'
p879
aS'N'
p880
aS'CD'
p881
aa(lp882
S'.'
p883
aS'N'
p884
aS'.'
p885
aa(lp886
g72
ag4
ag4
aa(lp887
g74
ag4
ag4
aaa(lp888
(lp889
g3
ag4
ag4
aa(lp890
g6
ag4
ag4
aa(lp891
S'This'
p892
aS'N'
p893
aS'DT'
p894
aa(lp895
S'slurry'
p896
aS'R'
p897
aS'NN'
p898
aa(lp899
S'was'
p900
aS'A'
p901
aS'VBD'
p902
aa(lp903
S'then'
p904
aS'N'
p905
aS'RB'
p906
aa(lp907
S'cast'
p908
aS'A'
p909
aS'VBN'
p910
aa(lp911
S'onto'
p912
aS'N'
p913
aS'IN'
p914
aa(lp915
S'aluminum'
p916
aS'I'
p917
ag898
aa(lp918
S'(LiFePO4'
p919
aS'R'
p920
ag898
aa(lp921
S'or'
p922
aS'N'
p923
aS'CC'
p924
aa(lp925
S'LiNi0.5Mn1.5O4)'
p926
aS'R'
p927
aS'NNP'
p928
aa(lp929
S'or'
p930
aS'N'
p931
ag924
aa(lp932
S'copper'
p933
aS'I'
p934
ag898
aa(lp935
S'(TiO2(B))'
p936
aS'R'
p937
ag898
aa(lp938
S'foils'
p939
aS'N'
p940
aS'NNS'
p941
aa(lp942
S'.'
p943
aS'N'
p944
aS'.'
p945
aa(lp946
g72
ag4
ag4
aa(lp947
g74
ag4
ag4
aaa(lp948
(lp949
g3
ag4
ag4
aa(lp950
g6
ag4
ag4
aa(lp951
S'Disks'
p952
aS'PR'
p953
aS'NNS'
p954
aa(lp955
S'of'
p956
aS'N'
p957
aS'IN'
p958
aa(lp959
S'10'
p960
aS'P'
p961
aS'CD'
p962
aa(lp963
S'mm'
p964
aS'P'
p965
ag954
aa(lp966
S'diameter'
p967
aS'P'
p968
aS'RBR'
p969
aa(lp970
S'were'
p971
aS'A'
p972
aS'VBD'
p973
aa(lp974
S'cut'
p975
aS'A'
p976
aS'VBN'
p977
aa(lp978
S'and'
p979
aS'N'
p980
aS'CC'
p981
aa(lp982
S'vacuum-dried'
p983
aS'A'
p984
aS'JJ'
p985
aa(lp986
S'for'
p987
aS'N'
p988
aS'IN'
p989
aa(lp990
S'5'
p991
aS'P'
p992
aS'CD'
p993
aa(lp994
S'h'
p995
aS'P'
p996
aS'NN'
p997
aa(lp998
S'at'
p999
aS'N'
p1000
aS'IN'
p1001
aa(lp1002
S'110'
p1003
aS'P'
p1004
aS'CD'
p1005
aa(lp1006
S'C'
p1007
aS'P'
p1008
aS'NNP'
p1009
aa(lp1010
S'to'
p1011
aS'N'
p1012
aS'TO'
p1013
aa(lp1014
S'completely'
p1015
aS'N'
p1016
aS'RB'
p1017
aa(lp1018
S'eliminate'
p1019
aS'N'
p1020
aS'VB'
p1021
aa(lp1022
S'traces'
p1023
aS'N'
p1024
ag954
aa(lp1025
S'of'
p1026
aS'N'
p1027
ag958
aa(lp1028
S'moisture'
p1029
aS'N'
p1030
ag997
aa(lp1031
S'and'
p1032
aS'N'
p1033
ag981
aa(lp1034
S'NMP'
p1035
aS'N'
p1036
ag1009
aa(lp1037
S'.'
p1038
aS'N'
p1039
aS'.'
p1040
aa(lp1041
g72
ag4
ag4
aa(lp1042
g74
ag4
ag4
aaa(lp1043
(lp1044
g3
ag4
ag4
aa(lp1045
g6
ag4
ag4
aa(lp1046
S'The'
p1047
aS'N'
p1048
aS'DT'
p1049
aa(lp1050
S'complete'
p1051
aS'N'
p1052
aS'JJ'
p1053
aa(lp1054
S'lithium-ion'
p1055
aS'PR'
p1056
aS'NN'
p1057
aa(lp1058
S'cell'
p1059
aS'PR'
p1060
ag1057
aa(lp1061
S'was'
p1062
aS'A'
p1063
aS'VBD'
p1064
aa(lp1065
S'assembled'
p1066
aS'A'
p1067
aS'VBN'
p1068
aa(lp1069
S'by'
p1070
aS'N'
p1071
aS'IN'
p1072
aa(lp1073
S'sandwiching'
p1074
aS'P'
p1075
aS'VBG'
p1076
aa(lp1077
S'a'
p1078
aS'N'
p1079
aS'DT'
p1080
aa(lp1081
S'GPE'
p1082
aS'I'
p1083
aS'NNP'
p1084
aa(lp1085
S'membrane'
p1086
aS'I'
p1087
ag1057
aa(lp1088
S'between'
p1089
aS'N'
p1090
aS'IN'
p1091
aa(lp1092
S'a'
p1093
aS'N'
p1094
ag1080
aa(lp1095
S'TiO2(B)'
p1096
aS'R'
p1097
ag1084
aa(lp1098
S'electrode'
p1099
aS'R'
p1100
ag1057
aa(lp1101
S'and'
p1102
aS'N'
p1103
aS'CC'
p1104
aa(lp1105
S'either'
p1106
aS'N'
p1107
aS'CC'
p1108
aa(lp1109
S'a'
p1110
aS'N'
p1111
ag1080
aa(lp1112
S'LiFePO4'
p1113
aS'R'
p1114
ag1084
aa(lp1115
S'or'
p1116
aS'N'
p1117
aS'CC'
p1118
aa(lp1119
S'LiNi0.5Mn1.5O4'
p1120
aS'R'
p1121
ag1084
aa(lp1122
S'disk'
p1123
aS'R'
p1124
ag1057
aa(lp1125
S'.'
p1126
aS'N'
p1127
aS'.'
p1128
aa(lp1129
g72
ag4
ag4
aa(lp1130
g74
ag4
ag4
aaa(lp1131
(lp1132
g3
ag4
ag4
aa(lp1133
g6
ag4
ag4
aa(lp1134
S'The'
p1135
aS'N'
p1136
aS'DT'
p1137
aa(lp1138
S'batteries'
p1139
aS'R'
p1140
aS'NNS'
p1141
aa(lp1142
S'were'
p1143
aS'A'
p1144
aS'VBD'
p1145
aa(lp1146
S'anode'
p1147
aS'P'
p1148
aS'RB'
p1149
aa(lp1150
S'limited'
p1151
aS'P'
p1152
aS'VBN'
p1153
aa(lp1154
S'and'
p1155
aS'N'
p1156
aS'CC'
p1157
aa(lp1158
S'the'
p1159
aS'N'
p1160
aS'DT'
p1161
aa(lp1162
S'specific'
p1163
aS'P'
p1164
aS'JJ'
p1165
aa(lp1166
S'capacity'
p1167
aS'P'
p1168
aS'NN'
p1169
aa(lp1170
S'and'
p1171
aS'N'
p1172
ag1157
aa(lp1173
S'rate'
p1174
aS'P'
p1175
aS'NN'
p1176
aa(lp1177
S'of'
p1178
aS'P'
p1179
aS'IN'
p1180
aa(lp1181
S'the'
p1182
aS'P'
p1183
ag1161
aa(lp1184
S'batteries'
p1185
aS'P'
p1186
ag1141
aa(lp1187
S'referred'
p1188
aS'N'
p1189
aS'VBD'
p1190
aa(lp1191
S'to'
p1192
aS'N'
p1193
aS'TO'
p1194
aa(lp1195
S'the'
p1196
aS'N'
p1197
ag1161
aa(lp1198
S'mass'
p1199
aS'P'
p1200
aS'NN'
p1201
aa(lp1202
S'of'
p1203
aS'P'
p1204
ag1180
aa(lp1205
S'the'
p1206
aS'N'
p1207
ag1161
aa(lp1208
S'negative'
p1209
aS'N'
p1210
ag1165
aa(lp1211
S'TiO2(B)'
p1212
aS'R'
p1213
aS'NNP'
p1214
aa(lp1215
S'electrode'
p1216
aS'R'
p1217
ag1201
aa(lp1218
S'.'
p1219
aS'N'
p1220
aS'.'
p1221
aa(lp1222
g72
ag4
ag4
aa(lp1223
g74
ag4
ag4
aaa(lp1224
(lp1225
g3
ag4
ag4
aa(lp1226
g6
ag4
ag4
aa(lp1227
S'All'
p1228
aS'N'
p1229
aS'DT'
p1230
aa(lp1231
S'manipulations'
p1232
aS'N'
p1233
aS'NNS'
p1234
aa(lp1235
S'were'
p1236
aS'N'
p1237
aS'VBD'
p1238
aa(lp1239
S'carried'
p1240
aS'N'
p1241
aS'VBN'
p1242
aa(lp1243
S'out'
p1244
aS'N'
p1245
aS'RP'
p1246
aa(lp1247
S'in'
p1248
aS'N'
p1249
aS'IN'
p1250
aa(lp1251
S'a'
p1252
aS'N'
p1253
aS'DT'
p1254
aa(lp1255
S'MBraun'
p1256
aS'N'
p1257
aS'NNP'
p1258
aa(lp1259
S'drybox'
p1260
aS'N'
p1261
aS'NN'
p1262
aa(lp1263
S'with'
p1264
aS'N'
p1265
aS'IN'
p1266
aa(lp1267
S'moisture'
p1268
aS'N'
p1269
ag1262
aa(lp1270
S'and'
p1271
aS'N'
p1272
aS'CC'
p1273
aa(lp1274
S'oxygen'
p1275
aS'N'
p1276
ag1262
aa(lp1277
S'levels'
p1278
aS'N'
p1279
aS'NNS'
p1280
aa(lp1281
S'below'
p1282
aS'N'
p1283
aS'IN'
p1284
aa(lp1285
S'1'
p1286
aS'N'
p1287
aS'CD'
p1288
aa(lp1289
S'ppm'
p1290
aS'N'
p1291
ag1262
aa(lp1292
S'.'
p1293
aS'N'
p1294
aS'.'
p1295
aa(lp1296
g72
ag4
ag4
aa(lp1297
g74
ag4
ag4
aaa(lp1298
(lp1299
g3
ag4
ag4
aa(lp1300
g6
ag4
ag4
aa(lp1301
S'The'
p1302
aS'N'
p1303
aS'DT'
p1304
aa(lp1305
S'galvanostatic'
p1306
aS'E'
p1307
aS'JJ'
p1308
aa(lp1309
S'cycling'
p1310
aS'E'
p1311
aS'NN'
p1312
aa(lp1313
S'tests'
p1314
aS'E'
p1315
aS'NNS'
p1316
aa(lp1317
S'were'
p1318
aS'A'
p1319
aS'VBD'
p1320
aa(lp1321
S'performed'
p1322
aS'A'
p1323
aS'VBN'
p1324
aa(lp1325
S'using'
p1326
aS'N'
p1327
aS'VBG'
p1328
aa(lp1329
S'a'
p1330
aS'N'
p1331
aS'DT'
p1332
aa(lp1333
S'Maccor'
p1334
aS'E'
p1335
aS'NNP'
p1336
aa(lp1337
S'automated'
p1338
aS'E'
p1339
ag1324
aa(lp1340
S'battery'
p1341
aS'E'
p1342
ag1312
aa(lp1343
S'cycler'
p1344
aS'E'
p1345
ag1312
aa(lp1346
S'.'
p1347
aS'N'
p1348
aS'.'
p1349
aa(lp1350
g72
ag4
ag4
aa(lp1351
g74
ag4
ag4
aaa(lp1352
(lp1353
g3
ag4
ag4
aa(lp1354
g6
ag4
ag4
aa(lp1355
S'All'
p1356
aS'N'
p1357
aS'DT'
p1358
aa(lp1359
S'measurements'
p1360
aS'E'
p1361
aS'NNS'
p1362
aa(lp1363
S'were'
p1364
aS'A'
p1365
aS'VBD'
p1366
aa(lp1367
S'performed'
p1368
aS'A'
p1369
aS'VBN'
p1370
aa(lp1371
S'at'
p1372
aS'N'
p1373
aS'IN'
p1374
aa(lp1375
S'room'
p1376
aS'P'
p1377
aS'NN'
p1378
aa(lp1379
S'temperature'
p1380
aS'P'
p1381
aS'NN'
p1382
aa(lp1383
S'.'
p1384
aS'N'
p1385
aS'.'
p1386
aa(lp1387
g72
ag4
ag4
aa(lp1388
g74
ag4
ag4
aaa.