(lp0
(lp1
(lp2
S'***START***'
p3
aS'None'
p4
ag4
aa(lp5
S'***START2***'
p6
ag4
ag4
aa(lp7
S'Two'
p8
aS'N'
p9
aS'CD'
p10
aa(lp11
S'Li4Ti5O12'
p12
aS'I'
p13
aS'NNP'
p14
aa(lp15
S'powders'
p16
aS'I'
p17
aS'NNS'
p18
aa(lp19
S'(Sachtleben'
p20
aS'N'
p21
aS'VBP'
p22
aa(lp23
S'Pigments)'
p24
aS'N'
p25
ag14
aa(lp26
S'were'
p27
aS'A'
p28
aS'VBD'
p29
aa(lp30
S'used'
p31
aS'A'
p32
aS'VBN'
p33
aa(lp34
S'as'
p35
aS'N'
p36
aS'IN'
p37
aa(lp38
S'active'
p39
aS'PR'
p40
aS'JJ'
p41
aa(lp42
S'materials'
p43
aS'PR'
p44
aS'NNS'
p45
aa(lp46
S'.'
p47
aS'N'
p48
aS'.'
p49
aa(lp50
S'***END***'
p51
ag4
ag4
aa(lp52
S'***END2***'
p53
ag4
ag4
aaa(lp54
(lp55
g3
ag4
ag4
aa(lp56
g6
ag4
ag4
aa(lp57
S'Samples'
p58
aS'N'
p59
aS'NNS'
p60
aa(lp61
S'are'
p62
aS'N'
p63
aS'VBP'
p64
aa(lp65
S'labeled'
p66
aS'A'
p67
aS'VBN'
p68
aa(lp69
S'hereafter'
p70
aS'N'
p71
aS'RB'
p72
aa(lp73
S'as'
p74
aS'N'
p75
aS'IN'
p76
aa(lp77
S'LTO-SP'
p78
aS'PR'
p79
aS'NNP'
p80
aa(lp81
S'and'
p82
aS'N'
p83
aS'CC'
p84
aa(lp85
S'LTO-LP'
p86
aS'PR'
p87
ag80
aa(lp88
S'according'
p89
aS'N'
p90
aS'VBG'
p91
aa(lp92
S'to'
p93
aS'N'
p94
aS'TO'
p95
aa(lp96
S'the'
p97
aS'N'
p98
aS'DT'
p99
aa(lp100
S'primary'
p101
aS'N'
p102
aS'JJ'
p103
aa(lp104
S'particle'
p105
aS'N'
p106
aS'NN'
p107
aa(lp108
S'size'
p109
aS'N'
p110
aS'NN'
p111
aa(lp112
S'(SP'
p113
aS'N'
p114
ag107
aa(lp115
S'for'
p116
aS'N'
p117
aS'IN'
p118
aa(lp119
S'smaller'
p120
aS'N'
p121
aS'JJR'
p122
aa(lp123
S'primary'
p124
aS'N'
p125
ag103
aa(lp126
S'particle'
p127
aS'N'
p128
ag107
aa(lp129
S'size'
p130
aS'N'
p131
ag111
aa(lp132
S'and'
p133
aS'N'
p134
ag84
aa(lp135
S'LP'
p136
aS'N'
p137
ag80
aa(lp138
S'for'
p139
aS'N'
p140
ag118
aa(lp141
S'larger'
p142
aS'N'
p143
aS'JJR'
p144
aa(lp145
S'primary'
p146
aS'N'
p147
ag103
aa(lp148
S'particle'
p149
aS'N'
p150
ag107
aa(lp151
S'size)'
p152
aS'N'
p153
ag107
aa(lp154
S'.'
p155
aS'N'
p156
aS'.'
p157
aa(lp158
g51
ag4
ag4
aa(lp159
g53
ag4
ag4
aaa(lp160
(lp161
g3
ag4
ag4
aa(lp162
g6
ag4
ag4
aa(lp163
S'These'
p164
aS'N'
p165
aS'DT'
p166
aa(lp167
S'materials'
p168
aS'R'
p169
aS'NNS'
p170
aa(lp171
S'have'
p172
aS'A'
p173
aS'VBP'
p174
aa(lp175
S'been'
p176
aS'A'
p177
aS'VBN'
p178
aa(lp179
S'synthesized'
p180
aS'A'
p181
aS'VBN'
p182
aa(lp183
S'using'
p184
aS'N'
p185
aS'VBG'
p186
aa(lp187
S'the'
p188
aS'N'
p189
aS'DT'
p190
aa(lp191
S'same'
p192
aS'N'
p193
aS'JJ'
p194
aa(lp195
S'pilot'
p196
aS'E'
p197
aS'NN'
p198
aa(lp199
S'scale'
p200
aS'E'
p201
ag198
aa(lp202
S'method'
p203
aS'E'
p204
ag198
aa(lp205
S'and'
p206
aS'N'
p207
aS'CC'
p208
aa(lp209
S'the'
p210
aS'N'
p211
ag190
aa(lp212
S'difference'
p213
aS'N'
p214
aS'NN'
p215
aa(lp216
S'in'
p217
aS'N'
p218
aS'IN'
p219
aa(lp220
S'the'
p221
aS'N'
p222
ag190
aa(lp223
S'particle'
p224
aS'N'
p225
ag198
aa(lp226
S'size'
p227
aS'P'
p228
aS'NN'
p229
aa(lp230
S'results'
p231
aS'P'
p232
aS'NNS'
p233
aa(lp234
S'from'
p235
aS'P'
p236
aS'IN'
p237
aa(lp238
S'different'
p239
aS'P'
p240
aS'JJ'
p241
aa(lp242
S'milling'
p243
aS'P'
p244
ag198
aa(lp245
S'processes'
p246
aS'P'
p247
aS'NNS'
p248
aa(lp249
S'.'
p250
aS'N'
p251
aS'.'
p252
aa(lp253
g51
ag4
ag4
aa(lp254
g53
ag4
ag4
aaa(lp255
(lp256
g3
ag4
ag4
aa(lp257
g6
ag4
ag4
aa(lp258
S'Morphology'
p259
aS'PR'
p260
aS'NN'
p261
aa(lp262
S'of'
p263
aS'N'
p264
aS'IN'
p265
aa(lp266
S'the'
p267
aS'N'
p268
aS'DT'
p269
aa(lp270
S'particles'
p271
aS'R'
p272
aS'NNS'
p273
aa(lp274
S'was'
p275
aS'A'
p276
aS'VBD'
p277
aa(lp278
S'observed'
p279
aS'A'
p280
aS'VBN'
p281
aa(lp282
S'by'
p283
aS'N'
p284
aS'IN'
p285
aa(lp286
S'scanning'
p287
aS'E'
p288
aS'VBG'
p289
aa(lp290
S'electron'
p291
aS'E'
p292
ag261
aa(lp293
S'microscopy'
p294
aS'E'
p295
ag261
aa(lp296
S'(SEM'
p297
aS'E'
p298
aS'NNP'
p299
aa(lp300
S','
p301
aS'N'
p302
aS','
p303
aa(lp304
S'JEOL'
p305
aS'N'
p306
ag299
aa(lp307
S'JSM-7500FA)'
p308
aS'N'
p309
ag299
aa(lp310
S'.'
p311
aS'N'
p312
aS'.'
p313
aa(lp314
g51
ag4
ag4
aa(lp315
g53
ag4
ag4
aaa(lp316
(lp317
g3
ag4
ag4
aa(lp318
g6
ag4
ag4
aa(lp319
S'Particle'
p320
aS'PR'
p321
aS'NN'
p322
aa(lp323
S'sizes'
p324
aS'PR'
p325
aS'NNS'
p326
aa(lp327
S'were'
p328
aS'A'
p329
aS'VBD'
p330
aa(lp331
S'calculated'
p332
aS'A'
p333
aS'VBN'
p334
aa(lp335
S'from'
p336
aS'N'
p337
aS'IN'
p338
aa(lp339
S'the'
p340
aS'N'
p341
aS'DT'
p342
aa(lp343
S'SEM'
p344
aS'E'
p345
aS'NNP'
p346
aa(lp347
S'images'
p348
aS'E'
p349
ag326
aa(lp350
S'measuring'
p351
aS'E'
p352
aS'VBG'
p353
aa(lp354
S'212'
p355
aS'P'
p356
aS'CD'
p357
aa(lp358
S'LTO-SP'
p359
aS'R'
p360
aS'JJ'
p361
aa(lp362
S'and'
p363
aS'N'
p364
aS'CC'
p365
aa(lp366
S'455'
p367
aS'P'
p368
ag357
aa(lp369
S'LTO-LP'
p370
aS'R'
p371
ag361
aa(lp372
S'particles'
p373
aS'R'
p374
ag326
aa(lp375
S'.'
p376
aS'N'
p377
aS'.'
p378
aa(lp379
g51
ag4
ag4
aa(lp380
g53
ag4
ag4
aaa(lp381
(lp382
g3
ag4
ag4
aa(lp383
g6
ag4
ag4
aa(lp384
S'BET'
p385
aS'E'
p386
aS'IN'
p387
aa(lp388
S'measurements'
p389
aS'E'
p390
aS'NNS'
p391
aa(lp392
S'were'
p393
aS'A'
p394
aS'VBD'
p395
aa(lp396
S'done'
p397
aS'A'
p398
aS'VBN'
p399
aa(lp400
S'using'
p401
aS'N'
p402
aS'VBG'
p403
aa(lp404
S'Nova'
p405
aS'E'
p406
aS'NNP'
p407
aa(lp408
S'3200'
p409
aS'E'
p410
aS'CD'
p411
aa(lp412
S'surface'
p413
aS'E'
p414
aS'NN'
p415
aa(lp416
S'area'
p417
aS'E'
p418
aS'NN'
p419
aa(lp420
S'analyzer'
p421
aS'E'
p422
aS'VBZ'
p423
aa(lp424
S'(Quantachrome'
p425
aS'N'
p426
aS'JJ'
p427
aa(lp428
S'Instruments)'
p429
aS'N'
p430
ag407
aa(lp431
S'.'
p432
aS'N'
p433
aS'.'
p434
aa(lp435
g51
ag4
ag4
aa(lp436
g53
ag4
ag4
aaa(lp437
(lp438
g3
ag4
ag4
aa(lp439
g6
ag4
ag4
aa(lp440
S'Electrode'
p441
aS'PR'
p442
aS'NNP'
p443
aa(lp444
S'slurries'
p445
aS'PR'
p446
aS'NNS'
p447
aa(lp448
S'were'
p449
aS'A'
p450
aS'VBD'
p451
aa(lp452
S'prepared'
p453
aS'A'
p454
aS'VBN'
p455
aa(lp456
S'by'
p457
aS'N'
p458
aS'IN'
p459
aa(lp460
S'mixing'
p461
aS'P'
p462
aS'VBG'
p463
aa(lp464
S'LTO'
p465
aS'R'
p466
ag443
aa(lp467
S','
p468
aS'N'
p469
aS','
p470
aa(lp471
S'carbon'
p472
aS'I'
p473
aS'NN'
p474
aa(lp475
S'black'
p476
aS'I'
p477
aS'JJ'
p478
aa(lp479
S'(C65'
p480
aS'I'
p481
ag474
aa(lp482
S','
p483
aS'N'
p484
ag470
aa(lp485
S'Timcal)'
p486
aS'N'
p487
ag443
aa(lp488
S','
p489
aS'N'
p490
ag470
aa(lp491
S'and'
p492
aS'N'
p493
aS'CC'
p494
aa(lp495
S'PVDF'
p496
aS'I'
p497
ag443
aa(lp498
S'(polyvinylidene'
p499
aS'I'
p500
ag443
aa(lp501
S'fluoride)'
p502
aS'I'
p503
ag474
aa(lp504
S'in'
p505
aS'N'
p506
aS'IN'
p507
aa(lp508
S'N-methyl-2-pyrrolidone'
p509
aS'I'
p510
ag443
aa(lp511
S'(Ashland)'
p512
aS'N'
p513
ag443
aa(lp514
S'in'
p515
aS'N'
p516
ag507
aa(lp517
S'weight'
p518
aS'P'
p519
aS'JJ'
p520
aa(lp521
S'ratios'
p522
aS'P'
p523
ag447
aa(lp524
S'92:3:5'
p525
aS'P'
p526
aS'CD'
p527
aa(lp528
S'for'
p529
aS'N'
p530
aS'IN'
p531
aa(lp532
S'carbon'
p533
aS'PR'
p534
ag474
aa(lp535
S'containing'
p536
aS'PR'
p537
ag463
aa(lp538
S'electrodes'
p539
aS'PR'
p540
ag447
aa(lp541
S'and'
p542
aS'N'
p543
ag494
aa(lp544
S'95:0:5'
p545
aS'P'
p546
ag527
aa(lp547
S'for'
p548
aS'N'
p549
ag531
aa(lp550
S'carbon'
p551
aS'PR'
p552
ag474
aa(lp553
S'free'
p554
aS'PR'
p555
ag520
aa(lp556
S'electrodes'
p557
aS'PR'
p558
ag447
aa(lp559
S'.'
p560
aS'N'
p561
aS'.'
p562
aa(lp563
g51
ag4
ag4
aa(lp564
g53
ag4
ag4
aaa(lp565
(lp566
g3
ag4
ag4
aa(lp567
g6
ag4
ag4
aa(lp568
S'Electrode'
p569
aS'R'
p570
aS'NNP'
p571
aa(lp572
S'slurries'
p573
aS'R'
p574
aS'NNS'
p575
aa(lp576
S'were'
p577
aS'A'
p578
aS'VBD'
p579
aa(lp580
S'then'
p581
aS'N'
p582
aS'RB'
p583
aa(lp584
S'coated'
p585
aS'A'
p586
aS'VBN'
p587
aa(lp588
S'on'
p589
aS'N'
p590
aS'IN'
p591
aa(lp592
S'an'
p593
aS'N'
p594
aS'DT'
p595
aa(lp596
S'aluminum'
p597
aS'I'
p598
aS'NN'
p599
aa(lp600
S'foil'
p601
aS'I'
p602
ag599
aa(lp603
S'and'
p604
aS'N'
p605
aS'CC'
p606
aa(lp607
S'dried'
p608
aS'A'
p609
aS'VBD'
p610
aa(lp611
S'at'
p612
aS'N'
p613
aS'IN'
p614
aa(lp615
S'80'
p616
aS'P'
p617
aS'CD'
p618
aa(lp619
S'C'
p620
aS'P'
p621
ag571
aa(lp622
S'overnight'
p623
aS'P'
p624
ag599
aa(lp625
S'.'
p626
aS'N'
p627
aS'.'
p628
aa(lp629
g51
ag4
ag4
aa(lp630
g53
ag4
ag4
aaa(lp631
(lp632
g3
ag4
ag4
aa(lp633
g6
ag4
ag4
aa(lp634
S'14'
p635
aS'P'
p636
aS'CD'
p637
aa(lp638
S'mm'
p639
aS'P'
p640
aS'NNS'
p641
aa(lp642
S'electrodes'
p643
aS'PR'
p644
ag641
aa(lp645
S'were'
p646
aS'A'
p647
aS'VBD'
p648
aa(lp649
S'cut'
p650
aS'A'
p651
aS'VBN'
p652
aa(lp653
S'from'
p654
aS'N'
p655
aS'IN'
p656
aa(lp657
S'the'
p658
aS'N'
p659
aS'DT'
p660
aa(lp661
S'dried'
p662
aS'R'
p663
aS'JJ'
p664
aa(lp665
S'electrode'
p666
aS'R'
p667
aS'NN'
p668
aa(lp669
S'foils'
p670
aS'R'
p671
ag641
aa(lp672
S'and'
p673
aS'N'
p674
aS'CC'
p675
aa(lp676
S'calendered'
p677
aS'A'
p678
ag652
aa(lp679
S'with'
p680
aS'N'
p681
aS'IN'
p682
aa(lp683
S'a'
p684
aS'N'
p685
aS'DT'
p686
aa(lp687
S'pressure'
p688
aS'P'
p689
ag668
aa(lp690
S'of'
p691
aS'P'
p692
aS'IN'
p693
aa(lp694
S'3300'
p695
aS'P'
p696
aS'CD'
p697
aa(lp698
S'kg'
p699
aS'P'
p700
ag668
aa(lp701
S'cm2'
p702
aS'P'
p703
ag668
aa(lp704
S'.'
p705
aS'N'
p706
aS'.'
p707
aa(lp708
g51
ag4
ag4
aa(lp709
g53
ag4
ag4
aaa(lp710
(lp711
g3
ag4
ag4
aa(lp712
g6
ag4
ag4
aa(lp713
S'Electrodes'
p714
aS'R'
p715
aS'NNS'
p716
aa(lp717
S'were'
p718
aS'A'
p719
aS'VBD'
p720
aa(lp721
S'dried'
p722
aS'A'
p723
aS'VBN'
p724
aa(lp725
S'overnight'
p726
aS'P'
p727
aS'JJ'
p728
aa(lp729
S'at'
p730
aS'N'
p731
aS'IN'
p732
aa(lp733
S'110'
p734
aS'P'
p735
aS'CD'
p736
aa(lp737
S'C'
p738
aS'P'
p739
aS'NNP'
p740
aa(lp741
S'under'
p742
aS'N'
p743
aS'IN'
p744
aa(lp745
S'vacuum'
p746
aS'P'
p747
aS'NN'
p748
aa(lp749
S'before'
p750
aS'N'
p751
aS'IN'
p752
aa(lp753
S'assembling'
p754
aS'A'
p755
aS'VBG'
p756
aa(lp757
S'2016'
p758
aS'E'
p759
ag736
aa(lp760
S'coin'
p761
aS'E'
p762
ag748
aa(lp763
S'cells'
p764
aS'E'
p765
aS'NNS'
p766
aa(lp767
S'in'
p768
aS'N'
p769
aS'IN'
p770
aa(lp771
S'an'
p772
aS'N'
p773
aS'DT'
p774
aa(lp775
S'argon'
p776
aS'E'
p777
ag748
aa(lp778
S'filled'
p779
aS'E'
p780
ag724
aa(lp781
S'glove'
p782
aS'E'
p783
ag748
aa(lp784
S'box'
p785
aS'E'
p786
ag748
aa(lp787
S'(oxygen'
p788
aS'P'
p789
ag748
aa(lp790
S'and'
p791
aS'P'
p792
aS'CC'
p793
aa(lp794
S'water'
p795
aS'P'
p796
aS'NN'
p797
aa(lp798
S'vapor'
p799
aS'P'
p800
ag748
aa(lp801
S'levels'
p802
aS'P'
p803
aS'NNS'
p804
aa(lp805
S'below'
p806
aS'P'
p807
ag752
aa(lp808
S'1'
p809
aS'P'
p810
aS'CD'
p811
aa(lp812
S'ppm)'
p813
aS'P'
p814
ag748
aa(lp815
S'.'
p816
aS'N'
p817
aS'.'
p818
aa(lp819
g51
ag4
ag4
aa(lp820
g53
ag4
ag4
aaa(lp821
(lp822
g3
ag4
ag4
aa(lp823
g6
ag4
ag4
aa(lp824
S'Lithium'
p825
aS'I'
p826
aS'NNP'
p827
aa(lp828
S'metal'
p829
aS'I'
p830
aS'NN'
p831
aa(lp832
S'foil'
p833
aS'I'
p834
ag831
aa(lp835
S'(0.38'
p836
aS'P'
p837
ag827
aa(lp838
S'mm'
p839
aS'P'
p840
ag831
aa(lp841
S'in'
p842
aS'P'
p843
aS'IN'
p844
aa(lp845
S'thickness'
p846
aS'P'
p847
ag831
aa(lp848
S','
p849
aS'N'
p850
aS','
p851
aa(lp852
S'Aldrich)'
p853
aS'N'
p854
ag827
aa(lp855
S'was'
p856
aS'A'
p857
aS'VBD'
p858
aa(lp859
S'used'
p860
aS'A'
p861
aS'VBN'
p862
aa(lp863
S'as'
p864
aS'N'
p865
aS'IN'
p866
aa(lp867
S'a'
p868
aS'N'
p869
aS'DT'
p870
aa(lp871
S'counter'
p872
aS'N'
p873
ag831
aa(lp874
S'electrode,'
p875
aS'N'
p876
ag831
aa(lp877
S'and'
p878
aS'N'
p879
aS'CC'
p880
aa(lp881
S'1'
p882
aS'P'
p883
aS'CD'
p884
aa(lp885
S'M'
p886
aS'P'
p887
ag827
aa(lp888
S'LiPF6'
p889
aS'I'
p890
ag827
aa(lp891
S'in'
p892
aS'N'
p893
ag844
aa(lp894
S'ethylene'
p895
aS'I'
p896
aS'JJ'
p897
aa(lp898
S'carbonate:dimethyl'
p899
aS'I'
p900
ag831
aa(lp901
S'carbonate'
p902
aS'I'
p903
ag831
aa(lp904
S'1:1'
p905
aS'P'
p906
aS'CD'
p907
aa(lp908
S'w/w'
p909
aS'P'
p910
ag831
aa(lp911
S'(LP30,'
p912
aS'N'
p913
ag827
aa(lp914
S'Merck)'
p915
aS'N'
p916
ag827
aa(lp917
S'as'
p918
aS'N'
p919
ag866
aa(lp920
S'an'
p921
aS'N'
p922
aS'DT'
p923
aa(lp924
S'electrolyte'
p925
aS'N'
p926
ag831
aa(lp927
S'.'
p928
aS'N'
p929
aS'.'
p930
aa(lp931
g51
ag4
ag4
aa(lp932
g53
ag4
ag4
aaa(lp933
(lp934
g3
ag4
ag4
aa(lp935
g6
ag4
ag4
aa(lp936
S'260'
p937
aS'P'
p938
aS'CD'
p939
aa(lp940
S'm'
p941
aS'P'
p942
aS'NN'
p943
aa(lp944
S'thick'
p945
aS'P'
p946
aS'JJ'
p947
aa(lp948
S'glass'
p949
aS'E'
p950
ag943
aa(lp951
S'microfiber'
p952
aS'E'
p953
aS'NNP'
p954
aa(lp955
S'filter'
p956
aS'E'
p957
ag943
aa(lp958
S'(GF/A'
p959
aS'E'
p960
ag954
aa(lp961
S','
p962
aS'N'
p963
aS','
p964
aa(lp965
S'Whatman)'
p966
aS'N'
p967
ag954
aa(lp968
S'was'
p969
aS'A'
p970
aS'VBD'
p971
aa(lp972
S'used'
p973
aS'A'
p974
aS'VBN'
p975
aa(lp976
S'as'
p977
aS'N'
p978
aS'IN'
p979
aa(lp980
S'a'
p981
aS'N'
p982
aS'DT'
p983
aa(lp984
S'separator'
p985
aS'N'
p986
ag943
aa(lp987
S'.'
p988
aS'N'
p989
aS'.'
p990
aa(lp991
g51
ag4
ag4
aa(lp992
g53
ag4
ag4
aaa(lp993
(lp994
g3
ag4
ag4
aa(lp995
g6
ag4
ag4
aa(lp996
S'Charging/discharging'
p997
aS'E'
p998
aS'VBG'
p999
aa(lp1000
S'experiments'
p1001
aS'E'
p1002
aS'NNS'
p1003
aa(lp1004
S'were'
p1005
aS'A'
p1006
aS'VBD'
p1007
aa(lp1008
S'conducted'
p1009
aS'A'
p1010
aS'VBN'
p1011
aa(lp1012
S'using'
p1013
aS'N'
p1014
aS'VBG'
p1015
aa(lp1016
S'a'
p1017
aS'N'
p1018
aS'DT'
p1019
aa(lp1020
S'Neware'
p1021
aS'E'
p1022
aS'NNP'
p1023
aa(lp1024
S'battery'
p1025
aS'E'
p1026
aS'NN'
p1027
aa(lp1028
S'cycler'
p1029
aS'E'
p1030
ag1027
aa(lp1031
S'.'
p1032
aS'N'
p1033
aS'.'
p1034
aa(lp1035
g51
ag4
ag4
aa(lp1036
g53
ag4
ag4
aaa(lp1037
(lp1038
g3
ag4
ag4
aa(lp1039
g6
ag4
ag4
aa(lp1040
S'Galvanostatic'
p1041
aS'E'
p1042
aS'JJ'
p1043
aa(lp1044
S'charging'
p1045
aS'E'
p1046
aS'NN'
p1047
aa(lp1048
S'and'
p1049
aS'E'
p1050
aS'CC'
p1051
aa(lp1052
S'discharging'
p1053
aS'E'
p1054
ag1047
aa(lp1055
S'was'
p1056
aS'A'
p1057
aS'VBD'
p1058
aa(lp1059
S'done'
p1060
aS'A'
p1061
aS'VBN'
p1062
aa(lp1063
S'between'
p1064
aS'N'
p1065
aS'IN'
p1066
aa(lp1067
S'1.1'
p1068
aS'P'
p1069
aS'CD'
p1070
aa(lp1071
S'and'
p1072
aS'P'
p1073
ag1051
aa(lp1074
S'2.5'
p1075
aS'P'
p1076
aS'CD'
p1077
aa(lp1078
S'V'
p1079
aS'P'
p1080
aS'NNP'
p1081
aa(lp1082
S'vs.'
p1083
aS'P'
p1084
aS'FW'
p1085
aa(lp1086
S'Li/Li+'
p1087
aS'P'
p1088
ag1081
aa(lp1089
S'using'
p1090
aS'N'
p1091
aS'VBG'
p1092
aa(lp1093
S'C-rates'
p1094
aS'P'
p1095
aS'NNS'
p1096
aa(lp1097
S'from'
p1098
aS'P'
p1099
aS'IN'
p1100
aa(lp1101
S'0.1C'
p1102
aS'P'
p1103
aS'CD'
p1104
aa(lp1105
S'to'
p1106
aS'P'
p1107
aS'TO'
p1108
aa(lp1109
S'10C'
p1110
aS'P'
p1111
ag1104
aa(lp1112
S'.'
p1113
aS'N'
p1114
aS'.'
p1115
aa(lp1116
g51
ag4
ag4
aa(lp1117
g53
ag4
ag4
aaa(lp1118
(lp1119
g3
ag4
ag4
aa(lp1120
g6
ag4
ag4
aa(lp1121
S'C-rates'
p1122
aS'PR'
p1123
aS'NNS'
p1124
aa(lp1125
S'were'
p1126
aS'A'
p1127
aS'VBD'
p1128
aa(lp1129
S'calculated'
p1130
aS'A'
p1131
aS'VBN'
p1132
aa(lp1133
S'using'
p1134
aS'N'
p1135
aS'VBG'
p1136
aa(lp1137
S'the'
p1138
aS'N'
p1139
aS'DT'
p1140
aa(lp1141
S'theoretical'
p1142
aS'P'
p1143
aS'JJ'
p1144
aa(lp1145
S'capacity'
p1146
aS'P'
p1147
aS'NN'
p1148
aa(lp1149
S'of'
p1150
aS'P'
p1151
aS'IN'
p1152
aa(lp1153
S'Li4Ti5O12'
p1154
aS'I'
p1155
aS'NNP'
p1156
aa(lp1157
S'(175'
p1158
aS'P'
p1159
ag1156
aa(lp1160
S'mAh'
p1161
aS'P'
p1162
aS'NN'
p1163
aa(lp1164
S'g1)'
p1165
aS'P'
p1166
ag1163
aa(lp1167
S'and'
p1168
aS'N'
p1169
aS'CC'
p1170
aa(lp1171
S'1C'
p1172
aS'N'
p1173
aS'CD'
p1174
aa(lp1175
S'corresponds'
p1176
aS'N'
p1177
ag1124
aa(lp1178
S'to'
p1179
aS'N'
p1180
aS'TO'
p1181
aa(lp1182
S'complete'
p1183
aS'N'
p1184
aS'VB'
p1185
aa(lp1186
S'charging'
p1187
aS'N'
p1188
aS'VBG'
p1189
aa(lp1190
S'or'
p1191
aS'N'
p1192
aS'CC'
p1193
aa(lp1194
S'discharging'
p1195
aS'N'
p1196
ag1189
aa(lp1197
S'in'
p1198
aS'N'
p1199
aS'IN'
p1200
aa(lp1201
S'1'
p1202
aS'N'
p1203
aS'CD'
p1204
aa(lp1205
S'h'
p1206
aS'N'
p1207
ag1163
aa(lp1208
S'.'
p1209
aS'N'
p1210
aS'.'
p1211
aa(lp1212
g51
ag4
ag4
aa(lp1213
g53
ag4
ag4
aaa(lp1214
(lp1215
g3
ag4
ag4
aa(lp1216
g6
ag4
ag4
aa(lp1217
S'Low'
p1218
aS'E'
p1219
aS'JJ'
p1220
aa(lp1221
S'temperature'
p1222
aS'E'
p1223
aS'NN'
p1224
aa(lp1225
S'measurements'
p1226
aS'E'
p1227
aS'NNS'
p1228
aa(lp1229
S'were'
p1230
aS'A'
p1231
aS'VBD'
p1232
aa(lp1233
S'done'
p1234
aS'A'
p1235
aS'VBN'
p1236
aa(lp1237
S'at'
p1238
aS'N'
p1239
aS'IN'
p1240
aa(lp1241
S'0'
p1242
aS'P'
p1243
aS'CD'
p1244
aa(lp1245
S'C'
p1246
aS'P'
p1247
aS'NNP'
p1248
aa(lp1249
S'and'
p1250
aS'N'
p1251
aS'CC'
p1252
aa(lp1253
S'20'
p1254
aS'P'
p1255
aS'CD'
p1256
aa(lp1257
S'C'
p1258
aS'P'
p1259
ag1248
aa(lp1260
S'in'
p1261
aS'N'
p1262
aS'IN'
p1263
aa(lp1264
S'temperature'
p1265
aS'E'
p1266
ag1224
aa(lp1267
S'chamber'
p1268
aS'E'
p1269
ag1224
aa(lp1270
S'(Vtsch)'
p1271
aS'N'
p1272
ag1224
aa(lp1273
S'.'
p1274
aS'N'
p1275
aS'.'
p1276
aa(lp1277
g51
ag4
ag4
aa(lp1278
g53
ag4
ag4
aaa(lp1279
(lp1280
g3
ag4
ag4
aa(lp1281
g6
ag4
ag4
aa(lp1282
S'Temperature'
p1283
aS'P'
p1284
aS'NN'
p1285
aa(lp1286
S'was'
p1287
aS'A'
p1288
aS'VBD'
p1289
aa(lp1290
S'let'
p1291
aS'A'
p1292
aS'VBN'
p1293
aa(lp1294
S'to'
p1295
aS'N'
p1296
aS'TO'
p1297
aa(lp1298
S'stabilize'
p1299
aS'P'
p1300
aS'VB'
p1301
aa(lp1302
S'for'
p1303
aS'N'
p1304
aS'IN'
p1305
aa(lp1306
S'1'
p1307
aS'P'
p1308
aS'CD'
p1309
aa(lp1310
S'h'
p1311
aS'P'
p1312
ag1285
aa(lp1313
S'before'
p1314
aS'N'
p1315
aS'IN'
p1316
aa(lp1317
S'the'
p1318
aS'N'
p1319
aS'DT'
p1320
aa(lp1321
S'measurements'
p1322
aS'N'
p1323
aS'NNS'
p1324
aa(lp1325
S'.'
p1326
aS'N'
p1327
aS'.'
p1328
aa(lp1329
g51
ag4
ag4
aa(lp1330
g53
ag4
ag4
aaa(lp1331
(lp1332
g3
ag4
ag4
aa(lp1333
g6
ag4
ag4
aa(lp1334
S'Electrochemical'
p1335
aS'E'
p1336
aS'JJ'
p1337
aa(lp1338
S'impedance'
p1339
aS'E'
p1340
aS'NN'
p1341
aa(lp1342
S'spectroscopy'
p1343
aS'E'
p1344
ag1341
aa(lp1345
S'(EIS)'
p1346
aS'E'
p1347
ag1341
aa(lp1348
S'was'
p1349
aS'A'
p1350
aS'VBD'
p1351
aa(lp1352
S'conducted'
p1353
aS'A'
p1354
aS'VBN'
p1355
aa(lp1356
S'with'
p1357
aS'N'
p1358
aS'IN'
p1359
aa(lp1360
S'an'
p1361
aS'N'
p1362
aS'DT'
p1363
aa(lp1364
S'Autolab'
p1365
aS'E'
p1366
aS'NNP'
p1367
aa(lp1368
S'potentiostat'
p1369
aS'E'
p1370
ag1341
aa(lp1371
S'(PGSTAT302N)'
p1372
aS'E'
p1373
ag1341
aa(lp1374
S'using'
p1375
aS'N'
p1376
aS'VBG'
p1377
aa(lp1378
S'3-electrode'
p1379
aS'E'
p1380
ag1337
aa(lp1381
S'set'
p1382
aS'E'
p1383
ag1355
aa(lp1384
S'up'
p1385
aS'E'
p1386
aS'RP'
p1387
aa(lp1388
S'(Hohsen'
p1389
aS'N'
p1390
ag1337
aa(lp1391
S'HS-3E'
p1392
aS'N'
p1393
ag1367
aa(lp1394
S'test'
p1395
aS'N'
p1396
ag1341
aa(lp1397
S'cell)'
p1398
aS'N'
p1399
ag1341
aa(lp1400
S'with'
p1401
aS'N'
p1402
ag1359
aa(lp1403
S'a'
p1404
aS'N'
p1405
aS'DT'
p1406
aa(lp1407
S'lithium'
p1408
aS'I'
p1409
ag1341
aa(lp1410
S'metal'
p1411
aS'I'
p1412
ag1341
aa(lp1413
S'foil'
p1414
aS'N'
p1415
ag1341
aa(lp1416
S'counter'
p1417
aS'N'
p1418
ag1341
aa(lp1419
S'and'
p1420
aS'N'
p1421
aS'CC'
p1422
aa(lp1423
S'reference'
p1424
aS'I'
p1425
ag1341
aa(lp1426
S'electrode'
p1427
aS'I'
p1428
ag1341
aa(lp1429
S'.'
p1430
aS'N'
p1431
aS'.'
p1432
aa(lp1433
g51
ag4
ag4
aa(lp1434
g53
ag4
ag4
aaa(lp1435
(lp1436
g3
ag4
ag4
aa(lp1437
g6
ag4
ag4
aa(lp1438
S'Frequency'
p1439
aS'P'
p1440
aS'NNP'
p1441
aa(lp1442
S'range'
p1443
aS'P'
p1444
aS'NN'
p1445
aa(lp1446
S'of'
p1447
aS'P'
p1448
aS'IN'
p1449
aa(lp1450
S'100'
p1451
aS'P'
p1452
aS'CD'
p1453
aa(lp1454
S'kHz0.01'
p1455
aS'P'
p1456
aS'NNS'
p1457
aa(lp1458
S'Hz'
p1459
aS'P'
p1460
ag1441
aa(lp1461
S'and'
p1462
aS'N'
p1463
aS'CC'
p1464
aa(lp1465
S'voltage'
p1466
aS'P'
p1467
aS'JJ'
p1468
aa(lp1469
S'amplitude'
p1470
aS'P'
p1471
ag1445
aa(lp1472
S'of'
p1473
aS'P'
p1474
ag1449
aa(lp1475
S'10'
p1476
aS'P'
p1477
aS'CD'
p1478
aa(lp1479
S'mV'
p1480
aS'P'
p1481
ag1457
aa(lp1482
S'were'
p1483
aS'A'
p1484
aS'VBD'
p1485
aa(lp1486
S'used'
p1487
aS'A'
p1488
aS'VBN'
p1489
aa(lp1490
S'.'
p1491
aS'N'
p1492
aS'.'
p1493
aa(lp1494
g51
ag4
ag4
aa(lp1495
g53
ag4
ag4
aaa.