(lp0
(lp1
(lp2
S'***START***'
p3
aS'None'
p4
ag4
aa(lp5
S'***START2***'
p6
ag4
ag4
aa(lp7
S'Electrochemical'
p8
aS'N'
p9
aS'JJ'
p10
aa(lp11
S'analysis'
p12
aS'N'
p13
aS'NN'
p14
aa(lp15
S'was'
p16
aS'N'
p17
aS'VBD'
p18
aa(lp19
S'conducted'
p20
aS'N'
p21
aS'VBN'
p22
aa(lp23
S'on'
p24
aS'N'
p25
aS'IN'
p26
aa(lp27
S'the'
p28
aS'N'
p29
aS'DT'
p30
aa(lp31
S'electrodes'
p32
aS'N'
p33
aS'NNS'
p34
aa(lp35
S'fabricated'
p36
aS'N'
p37
ag18
aa(lp38
S'as'
p39
aS'N'
p40
aS'IN'
p41
aa(lp42
S'follows'
p43
aS'N'
p44
aS'VBZ'
p45
aa(lp46
S'.'
p47
aS'N'
p48
aS'.'
p49
aa(lp50
S'***END***'
p51
ag4
ag4
aa(lp52
S'***END2***'
p53
ag4
ag4
aaa(lp54
(lp55
g3
ag4
ag4
aa(lp56
g6
ag4
ag4
aa(lp57
S'The'
p58
aS'N'
p59
aS'DT'
p60
aa(lp61
S'working'
p62
aS'PR'
p63
aS'VBG'
p64
aa(lp65
S'electrode'
p66
aS'PR'
p67
aS'NN'
p68
aa(lp69
S'(WE)'
p70
aS'PR'
p71
ag68
aa(lp72
S'was'
p73
aS'A'
p74
aS'VBD'
p75
aa(lp76
S'prepared'
p77
aS'A'
p78
aS'VBN'
p79
aa(lp80
S'using'
p81
aS'N'
p82
aS'VBG'
p83
aa(lp84
S'80%'
p85
aS'P'
p86
aS'CD'
p87
aa(lp88
S'of'
p89
aS'N'
p90
aS'IN'
p91
aa(lp92
S'the'
p93
aS'N'
p94
aS'DT'
p95
aa(lp96
S'active'
p97
aS'I'
p98
aS'JJ'
p99
aa(lp100
S'material'
p101
aS'I'
p102
ag68
aa(lp103
S','
p104
aS'N'
p105
aS','
p106
aa(lp107
S'10%'
p108
aS'P'
p109
ag87
aa(lp110
S'carbon'
p111
aS'I'
p112
ag68
aa(lp113
S'black'
p114
aS'I'
p115
aS'JJ'
p116
aa(lp117
S'(CB)'
p118
aS'I'
p119
ag68
aa(lp120
S','
p121
aS'N'
p122
ag106
aa(lp123
S'and'
p124
aS'N'
p125
aS'CC'
p126
aa(lp127
S'10%'
p128
aS'P'
p129
ag87
aa(lp130
S'polyvinylidene'
p131
aS'I'
p132
ag68
aa(lp133
S'fluoride'
p134
aS'I'
p135
aS'JJ'
p136
aa(lp137
S'(PVDF)'
p138
aS'I'
p139
aS'NNP'
p140
aa(lp141
S'binder'
p142
aS'N'
p143
ag68
aa(lp144
S'.'
p145
aS'N'
p146
aS'.'
p147
aa(lp148
g51
ag4
ag4
aa(lp149
g53
ag4
ag4
aaa(lp150
(lp151
g3
ag4
ag4
aa(lp152
g6
ag4
ag4
aa(lp153
S'Slurry'
p154
aS'PR'
p155
aS'NNP'
p156
aa(lp157
S'was'
p158
aS'A'
p159
aS'VBD'
p160
aa(lp161
S'made'
p162
aS'A'
p163
aS'VBN'
p164
aa(lp165
S'in'
p166
aS'N'
p167
aS'IN'
p168
aa(lp169
S'N-methyl-2-pyrrolidinone'
p170
aS'I'
p171
ag156
aa(lp172
S'(NMP)'
p173
aS'I'
p174
ag156
aa(lp175
S'.'
p176
aS'N'
p177
aS'.'
p178
aa(lp179
g51
ag4
ag4
aa(lp180
g53
ag4
ag4
aaa(lp181
(lp182
g3
ag4
ag4
aa(lp183
g6
ag4
ag4
aa(lp184
S'This'
p185
aS'N'
p186
aS'DT'
p187
aa(lp188
S'slurry'
p189
aS'R'
p190
aS'NN'
p191
aa(lp192
S'was'
p193
aS'A'
p194
aS'VBD'
p195
aa(lp196
S'then'
p197
aS'N'
p198
aS'RB'
p199
aa(lp200
S'uniformly'
p201
aS'A'
p202
aS'RB'
p203
aa(lp204
S'coated'
p205
aS'A'
p206
aS'VBN'
p207
aa(lp208
S'onto'
p209
aS'N'
p210
aS'IN'
p211
aa(lp212
S'a'
p213
aS'N'
p214
aS'DT'
p215
aa(lp216
S'aluminum'
p217
aS'I'
p218
ag191
aa(lp219
S'foil'
p220
aS'I'
p221
ag191
aa(lp222
S'current'
p223
aS'N'
p224
aS'JJ'
p225
aa(lp226
S'collector'
p227
aS'N'
p228
ag191
aa(lp229
S'using'
p230
aS'N'
p231
aS'VBG'
p232
aa(lp233
S'an'
p234
aS'N'
p235
aS'DT'
p236
aa(lp237
S'applicator'
p238
aS'E'
p239
ag191
aa(lp240
S'to'
p241
aS'N'
p242
aS'TO'
p243
aa(lp244
S'generate'
p245
aS'N'
p246
aS'VB'
p247
aa(lp248
S'a'
p249
aS'N'
p250
ag215
aa(lp251
S'coating'
p252
aS'N'
p253
ag191
aa(lp254
S'of'
p255
aS'N'
p256
aS'IN'
p257
aa(lp258
S'120'
p259
aS'P'
p260
aS'CD'
p261
aa(lp262
S'um'
p263
aS'P'
p264
aS'JJ'
p265
aa(lp266
S'thickness'
p267
aS'P'
p268
ag191
aa(lp269
S'.'
p270
aS'N'
p271
aS'.'
p272
aa(lp273
g51
ag4
ag4
aa(lp274
g53
ag4
ag4
aaa(lp275
(lp276
g3
ag4
ag4
aa(lp277
g6
ag4
ag4
aa(lp278
S'After'
p279
aS'N'
p280
aS'IN'
p281
aa(lp282
S'drying'
p283
aS'A'
p284
aS'VBG'
p285
aa(lp286
S'in'
p287
aS'N'
p288
aS'IN'
p289
aa(lp290
S'the'
p291
aS'N'
p292
aS'DT'
p293
aa(lp294
S'fume'
p295
aS'E'
p296
aS'NN'
p297
aa(lp298
S'hood'
p299
aS'E'
p300
ag297
aa(lp301
S'for'
p302
aS'N'
p303
aS'IN'
p304
aa(lp305
S'24'
p306
aS'P'
p307
aS'CD'
p308
aa(lp309
S'h'
p310
aS'P'
p311
ag297
aa(lp312
S','
p313
aS'N'
p314
aS','
p315
aa(lp316
S'the'
p317
aS'N'
p318
ag293
aa(lp319
S'coated'
p320
aS'R'
p321
aS'JJ'
p322
aa(lp323
S'foil'
p324
aS'R'
p325
ag297
aa(lp326
S'was'
p327
aS'A'
p328
aS'VBD'
p329
aa(lp330
S'cut'
p331
aS'A'
p332
aS'VBN'
p333
aa(lp334
S'into'
p335
aS'N'
p336
aS'IN'
p337
aa(lp338
S'0.5'
p339
aS'P'
p340
aS'CD'
p341
aa(lp342
S'in.'
p343
aS'P'
p344
ag322
aa(lp345
S'diameter'
p346
aS'P'
p347
ag297
aa(lp348
S'circles'
p349
aS'P'
p350
aS'NNS'
p351
aa(lp352
S','
p353
aS'N'
p354
ag315
aa(lp355
S'creating'
p356
aS'N'
p357
aS'VBG'
p358
aa(lp359
S'the'
p360
aS'PR'
p361
ag293
aa(lp362
S'working'
p363
aS'PR'
p364
ag285
aa(lp365
S'electrodes'
p366
aS'PR'
p367
ag351
aa(lp368
S'.'
p369
aS'N'
p370
aS'.'
p371
aa(lp372
g51
ag4
ag4
aa(lp373
g53
ag4
ag4
aaa(lp374
(lp375
g3
ag4
ag4
aa(lp376
g6
ag4
ag4
aa(lp377
S'These'
p378
aS'N'
p379
aS'DT'
p380
aa(lp381
S'electrodes'
p382
aS'R'
p383
aS'NNS'
p384
aa(lp385
S'were'
p386
aS'A'
p387
aS'VBD'
p388
aa(lp389
S'placed'
p390
aS'A'
p391
aS'VBN'
p392
aa(lp393
S'in'
p394
aS'N'
p395
aS'IN'
p396
aa(lp397
S'a'
p398
aS'N'
p399
aS'DT'
p400
aa(lp401
S'two-electrode'
p402
aS'E'
p403
aS'JJ'
p404
aa(lp405
S'coin'
p406
aS'E'
p407
aS'NN'
p408
aa(lp409
S'cell'
p410
aS'E'
p411
ag408
aa(lp412
S'using'
p413
aS'N'
p414
aS'VBG'
p415
aa(lp416
S'lithium'
p417
aS'I'
p418
ag404
aa(lp419
S'foil'
p420
aS'I'
p421
ag408
aa(lp422
S'as'
p423
aS'N'
p424
aS'IN'
p425
aa(lp426
S'the'
p427
aS'N'
p428
aS'DT'
p429
aa(lp430
S'counter'
p431
aS'N'
p432
ag408
aa(lp433
S'electrode'
p434
aS'N'
p435
ag408
aa(lp436
S'(CE)'
p437
aS'N'
p438
aS'NNP'
p439
aa(lp440
S'and'
p441
aS'N'
p442
aS'CC'
p443
aa(lp444
S'1'
p445
aS'P'
p446
aS'CD'
p447
aa(lp448
S'M'
p449
aS'P'
p450
ag439
aa(lp451
S'LiPF6'
p452
aS'I'
p453
ag439
aa(lp454
S'salt'
p455
aS'I'
p456
ag408
aa(lp457
S'in'
p458
aS'I'
p459
ag396
aa(lp460
S'ethylene'
p461
aS'I'
p462
ag404
aa(lp463
S'carbonate/diethyl'
p464
aS'I'
p465
ag408
aa(lp466
S'carbonate'
p467
aS'I'
p468
ag408
aa(lp469
S'by'
p470
aS'I'
p471
aS'IN'
p472
aa(lp473
S'volume'
p474
aS'I'
p475
aS'NN'
p476
aa(lp477
S'EC:DEC)'
p478
aS'I'
p479
ag439
aa(lp480
S'solution'
p481
aS'I'
p482
ag408
aa(lp483
S'as'
p484
aS'N'
p485
ag425
aa(lp486
S'the'
p487
aS'N'
p488
ag429
aa(lp489
S'electrolyte'
p490
aS'N'
p491
ag408
aa(lp492
S'.'
p493
aS'N'
p494
aS'.'
p495
aa(lp496
g51
ag4
ag4
aa(lp497
g53
ag4
ag4
aaa(lp498
(lp499
g3
ag4
ag4
aa(lp500
g6
ag4
ag4
aa(lp501
S'A'
p502
aS'N'
p503
aS'DT'
p504
aa(lp505
S'micro-porous'
p506
aS'I'
p507
aS'JJ'
p508
aa(lp509
S'separator'
p510
aS'I'
p511
aS'NN'
p512
aa(lp513
S'(Celgard3501)'
p514
aS'I'
p515
ag512
aa(lp516
S'was'
p517
aS'A'
p518
aS'VBD'
p519
aa(lp520
S'placed'
p521
aS'A'
p522
aS'VBN'
p523
aa(lp524
S'between'
p525
aS'P'
p526
aS'IN'
p527
aa(lp528
S'the'
p529
aS'P'
p530
aS'DT'
p531
aa(lp532
g51
ag4
ag4
aa(lp533
g53
ag4
ag4
aaa(lp534
(lp535
g3
ag4
ag4
aa(lp536
g6
ag4
ag4
aa(lp537
S'working'
p538
aS'P'
p539
aS'VBG'
p540
aa(lp541
S'and'
p542
aS'P'
p543
aS'CC'
p544
aa(lp545
S'counter'
p546
aS'N'
p547
aS'JJ'
p548
aa(lp549
S'electrodes'
p550
aS'P'
p551
aS'NNS'
p552
aa(lp553
S'.'
p554
aS'N'
p555
aS'.'
p556
aa(lp557
g51
ag4
ag4
aa(lp558
g53
ag4
ag4
aaa(lp559
(lp560
g3
ag4
ag4
aa(lp561
g6
ag4
ag4
aa(lp562
S'NaFePO4'
p563
aS'I'
p564
aS'NNP'
p565
aa(lp566
S'annealed'
p567
aS'A'
p568
aS'VBD'
p569
aa(lp570
S'in'
p571
aS'N'
p572
aS'IN'
p573
aa(lp574
S'Ar'
p575
aS'P'
p576
ag565
aa(lp577
S'at'
p578
aS'N'
p579
aS'IN'
p580
aa(lp581
S'600'
p582
aS'P'
p583
aS'CD'
p584
aa(lp585
S'C'
p586
aS'P'
p587
ag565
aa(lp588
S'have'
p589
aS'N'
p590
aS'VBP'
p591
aa(lp592
S'been'
p593
aS'A'
p594
aS'VBN'
p595
aa(lp596
S'used'
p597
aS'A'
p598
aS'VBN'
p599
aa(lp600
S'to'
p601
aS'N'
p602
aS'TO'
p603
aa(lp604
S'test'
p605
aS'P'
p606
aS'VB'
p607
aa(lp608
S'the'
p609
aS'N'
p610
aS'DT'
p611
aa(lp612
S'electrochemical'
p613
aS'N'
p614
aS'JJ'
p615
aa(lp616
S'properties'
p617
aS'N'
p618
aS'NNS'
p619
aa(lp620
S'.'
p621
aS'N'
p622
aS'.'
p623
aa(lp624
g51
ag4
ag4
aa(lp625
g53
ag4
ag4
aaa(lp626
(lp627
g3
ag4
ag4
aa(lp628
g6
ag4
ag4
aa(lp629
S'The'
p630
aS'N'
p631
aS'DT'
p632
aa(lp633
S'battery'
p634
aS'E'
p635
aS'NN'
p636
aa(lp637
S'cycle'
p638
aS'E'
p639
aS'NN'
p640
aa(lp641
S'tests'
p642
aS'E'
p643
aS'NNS'
p644
aa(lp645
S'were'
p646
aS'A'
p647
aS'VBD'
p648
aa(lp649
S'performed'
p650
aS'A'
p651
aS'VBN'
p652
aa(lp653
S'between'
p654
aS'P'
p655
aS'IN'
p656
aa(lp657
S'2'
p658
aS'P'
p659
aS'CD'
p660
aa(lp661
S'V'
p662
aS'P'
p663
aS'NNP'
p664
aa(lp665
S'and'
p666
aS'P'
p667
aS'CC'
p668
aa(lp669
S'4'
p670
aS'P'
p671
aS'CD'
p672
aa(lp673
S'V'
p674
aS'P'
p675
ag664
aa(lp676
S'using'
p677
aS'N'
p678
aS'VBG'
p679
aa(lp680
S'the'
p681
aS'N'
p682
aS'DT'
p683
aa(lp684
S'Solartron'
p685
aS'E'
p686
ag664
aa(lp687
S'and'
p688
aS'N'
p689
ag668
aa(lp690
S'Arbin'
p691
aS'E'
p692
ag664
aa(lp693
S'battery'
p694
aS'E'
p695
ag636
aa(lp696
S'test'
p697
aS'E'
p698
ag636
aa(lp699
S'stations'
p700
aS'E'
p701
ag644
aa(lp702
S'.'
p703
aS'N'
p704
aS'.'
p705
aa(lp706
g51
ag4
ag4
aa(lp707
g53
ag4
ag4
aaa(lp708
(lp709
g3
ag4
ag4
aa(lp710
g6
ag4
ag4
aa(lp711
S'Cyclic'
p712
aS'E'
p713
aS'JJ'
p714
aa(lp715
S'voltammetry'
p716
aS'E'
p717
aS'NN'
p718
aa(lp719
S'at'
p720
aS'N'
p721
aS'IN'
p722
aa(lp723
S'a'
p724
aS'N'
p725
aS'DT'
p726
aa(lp727
S'rate'
p728
aS'N'
p729
aS'NN'
p730
aa(lp731
S'of'
p732
aS'N'
p733
aS'IN'
p734
aa(lp735
S'0.1'
p736
aS'P'
p737
aS'CD'
p738
aa(lp739
S'mV/s'
p740
aS'P'
p741
ag718
aa(lp742
S'was'
p743
aS'A'
p744
aS'VBD'
p745
aa(lp746
S'performed'
p747
aS'A'
p748
aS'VBN'
p749
aa(lp750
S'using'
p751
aS'N'
p752
aS'VBG'
p753
aa(lp754
S'the'
p755
aS'N'
p756
aS'DT'
p757
aa(lp758
S'Solartron'
p759
aS'E'
p760
aS'NNP'
p761
aa(lp762
S'unit'
p763
aS'E'
p764
aS'NN'
p765
aa(lp766
g51
ag4
ag4
aa(lp767
g53
ag4
ag4
aaa(lp768
(lp769
g3
ag4
ag4
aa(lp770
g6
ag4
ag4
aa(lp771
S'Two'
p772
aS'N'
p773
aS'CD'
p774
aa(lp775
S'separate'
p776
aS'N'
p777
aS'JJ'
p778
aa(lp779
S'current'
p780
aS'N'
p781
aS'JJ'
p782
aa(lp783
S'rates'
p784
aS'N'
p785
aS'NNS'
p786
aa(lp787
S'5'
p788
aS'P'
p789
aS'CD'
p790
aa(lp791
S'mA'
p792
aS'P'
p793
aS'NN'
p794
aa(lp795
S'and'
p796
aS'N'
p797
aS'CC'
p798
aa(lp799
S'20'
p800
aS'P'
p801
aS'CD'
p802
aa(lp803
S'mA'
p804
aS'P'
p805
ag794
aa(lp806
S'were'
p807
aS'A'
p808
aS'VBD'
p809
aa(lp810
S'used'
p811
aS'A'
p812
aS'VBN'
p813
aa(lp814
S'to'
p815
aS'N'
p816
aS'TO'
p817
aa(lp818
S'charge/discharge'
p819
aS'P'
p820
aS'VB'
p821
aa(lp822
S'the'
p823
aS'N'
p824
aS'DT'
p825
aa(lp826
S'cells'
p827
aS'R'
p828
aS'NNS'
p829
aa(lp830
S'.'
p831
aS'N'
p832
aS'.'
p833
aa(lp834
g51
ag4
ag4
aa(lp835
g53
ag4
ag4
aaa(lp836
(lp837
g3
ag4
ag4
aa(lp838
g6
ag4
ag4
aa(lp839
S'The'
p840
aS'N'
p841
aS'DT'
p842
aa(lp843
S'electrochemical'
p844
aS'E'
p845
aS'JJ'
p846
aa(lp847
S'impedance'
p848
aS'E'
p849
aS'NN'
p850
aa(lp851
S'spectroscopy'
p852
aS'E'
p853
ag850
aa(lp854
S'(EIS)'
p855
aS'E'
p856
ag850
aa(lp857
S'measurements'
p858
aS'E'
p859
aS'NNS'
p860
aa(lp861
S'were'
p862
aS'A'
p863
aS'VBD'
p864
aa(lp865
S'performed'
p866
aS'A'
p867
aS'VBN'
p868
aa(lp869
S'after'
p870
aS'N'
p871
aS'IN'
p872
aa(lp873
S'the'
p874
aS'N'
p875
aS'DT'
p876
aa(lp877
S'electrode'
p878
aS'N'
p879
ag850
aa(lp880
S'reached'
p881
aS'N'
p882
aS'VBD'
p883
aa(lp884
S'the'
p885
aS'N'
p886
ag876
aa(lp887
S'end'
p888
aS'N'
p889
ag850
aa(lp890
S'of'
p891
aS'N'
p892
aS'IN'
p893
aa(lp894
S'each'
p895
aS'N'
p896
aS'DT'
p897
aa(lp898
S'charge'
p899
aS'N'
p900
ag850
aa(lp901
S'and'
p902
aS'N'
p903
aS'CC'
p904
aa(lp905
S'discharge'
p906
aS'N'
p907
ag850
aa(lp908
S'states'
p909
aS'N'
p910
ag860
aa(lp911
S'.'
p912
aS'N'
p913
aS'.'
p914
aa(lp915
g51
ag4
ag4
aa(lp916
g53
ag4
ag4
aaa(lp917
(lp918
g3
ag4
ag4
aa(lp919
g6
ag4
ag4
aa(lp920
S'The'
p921
aS'N'
p922
aS'DT'
p923
aa(lp924
S'measurements'
p925
aS'E'
p926
aS'NNS'
p927
aa(lp928
S'were'
p929
aS'A'
p930
aS'VBD'
p931
aa(lp932
S'taken'
p933
aS'A'
p934
aS'VBN'
p935
aa(lp936
S'over'
p937
aS'N'
p938
aS'RP'
p939
aa(lp940
S'a'
p941
aS'N'
p942
aS'DT'
p943
aa(lp944
S'range'
p945
aS'N'
p946
aS'NN'
p947
aa(lp948
S'of'
p949
aS'N'
p950
aS'IN'
p951
aa(lp952
S'1000'
p953
aS'P'
p954
aS'CD'
p955
aa(lp956
S'kHz'
p957
aS'P'
p958
ag947
aa(lp959
S'to'
p960
aS'P'
p961
aS'TO'
p962
aa(lp963
S'1'
p964
aS'P'
p965
aS'CD'
p966
aa(lp967
S'MHz'
p968
aS'P'
p969
aS'NNP'
p970
aa(lp971
S'with'
p972
aS'N'
p973
aS'IN'
p974
aa(lp975
S'AC'
p976
aS'N'
p977
ag970
aa(lp978
S'amplitude'
p979
aS'N'
p980
ag947
aa(lp981
S'of'
p982
aS'N'
p983
ag951
aa(lp984
S'10'
p985
aS'P'
p986
aS'CD'
p987
aa(lp988
S'mV'
p989
aS'P'
p990
ag927
aa(lp991
S'using'
p992
aS'N'
p993
aS'VBG'
p994
aa(lp995
S'a'
p996
aS'N'
p997
ag943
aa(lp998
S'Solartron'
p999
aS'E'
p1000
ag970
aa(lp1001
S'analyzer'
p1002
aS'E'
p1003
ag947
aa(lp1004
S'.'
p1005
aS'N'
p1006
aS'.'
p1007
aa(lp1008
g51
ag4
ag4
aa(lp1009
g53
ag4
ag4
aaa.