(lp0
(lp1
(lp2
S'***START***'
p3
aS'None'
p4
ag4
aa(lp5
S'***START2***'
p6
ag4
ag4
aa(lp7
S'A'
p8
aS'N'
p9
aS'DT'
p10
aa(lp11
S'commercially'
p12
aS'N'
p13
aS'RB'
p14
aa(lp15
S'available'
p16
aS'N'
p17
aS'JJ'
p18
aa(lp19
S'Sigraphene'
p20
aS'I'
p21
aS'NNP'
p22
aa(lp23
S'composite'
p24
aS'I'
p25
aS'JJ'
p26
aa(lp27
S'(XG-SiG'
p28
aS'N'
p29
aS'NN'
p30
aa(lp31
S','
p32
aS'N'
p33
aS','
p34
aa(lp35
S'supplied'
p36
aS'N'
p37
aS'VBN'
p38
aa(lp39
S'by'
p40
aS'N'
p41
aS'IN'
p42
aa(lp43
S'XG'
p44
aS'N'
p45
ag22
aa(lp46
S'Sciences,'
p47
aS'N'
p48
ag22
aa(lp49
S'Inc.)'
p50
aS'N'
p51
ag22
aa(lp52
S'was'
p53
aS'A'
p54
aS'VBD'
p55
aa(lp56
S'used'
p57
aS'A'
p58
ag38
aa(lp59
S'for'
p60
aS'N'
p61
aS'IN'
p62
aa(lp63
S'the'
p64
aS'N'
p65
aS'DT'
p66
aa(lp67
S'anode'
p68
aS'N'
p69
ag30
aa(lp70
S'.'
p71
aS'N'
p72
aS'.'
p73
aa(lp74
S'***END***'
p75
ag4
ag4
aa(lp76
S'***END2***'
p77
ag4
ag4
aaa(lp78
(lp79
g3
ag4
ag4
aa(lp80
g6
ag4
ag4
aa(lp81
S'The'
p82
aS'N'
p83
aS'DT'
p84
aa(lp85
S'active'
p86
aS'PR'
p87
aS'JJ'
p88
aa(lp89
S'material'
p90
aS'PR'
p91
aS'NN'
p92
aa(lp93
S'was'
p94
aS'A'
p95
aS'VBD'
p96
aa(lp97
S'composed'
p98
aS'A'
p99
aS'VBN'
p100
aa(lp101
S'of'
p102
aS'N'
p103
aS'IN'
p104
aa(lp105
S'nano'
p106
aS'P'
p107
aS'JJ'
p108
aa(lp109
S'Si'
p110
aS'I'
p111
aS'NNP'
p112
aa(lp113
S'particles'
p114
aS'I'
p115
aS'NNS'
p116
aa(lp117
S'and'
p118
aS'N'
p119
aS'CC'
p120
aa(lp121
S'nano-sized'
p122
aS'P'
p123
ag108
aa(lp124
S'plate-like'
p125
aS'P'
p126
ag108
aa(lp127
S'multi-layer'
p128
aS'P'
p129
ag108
aa(lp130
S'graphene'
p131
aS'I'
p132
ag92
aa(lp133
S'(xGnP)'
p134
aS'N'
p135
ag92
aa(lp136
S'.'
p137
aS'N'
p138
aS'.'
p139
aa(lp140
g75
ag4
ag4
aa(lp141
g77
ag4
ag4
aaa(lp142
(lp143
g3
ag4
ag4
aa(lp144
g6
ag4
ag4
aa(lp145
S'To'
p146
aS'N'
p147
aS'TO'
p148
aa(lp149
S'make'
p150
aS'N'
p151
aS'VB'
p152
aa(lp153
S'the'
p154
aS'N'
p155
aS'DT'
p156
aa(lp157
S'slurry'
p158
aS'PR'
p159
aS'NN'
p160
aa(lp161
S'of'
p162
aS'N'
p163
aS'IN'
p164
aa(lp165
S'adhesive'
p166
aS'N'
p167
aS'JJ'
p168
aa(lp169
S'and'
p170
aS'N'
p171
aS'CC'
p172
aa(lp173
S'conductive'
p174
aS'N'
p175
ag168
aa(lp176
S'anode'
p177
aS'N'
p178
ag160
aa(lp179
S'material'
p180
aS'N'
p181
ag160
aa(lp182
S','
p183
aS'N'
p184
aS','
p185
aa(lp186
S'the'
p187
aS'N'
p188
ag156
aa(lp189
S'nano-sized'
p190
aS'R'
p191
ag168
aa(lp192
S'active'
p193
aS'R'
p194
aS'JJ'
p195
aa(lp196
S'material'
p197
aS'R'
p198
ag160
aa(lp199
S'was'
p200
aS'A'
p201
aS'VBD'
p202
aa(lp203
S'combined'
p204
aS'A'
p205
aS'VBN'
p206
aa(lp207
S'with'
p208
aS'N'
p209
aS'IN'
p210
aa(lp211
S'polyacrylic'
p212
aS'I'
p213
ag168
aa(lp214
S'acid'
p215
aS'I'
p216
aS'NNS'
p217
aa(lp218
S'(PAA)'
p219
aS'I'
p220
ag168
aa(lp221
S'binder'
p222
aS'N'
p223
ag160
aa(lp224
S'(Sigma'
p225
aS'N'
p226
ag160
aa(lp227
S'Aldrich,'
p228
aS'N'
p229
aS'NNP'
p230
aa(lp231
S'Mv:'
p232
aS'N'
p233
ag230
aa(lp234
S'450,000'
p235
aS'P'
p236
aS'CD'
p237
aa(lp238
S'g'
p239
aS'P'
p240
ag160
aa(lp241
S'mol1)'
p242
aS'P'
p243
ag160
aa(lp244
S','
p245
aS'N'
p246
ag185
aa(lp247
S'carbon'
p248
aS'I'
p249
ag160
aa(lp250
S'black'
p251
aS'I'
p252
aS'JJ'
p253
aa(lp254
S'conductive'
p255
aS'N'
p256
ag168
aa(lp257
S'agent'
p258
aS'N'
p259
ag160
aa(lp260
S','
p261
aS'N'
p262
ag185
aa(lp263
S'and'
p264
aS'N'
p265
ag172
aa(lp266
S'conductive'
p267
aS'N'
p268
ag168
aa(lp269
S'additive'
p270
aS'N'
p271
ag160
aa(lp272
S'of'
p273
aS'N'
p274
ag164
aa(lp275
S'micro-sized'
p276
aS'P'
p277
ag168
aa(lp278
S'multi-layer'
p279
aS'P'
p280
ag168
aa(lp281
S'granular'
p282
aS'P'
p283
ag168
aa(lp284
S'graphene'
p285
aS'I'
p286
ag160
aa(lp287
S'(xGnP)'
p288
aS'N'
p289
ag160
aa(lp290
S'with'
p291
aS'N'
p292
ag210
aa(lp293
S'very'
p294
aS'N'
p295
aS'RB'
p296
aa(lp297
S'high'
p298
aS'P'
p299
ag168
aa(lp300
S'conductivity'
p301
aS'P'
p302
ag160
aa(lp303
S'of'
p304
aS'P'
p305
ag164
aa(lp306
S'107'
p307
aS'P'
p308
ag237
aa(lp309
S'S'
p310
aS'P'
p311
ag230
aa(lp312
S'm1'
p313
aS'P'
p314
ag160
aa(lp315
S','
p316
aS'N'
p317
ag185
aa(lp318
S'and'
p319
aS'N'
p320
ag172
aa(lp321
S'PGME'
p322
aS'I'
p323
ag230
aa(lp324
S'solvent'
p325
aS'I'
p326
ag160
aa(lp327
S'(Propyleneglycol'
p328
aS'I'
p329
ag230
aa(lp330
S'monomethyl'
p331
aS'I'
p332
ag160
aa(lp333
S'ether)'
p334
aS'I'
p335
ag160
aa(lp336
S','
p337
aS'N'
p338
ag185
aa(lp339
S'Sigma'
p340
aS'N'
p341
ag230
aa(lp342
S'Aldrich)'
p343
aS'N'
p344
ag230
aa(lp345
S'.'
p346
aS'N'
p347
aS'.'
p348
aa(lp349
g75
ag4
ag4
aa(lp350
g77
ag4
ag4
aaa(lp351
(lp352
g3
ag4
ag4
aa(lp353
g6
ag4
ag4
aa(lp354
S'After'
p355
aS'N'
p356
aS'IN'
p357
aa(lp358
S'mixing'
p359
aS'A'
p360
aS'VBG'
p361
aa(lp362
S'the'
p363
aS'N'
p364
aS'DT'
p365
aa(lp366
S'slurry'
p367
aS'R'
p368
aS'NN'
p369
aa(lp370
S'by'
p371
aS'N'
p372
aS'IN'
p373
aa(lp374
S'sonication'
p375
aS'P'
p376
ag369
aa(lp377
S'and'
p378
aS'N'
p379
aS'CC'
p380
aa(lp381
S'stirring'
p382
aS'A'
p383
ag361
aa(lp384
S'with'
p385
aS'N'
p386
aS'IN'
p387
aa(lp388
S'magnetic'
p389
aS'E'
p390
aS'JJ'
p391
aa(lp392
S'bar'
p393
aS'E'
p394
ag369
aa(lp395
S'in'
p396
aS'N'
p397
aS'IN'
p398
aa(lp399
S'a'
p400
aS'N'
p401
aS'DT'
p402
aa(lp403
S'jar'
p404
aS'E'
p405
ag369
aa(lp406
S','
p407
aS'N'
p408
aS','
p409
aa(lp410
S'the'
p411
aS'N'
p412
ag365
aa(lp413
S'slurry'
p414
aS'R'
p415
ag369
aa(lp416
S'was'
p417
aS'A'
p418
aS'VBD'
p419
aa(lp420
S'coated'
p421
aS'A'
p422
aS'VBN'
p423
aa(lp424
S'on'
p425
aS'N'
p426
aS'IN'
p427
aa(lp428
S'a'
p429
aS'N'
p430
ag402
aa(lp431
S'10'
p432
aS'P'
p433
aS'CD'
p434
aa(lp435
S'm'
p436
aS'P'
p437
ag369
aa(lp438
S'Cu'
p439
aS'I'
p440
aS'NNP'
p441
aa(lp442
S'foil'
p443
aS'I'
p444
ag369
aa(lp445
S'using'
p446
aS'N'
p447
aS'VBG'
p448
aa(lp449
S'a'
p450
aS'N'
p451
ag402
aa(lp452
S'doctor'
p453
aS'E'
p454
ag369
aa(lp455
S'blade'
p456
aS'E'
p457
ag369
aa(lp458
S'.'
p459
aS'N'
p460
aS'.'
p461
aa(lp462
g75
ag4
ag4
aa(lp463
g77
ag4
ag4
aaa(lp464
(lp465
g3
ag4
ag4
aa(lp466
g6
ag4
ag4
aa(lp467
S'The'
p468
aS'N'
p469
aS'DT'
p470
aa(lp471
S'slurry'
p472
aS'R'
p473
aS'NN'
p474
aa(lp475
S'coated'
p476
aS'R'
p477
aS'VBD'
p478
aa(lp479
S'on'
p480
aS'R'
p481
aS'IN'
p482
aa(lp483
S'Cu'
p484
aS'R'
p485
aS'NNP'
p486
aa(lp487
S'foil'
p488
aS'R'
p489
ag474
aa(lp490
S'was'
p491
aS'A'
p492
ag478
aa(lp493
S'dried'
p494
aS'A'
p495
aS'VBN'
p496
aa(lp497
S'for'
p498
aS'N'
p499
aS'IN'
p500
aa(lp501
S'1'
p502
aS'P'
p503
aS'CD'
p504
aa(lp505
S'h'
p506
aS'P'
p507
ag474
aa(lp508
S'at'
p509
aS'N'
p510
aS'IN'
p511
aa(lp512
S'a'
p513
aS'N'
p514
aS'DT'
p515
aa(lp516
S'room'
p517
aS'P'
p518
aS'NN'
p519
aa(lp520
S'temperature'
p521
aS'P'
p522
ag474
aa(lp523
S'and'
p524
aS'N'
p525
aS'CC'
p526
aa(lp527
S'then'
p528
aS'N'
p529
aS'RB'
p530
aa(lp531
S'in'
p532
aS'N'
p533
aS'IN'
p534
aa(lp535
S'a'
p536
aS'N'
p537
ag515
aa(lp538
S'vacuum'
p539
aS'E'
p540
ag474
aa(lp541
S'oven'
p542
aS'E'
p543
ag474
aa(lp544
S'of'
p545
aS'N'
p546
aS'IN'
p547
aa(lp548
S'80'
p549
aS'P'
p550
aS'CD'
p551
aa(lp552
S'C'
p553
aS'P'
p554
ag486
aa(lp555
S'for'
p556
aS'N'
p557
ag500
aa(lp558
S'overnight'
p559
aS'P'
p560
aS'JJ'
p561
aa(lp562
S'.'
p563
aS'N'
p564
aS'.'
p565
aa(lp566
g75
ag4
ag4
aa(lp567
g77
ag4
ag4
aaa(lp568
(lp569
g3
ag4
ag4
aa(lp570
g6
ag4
ag4
aa(lp571
S'The'
p572
aS'N'
p573
aS'DT'
p574
aa(lp575
S'active'
p576
aS'PR'
p577
aS'JJ'
p578
aa(lp579
S'loading'
p580
aS'PR'
p581
aS'NN'
p582
aa(lp583
S'was'
p584
aS'A'
p585
aS'VBD'
p586
aa(lp587
S'between'
p588
aS'P'
p589
aS'IN'
p590
aa(lp591
S'1.64'
p592
aS'P'
p593
aS'CD'
p594
aa(lp595
S'and'
p596
aS'P'
p597
aS'CC'
p598
aa(lp599
S'1.66'
p600
aS'P'
p601
ag594
aa(lp602
S'mg'
p603
aS'P'
p604
ag582
aa(lp605
S'cm2'
p606
aS'P'
p607
ag582
aa(lp608
S'.'
p609
aS'N'
p610
aS'.'
p611
aa(lp612
g75
ag4
ag4
aa(lp613
g77
ag4
ag4
aaa(lp614
(lp615
g3
ag4
ag4
aa(lp616
g6
ag4
ag4
aa(lp617
S'The'
p618
aS'N'
p619
aS'DT'
p620
aa(lp621
S'theoretical'
p622
aS'PR'
p623
aS'JJ'
p624
aa(lp625
S'capacity'
p626
aS'PR'
p627
aS'NN'
p628
aa(lp629
S'was'
p630
aS'A'
p631
aS'VBD'
p632
aa(lp633
S'calculated'
p634
aS'A'
p635
aS'VBN'
p636
aa(lp637
S'to'
p638
aS'N'
p639
aS'TO'
p640
aa(lp641
S'2968'
p642
aS'P'
p643
aS'CD'
p644
aa(lp645
S'mAh'
p646
aS'P'
p647
aS'NN'
p648
aa(lp649
S'g1'
p650
aS'P'
p651
aS'NNS'
p652
aa(lp653
S'based'
p654
aS'P'
p655
aS'VBN'
p656
aa(lp657
S'on'
p658
aS'N'
p659
aS'IN'
p660
aa(lp661
S'the'
p662
aS'N'
p663
aS'DT'
p664
aa(lp665
S'individual'
p666
aS'P'
p667
ag624
aa(lp668
S'theoretical'
p669
aS'P'
p670
ag624
aa(lp671
S'capacities'
p672
aS'P'
p673
ag652
aa(lp674
S'of'
p675
aS'P'
p676
aS'IN'
p677
aa(lp678
S'Si'
p679
aS'P'
p680
aS'NNP'
p681
aa(lp682
S'and'
p683
aS'P'
p684
aS'CC'
p685
aa(lp686
S'carbon'
p687
aS'P'
p688
ag648
aa(lp689
S'materials'
p690
aS'N'
p691
aS'NNS'
p692
aa(lp693
S'(Si:'
p694
aS'P'
p695
aS'VBP'
p696
aa(lp697
S'4200'
p698
aS'P'
p699
ag644
aa(lp700
S'mAh'
p701
aS'P'
p702
ag648
aa(lp703
S'g1'
p704
aS'P'
p705
ag652
aa(lp706
S','
p707
aS'N'
p708
aS','
p709
aa(lp710
S'Carbon:'
p711
aS'P'
p712
ag681
aa(lp713
S'372'
p714
aS'P'
p715
ag644
aa(lp716
S'mAh'
p717
aS'P'
p718
ag648
aa(lp719
S'g1)'
p720
aS'P'
p721
ag648
aa(lp722
S'.'
p723
aS'N'
p724
aS'.'
p725
aa(lp726
g75
ag4
ag4
aa(lp727
g77
ag4
ag4
aaa(lp728
(lp729
g3
ag4
ag4
aa(lp730
g6
ag4
ag4
aa(lp731
S'The'
p732
aS'N'
p733
aS'DT'
p734
aa(lp735
S'density'
p736
aS'N'
p737
aS'NN'
p738
aa(lp739
S'of'
p740
aS'N'
p741
aS'IN'
p742
aa(lp743
S'material'
p744
aS'N'
p745
ag738
aa(lp746
S'was'
p747
aS'N'
p748
aS'VBD'
p749
aa(lp750
S'between'
p751
aS'N'
p752
aS'IN'
p753
aa(lp754
S'0.63'
p755
aS'N'
p756
aS'CD'
p757
aa(lp758
S'and'
p759
aS'N'
p760
aS'CC'
p761
aa(lp762
S'0.70'
p763
aS'N'
p764
ag757
aa(lp765
S'g'
p766
aS'N'
p767
ag738
aa(lp768
S'cm3'
p769
aS'N'
p770
ag738
aa(lp771
S'without'
p772
aS'N'
p773
aS'IN'
p774
aa(lp775
S'calendaring'
p776
aS'N'
p777
aS'VBG'
p778
aa(lp779
S'.'
p780
aS'N'
p781
aS'.'
p782
aa(lp783
g75
ag4
ag4
aa(lp784
g77
ag4
ag4
aaa(lp785
(lp786
g3
ag4
ag4
aa(lp787
g6
ag4
ag4
aa(lp788
S'An'
p789
aS'N'
p790
aS'DT'
p791
aa(lp792
S'active'
p793
aS'I'
p794
aS'JJ'
p795
aa(lp796
S'material'
p797
aS'I'
p798
aS'NN'
p799
aa(lp800
S'of'
p801
aS'N'
p802
aS'IN'
p803
aa(lp804
S'NCA'
p805
aS'I'
p806
aS'NNP'
p807
aa(lp808
S'was'
p809
aS'A'
p810
aS'VBD'
p811
aa(lp812
S'used'
p813
aS'A'
p814
aS'VBN'
p815
aa(lp816
S'for'
p817
aS'N'
p818
aS'IN'
p819
aa(lp820
S'a'
p821
aS'N'
p822
aS'DT'
p823
aa(lp824
S'cathode'
p825
aS'N'
p826
ag799
aa(lp827
S'with'
p828
aS'N'
p829
aS'IN'
p830
aa(lp831
S'a'
p832
aS'N'
p833
ag823
aa(lp834
S'graphitic'
p835
aS'I'
p836
aS'JJ'
p837
aa(lp838
S'carbon'
p839
aS'I'
p840
ag799
aa(lp841
S'conductive'
p842
aS'N'
p843
ag837
aa(lp844
S'additive'
p845
aS'N'
p846
ag799
aa(lp847
S'and'
p848
aS'N'
p849
aS'CC'
p850
aa(lp851
S'polyvinylidenefluoride'
p852
aS'I'
p853
ag837
aa(lp854
S'(PVdF)'
p855
aS'I'
p856
ag807
aa(lp857
S'binder'
p858
aS'N'
p859
ag799
aa(lp860
S'.'
p861
aS'N'
p862
aS'.'
p863
aa(lp864
g75
ag4
ag4
aa(lp865
g77
ag4
ag4
aaa(lp866
(lp867
g3
ag4
ag4
aa(lp868
g6
ag4
ag4
aa(lp869
S'All'
p870
aS'N'
p871
aS'DT'
p872
aa(lp873
S'half'
p874
aS'PR'
p875
aS'JJ'
p876
aa(lp877
S'cells'
p878
aS'PR'
p879
aS'NNS'
p880
aa(lp881
S'were'
p882
aS'A'
p883
aS'VBD'
p884
aa(lp885
S'assembled'
p886
aS'A'
p887
aS'VBN'
p888
aa(lp889
S'as'
p890
aS'N'
p891
aS'IN'
p892
aa(lp893
S'2032'
p894
aS'E'
p895
aS'CD'
p896
aa(lp897
S'coin'
p898
aS'E'
p899
aS'NN'
p900
aa(lp901
S'cells'
p902
aS'E'
p903
ag880
aa(lp904
S','
p905
aS'N'
p906
aS','
p907
aa(lp908
S'and'
p909
aS'N'
p910
aS'CC'
p911
aa(lp912
S'all'
p913
aS'N'
p914
ag872
aa(lp915
S'full'
p916
aS'PR'
p917
aS'JJ'
p918
aa(lp919
S'cells'
p920
aS'PR'
p921
ag880
aa(lp922
S'were'
p923
aS'A'
p924
ag884
aa(lp925
S'fabricated'
p926
aS'A'
p927
ag888
aa(lp928
S'as'
p929
aS'N'
p930
ag892
aa(lp931
S'pouch-type'
p932
aS'E'
p933
ag876
aa(lp934
S'cells'
p935
aS'E'
p936
ag880
aa(lp937
S'with'
p938
aS'N'
p939
aS'IN'
p940
aa(lp941
S'an'
p942
aS'N'
p943
ag872
aa(lp944
S'active'
p945
aS'P'
p946
aS'JJ'
p947
aa(lp948
S'area'
p949
aS'P'
p950
aS'NN'
p951
aa(lp952
S'of'
p953
aS'P'
p954
aS'IN'
p955
aa(lp956
S'9'
p957
aS'P'
p958
aS'CD'
p959
aa(lp960
S'cm2'
p961
aS'P'
p962
ag900
aa(lp963
S'.'
p964
aS'N'
p965
aS'.'
p966
aa(lp967
g75
ag4
ag4
aa(lp968
g77
ag4
ag4
aaa(lp969
(lp970
g3
ag4
ag4
aa(lp971
g6
ag4
ag4
aa(lp972
S'The'
p973
aS'N'
p974
aS'DT'
p975
aa(lp976
S'composition'
p977
aS'N'
p978
aS'NN'
p979
aa(lp980
S'of'
p981
aS'N'
p982
aS'IN'
p983
aa(lp984
S'electrolyte'
p985
aS'PR'
p986
ag979
aa(lp987
S'was'
p988
aS'A'
p989
aS'VBD'
p990
aa(lp991
S'EC:'
p992
aS'I'
p993
aS'NNP'
p994
aa(lp995
S'DEC'
p996
aS'I'
p997
ag994
aa(lp998
S'='
p999
aS'N'
p1000
ag990
aa(lp1001
S'1:1'
p1002
aS'P'
p1003
aS'CD'
p1004
aa(lp1005
S'(w/w)'
p1006
aS'P'
p1007
ag979
aa(lp1008
S'with'
p1009
aS'N'
p1010
aS'IN'
p1011
aa(lp1012
S'1'
p1013
aS'P'
p1014
aS'CD'
p1015
aa(lp1016
S'M'
p1017
aS'P'
p1018
ag994
aa(lp1019
S'LiPF6'
p1020
aS'I'
p1021
ag994
aa(lp1022
S'with/without'
p1023
aS'N'
p1024
aS'IN'
p1025
aa(lp1026
S'10'
p1027
aS'P'
p1028
aS'CD'
p1029
aa(lp1030
S'wt.%'
p1031
aS'P'
p1032
aS'JJ'
p1033
aa(lp1034
S'FEC'
p1035
aS'I'
p1036
ag994
aa(lp1037
S'.'
p1038
aS'N'
p1039
aS'.'
p1040
aa(lp1041
g75
ag4
ag4
aa(lp1042
g77
ag4
ag4
aaa(lp1043
(lp1044
g3
ag4
ag4
aa(lp1045
g6
ag4
ag4
aa(lp1046
S'The'
p1047
aS'N'
p1048
aS'DT'
p1049
aa(lp1050
S'loadings'
p1051
aS'PR'
p1052
aS'NNS'
p1053
aa(lp1054
S'of'
p1055
aS'N'
p1056
aS'IN'
p1057
aa(lp1058
S'active'
p1059
aS'R'
p1060
aS'JJ'
p1061
aa(lp1062
S'material'
p1063
aS'R'
p1064
aS'NN'
p1065
aa(lp1066
S'(anode:cathode)'
p1067
aS'P'
p1068
ag1065
aa(lp1069
S'were'
p1070
aS'A'
p1071
aS'VBD'
p1072
aa(lp1073
S'0.00263'
p1074
aS'P'
p1075
aS'CD'
p1076
aa(lp1077
S'g:0.0230'
p1078
aS'P'
p1079
ag1065
aa(lp1080
S'g'
p1081
aS'P'
p1082
ag1065
aa(lp1083
S'and'
p1084
aS'N'
p1085
aS'CC'
p1086
aa(lp1087
S'0.0141'
p1088
aS'P'
p1089
ag1076
aa(lp1090
S'g:0.131'
p1091
aS'P'
p1092
ag1065
aa(lp1093
S'g'
p1094
aS'P'
p1095
ag1065
aa(lp1096
S'in'
p1097
aS'N'
p1098
aS'IN'
p1099
aa(lp1100
S'a'
p1101
aS'N'
p1102
aS'DT'
p1103
aa(lp1104
S'coin'
p1105
aS'R'
p1106
ag1065
aa(lp1107
S'and'
p1108
aS'N'
p1109
ag1086
aa(lp1110
S'pouch'
p1111
aS'R'
p1112
aS'JJ'
p1113
aa(lp1114
S'cell'
p1115
aS'R'
p1116
ag1065
aa(lp1117
S','
p1118
aS'N'
p1119
aS','
p1120
aa(lp1121
S'respectively'
p1122
aS'N'
p1123
aS'RB'
p1124
aa(lp1125
S'.'
p1126
aS'N'
p1127
aS'.'
p1128
aa(lp1129
g75
ag4
ag4
aa(lp1130
g77
ag4
ag4
aaa(lp1131
(lp1132
g3
ag4
ag4
aa(lp1133
g6
ag4
ag4
aa(lp1134
S'Hence,'
p1135
aS'N'
p1136
aS'NNP'
p1137
aa(lp1138
S'the'
p1139
aS'N'
p1140
aS'DT'
p1141
aa(lp1142
S'design'
p1143
aS'N'
p1144
aS'NN'
p1145
aa(lp1146
S'capacity'
p1147
aS'N'
p1148
aS'NN'
p1149
aa(lp1150
S'of'
p1151
aS'N'
p1152
aS'IN'
p1153
aa(lp1154
S'anode'
p1155
aS'N'
p1156
ag1145
aa(lp1157
S'and'
p1158
aS'N'
p1159
aS'CC'
p1160
aa(lp1161
S'cathode'
p1162
aS'N'
p1163
ag1145
aa(lp1164
S'based'
p1165
aS'N'
p1166
aS'VBN'
p1167
aa(lp1168
S'on'
p1169
aS'N'
p1170
aS'IN'
p1171
aa(lp1172
S'the'
p1173
aS'N'
p1174
ag1141
aa(lp1175
S'theoretical'
p1176
aS'N'
p1177
aS'JJ'
p1178
aa(lp1179
S'capacity'
p1180
aS'N'
p1181
ag1149
aa(lp1182
S'(Sigraphene'
p1183
aS'N'
p1184
ag1137
aa(lp1185
S'anode'
p1186
aS'N'
p1187
ag1145
aa(lp1188
S'of'
p1189
aS'N'
p1190
ag1153
aa(lp1191
S'2968'
p1192
aS'N'
p1193
aS'CD'
p1194
aa(lp1195
S'mAh'
p1196
aS'N'
p1197
ag1145
aa(lp1198
S'g1'
p1199
aS'N'
p1200
ag1145
aa(lp1201
S'and'
p1202
aS'N'
p1203
ag1160
aa(lp1204
S'NCA'
p1205
aS'N'
p1206
ag1137
aa(lp1207
S'cathode'
p1208
aS'N'
p1209
ag1145
aa(lp1210
S'of'
p1211
aS'N'
p1212
ag1153
aa(lp1213
S'274'
p1214
aS'N'
p1215
ag1194
aa(lp1216
S'mAh'
p1217
aS'N'
p1218
ag1145
aa(lp1219
S'g1)'
p1220
aS'N'
p1221
ag1145
aa(lp1222
S'was'
p1223
aS'N'
p1224
aS'VBD'
p1225
aa(lp1226
S'7.80'
p1227
aS'N'
p1228
ag1194
aa(lp1229
S'and'
p1230
aS'N'
p1231
ag1160
aa(lp1232
S'6.38'
p1233
aS'N'
p1234
ag1194
aa(lp1235
S'mAh'
p1236
aS'N'
p1237
ag1145
aa(lp1238
S'for'
p1239
aS'N'
p1240
aS'IN'
p1241
aa(lp1242
S'coin'
p1243
aS'N'
p1244
ag1145
aa(lp1245
S'cells'
p1246
aS'N'
p1247
aS'NNS'
p1248
aa(lp1249
S','
p1250
aS'N'
p1251
aS','
p1252
aa(lp1253
S'respectively;'
p1254
aS'N'
p1255
ag1145
aa(lp1256
S'that'
p1257
aS'N'
p1258
aS'WDT'
p1259
aa(lp1260
S'is'
p1261
aS'N'
p1262
aS'VBZ'
p1263
aa(lp1264
S','
p1265
aS'N'
p1266
ag1252
aa(lp1267
S'the'
p1268
aS'N'
p1269
ag1141
aa(lp1270
S'theoretical'
p1271
aS'N'
p1272
ag1178
aa(lp1273
S'capacity'
p1274
aS'N'
p1275
ag1149
aa(lp1276
S'of'
p1277
aS'N'
p1278
ag1153
aa(lp1279
S'the'
p1280
aS'N'
p1281
ag1141
aa(lp1282
S'anode'
p1283
aS'N'
p1284
ag1145
aa(lp1285
S'was'
p1286
aS'N'
p1287
ag1225
aa(lp1288
S'1.22'
p1289
aS'N'
p1290
ag1194
aa(lp1291
S'times'
p1292
aS'N'
p1293
aS'NNS'
p1294
aa(lp1295
S'more'
p1296
aS'N'
p1297
aS'JJR'
p1298
aa(lp1299
S'than'
p1300
aS'N'
p1301
aS'IN'
p1302
aa(lp1303
S'that'
p1304
aS'N'
p1305
ag1259
aa(lp1306
S'of'
p1307
aS'N'
p1308
ag1153
aa(lp1309
S'cathode'
p1310
aS'N'
p1311
ag1145
aa(lp1312
S'.'
p1313
aS'N'
p1314
aS'.'
p1315
aa(lp1316
g75
ag4
ag4
aa(lp1317
g77
ag4
ag4
aaa(lp1318
(lp1319
g3
ag4
ag4
aa(lp1320
g6
ag4
ag4
aa(lp1321
S'Using'
p1322
aS'N'
p1323
aS'VBG'
p1324
aa(lp1325
S'the'
p1326
aS'N'
p1327
aS'DT'
p1328
aa(lp1329
S'measured'
p1330
aS'N'
p1331
aS'VBN'
p1332
aa(lp1333
S'capacity'
p1334
aS'N'
p1335
aS'NN'
p1336
aa(lp1337
S'after'
p1338
aS'N'
p1339
aS'IN'
p1340
aa(lp1341
S'the'
p1342
aS'N'
p1343
ag1328
aa(lp1344
S'1st'
p1345
aS'N'
p1346
aS'CD'
p1347
aa(lp1348
S'formation'
p1349
aS'N'
p1350
aS'NN'
p1351
aa(lp1352
S'cycle'
p1353
aS'N'
p1354
aS'NN'
p1355
aa(lp1356
S'for'
p1357
aS'N'
p1358
aS'IN'
p1359
aa(lp1360
S'the'
p1361
aS'N'
p1362
ag1328
aa(lp1363
S'half'
p1364
aS'N'
p1365
ag1351
aa(lp1366
S'cells,'
p1367
aS'N'
p1368
aS'VBZ'
p1369
aa(lp1370
S'the'
p1371
aS'N'
p1372
ag1328
aa(lp1373
S'lithiation'
p1374
aS'N'
p1375
ag1351
aa(lp1376
S'capacity'
p1377
aS'N'
p1378
ag1336
aa(lp1379
S'of'
p1380
aS'N'
p1381
aS'IN'
p1382
aa(lp1383
S'Sigraphene'
p1384
aS'N'
p1385
aS'NNP'
p1386
aa(lp1387
S'anode'
p1388
aS'N'
p1389
ag1351
aa(lp1390
S'is'
p1391
aS'N'
p1392
aS'VBZ'
p1393
aa(lp1394
S'4.46'
p1395
aS'N'
p1396
ag1347
aa(lp1397
S'mAh'
p1398
aS'N'
p1399
ag1351
aa(lp1400
S'(1696'
p1401
aS'N'
p1402
ag1386
aa(lp1403
S'mAh'
p1404
aS'N'
p1405
ag1351
aa(lp1406
S'g1)'
p1407
aS'N'
p1408
ag1351
aa(lp1409
S'and'
p1410
aS'N'
p1411
aS'CC'
p1412
aa(lp1413
S'the'
p1414
aS'N'
p1415
ag1328
aa(lp1416
S'delithiation'
p1417
aS'N'
p1418
ag1351
aa(lp1419
S'capacity'
p1420
aS'N'
p1421
ag1336
aa(lp1422
S'of'
p1423
aS'N'
p1424
ag1382
aa(lp1425
S'NCA'
p1426
aS'N'
p1427
ag1386
aa(lp1428
S'cathode'
p1429
aS'N'
p1430
ag1351
aa(lp1431
S'is'
p1432
aS'N'
p1433
ag1393
aa(lp1434
S'3.83'
p1435
aS'N'
p1436
ag1347
aa(lp1437
S'mAh'
p1438
aS'N'
p1439
ag1351
aa(lp1440
S'(169'
p1441
aS'N'
p1442
ag1386
aa(lp1443
S'mAh'
p1444
aS'N'
p1445
ag1351
aa(lp1446
S'g1)'
p1447
aS'N'
p1448
ag1351
aa(lp1449
S'for'
p1450
aS'N'
p1451
ag1359
aa(lp1452
S'coin'
p1453
aS'N'
p1454
ag1351
aa(lp1455
S'cells'
p1456
aS'N'
p1457
aS'NNS'
p1458
aa(lp1459
S','
p1460
aS'N'
p1461
aS','
p1462
aa(lp1463
S'indicating'
p1464
aS'N'
p1465
ag1324
aa(lp1466
S'that'
p1467
aS'N'
p1468
aS'IN'
p1469
aa(lp1470
S'the'
p1471
aS'N'
p1472
ag1328
aa(lp1473
S'design'
p1474
aS'N'
p1475
ag1351
aa(lp1476
S'capacity'
p1477
aS'N'
p1478
ag1336
aa(lp1479
S'of'
p1480
aS'N'
p1481
ag1382
aa(lp1482
S'anode'
p1483
aS'N'
p1484
ag1351
aa(lp1485
S'is'
p1486
aS'N'
p1487
ag1393
aa(lp1488
S'1.16'
p1489
aS'N'
p1490
ag1347
aa(lp1491
S'times'
p1492
aS'N'
p1493
aS'NNS'
p1494
aa(lp1495
S'more'
p1496
aS'N'
p1497
aS'JJR'
p1498
aa(lp1499
S'than'
p1500
aS'N'
p1501
aS'IN'
p1502
aa(lp1503
S'that'
p1504
aS'N'
p1505
ag1469
aa(lp1506
S'of'
p1507
aS'N'
p1508
ag1382
aa(lp1509
S'cathode'
p1510
aS'N'
p1511
ag1351
aa(lp1512
S'.'
p1513
aS'N'
p1514
aS'.'
p1515
aa(lp1516
g75
ag4
ag4
aa(lp1517
g77
ag4
ag4
aaa(lp1518
(lp1519
g3
ag4
ag4
aa(lp1520
g6
ag4
ag4
aa(lp1521
S'To'
p1522
aS'N'
p1523
aS'TO'
p1524
aa(lp1525
S'see'
p1526
aS'N'
p1527
aS'VB'
p1528
aa(lp1529
S'both'
p1530
aS'N'
p1531
aS'DT'
p1532
aa(lp1533
S'effects'
p1534
aS'N'
p1535
aS'NNS'
p1536
aa(lp1537
S'of'
p1538
aS'N'
p1539
aS'IN'
p1540
aa(lp1541
S'anode'
p1542
aS'N'
p1543
aS'NN'
p1544
aa(lp1545
S'and'
p1546
aS'N'
p1547
aS'CC'
p1548
aa(lp1549
S'cathode'
p1550
aS'N'
p1551
ag1544
aa(lp1552
S'on'
p1553
aS'N'
p1554
aS'IN'
p1555
aa(lp1556
S'the'
p1557
aS'N'
p1558
aS'DT'
p1559
aa(lp1560
S'capacity'
p1561
aS'N'
p1562
aS'NN'
p1563
aa(lp1564
S'fade'
p1565
aS'N'
p1566
ag1544
aa(lp1567
S'of'
p1568
aS'N'
p1569
ag1540
aa(lp1570
S'the'
p1571
aS'N'
p1572
ag1559
aa(lp1573
S'full'
p1574
aS'N'
p1575
aS'JJ'
p1576
aa(lp1577
S'cell'
p1578
aS'N'
p1579
ag1544
aa(lp1580
S'during'
p1581
aS'N'
p1582
aS'IN'
p1583
aa(lp1584
S'cycling'
p1585
aS'N'
p1586
ag1544
aa(lp1587
S','
p1588
aS'N'
p1589
aS','
p1590
aa(lp1591
S'the'
p1592
aS'N'
p1593
ag1559
aa(lp1594
S'capacity'
p1595
aS'PR'
p1596
ag1563
aa(lp1597
S'ratio'
p1598
aS'PR'
p1599
ag1544
aa(lp1600
S'of'
p1601
aS'N'
p1602
ag1540
aa(lp1603
S'anode:'
p1604
aS'P'
p1605
aS'JJ'
p1606
aa(lp1607
S'cathode'
p1608
aS'P'
p1609
ag1544
aa(lp1610
S'was'
p1611
aS'A'
p1612
aS'VBD'
p1613
aa(lp1614
S'designed'
p1615
aS'A'
p1616
aS'VBN'
p1617
aa(lp1618
S'to'
p1619
aS'N'
p1620
aS'TO'
p1621
aa(lp1622
S'be'
p1623
aS'N'
p1624
aS'VB'
p1625
aa(lp1626
S'close'
p1627
aS'N'
p1628
aS'RB'
p1629
aa(lp1630
S'to'
p1631
aS'N'
p1632
ag1621
aa(lp1633
S'1:1'
p1634
aS'P'
p1635
aS'CD'
p1636
aa(lp1637
S'.'
p1638
aS'N'
p1639
aS'.'
p1640
aa(lp1641
g75
ag4
ag4
aa(lp1642
g77
ag4
ag4
aaa(lp1643
(lp1644
g3
ag4
ag4
aa(lp1645
g6
ag4
ag4
aa(lp1646
S'To'
p1647
aS'N'
p1648
aS'TO'
p1649
aa(lp1650
S'characterize'
p1651
aS'N'
p1652
aS'VB'
p1653
aa(lp1654
S'the'
p1655
aS'N'
p1656
aS'DT'
p1657
aa(lp1658
S'electrochemical'
p1659
aS'PR'
p1660
aS'JJ'
p1661
aa(lp1662
S'properties'
p1663
aS'PR'
p1664
aS'NNS'
p1665
aa(lp1666
S'of'
p1667
aS'N'
p1668
aS'IN'
p1669
aa(lp1670
S'the'
p1671
aS'N'
p1672
ag1657
aa(lp1673
S'full'
p1674
aS'R'
p1675
aS'JJ'
p1676
aa(lp1677
S'cells'
p1678
aS'R'
p1679
aS'NNS'
p1680
aa(lp1681
S','
p1682
aS'N'
p1683
aS','
p1684
aa(lp1685
S'capacityvoltage'
p1686
aS'E'
p1687
aS'NN'
p1688
aa(lp1689
S'(CV)'
p1690
aS'E'
p1691
ag1688
aa(lp1692
S'tests'
p1693
aS'E'
p1694
aS'NNS'
p1695
aa(lp1696
S'were'
p1697
aS'A'
p1698
aS'VBD'
p1699
aa(lp1700
S'performed'
p1701
aS'A'
p1702
aS'VBN'
p1703
aa(lp1704
S'at'
p1705
aS'N'
p1706
aS'IN'
p1707
aa(lp1708
S'various'
p1709
aS'P'
p1710
aS'JJ'
p1711
aa(lp1712
S'C-rates'
p1713
aS'P'
p1714
ag1695
aa(lp1715
S'(C/15'
p1716
aS'P'
p1717
ag1688
aa(lp1718
S'for'
p1719
aS'P'
p1720
aS'IN'
p1721
aa(lp1722
S'1st'
p1723
aS'P'
p1724
aS'CD'
p1725
aa(lp1726
S'5'
p1727
aS'P'
p1728
aS'CD'
p1729
aa(lp1730
S'cycles'
p1731
aS'P'
p1732
ag1695
aa(lp1733
S','
p1734
aS'N'
p1735
ag1684
aa(lp1736
S'C/5'
p1737
aS'P'
p1738
aS'NNP'
p1739
aa(lp1740
S'for'
p1741
aS'P'
p1742
ag1721
aa(lp1743
S'2nd'
p1744
aS'P'
p1745
ag1725
aa(lp1746
S'5'
p1747
aS'P'
p1748
ag1729
aa(lp1749
S'cycles'
p1750
aS'P'
p1751
ag1695
aa(lp1752
S','
p1753
aS'N'
p1754
ag1684
aa(lp1755
S'and'
p1756
aS'P'
p1757
aS'CC'
p1758
aa(lp1759
S'C/2'
p1760
aS'P'
p1761
ag1739
aa(lp1762
S'for'
p1763
aS'P'
p1764
ag1721
aa(lp1765
S'subsequent'
p1766
aS'P'
p1767
ag1661
aa(lp1768
S'cycle)'
p1769
aS'P'
p1770
ag1688
aa(lp1771
S','
p1772
aS'N'
p1773
ag1684
aa(lp1774
S'which'
p1775
aS'N'
p1776
aS'WDT'
p1777
aa(lp1778
S'were'
p1779
aS'N'
p1780
ag1699
aa(lp1781
S'determined'
p1782
aS'N'
p1783
ag1703
aa(lp1784
S'from'
p1785
aS'N'
p1786
aS'IN'
p1787
aa(lp1788
S'the'
p1789
aS'N'
p1790
ag1657
aa(lp1791
S'capacity'
p1792
aS'N'
p1793
aS'NN'
p1794
aa(lp1795
S'of'
p1796
aS'N'
p1797
ag1669
aa(lp1798
S'cathode'
p1799
aS'N'
p1800
ag1688
aa(lp1801
S'on'
p1802
aS'N'
p1803
aS'IN'
p1804
aa(lp1805
S'the'
p1806
aS'N'
p1807
ag1657
aa(lp1808
S'1st'
p1809
aS'N'
p1810
ag1725
aa(lp1811
S'cycle.'
p1812
aS'N'
p1813
ag1688
aa(lp1814
g75
ag4
ag4
aa(lp1815
g77
ag4
ag4
aaa(lp1816
(lp1817
g3
ag4
ag4
aa(lp1818
g6
ag4
ag4
aa(lp1819
S'All'
p1820
aS'N'
p1821
aS'DT'
p1822
aa(lp1823
S'cycling'
p1824
aS'E'
p1825
aS'NN'
p1826
aa(lp1827
S'tests'
p1828
aS'E'
p1829
aS'NNS'
p1830
aa(lp1831
S'were'
p1832
aS'A'
p1833
aS'VBD'
p1834
aa(lp1835
S'conducted'
p1836
aS'A'
p1837
aS'VBN'
p1838
aa(lp1839
S'at'
p1840
aS'N'
p1841
aS'IN'
p1842
aa(lp1843
S'room'
p1844
aS'P'
p1845
aS'NN'
p1846
aa(lp1847
S'temperature'
p1848
aS'P'
p1849
ag1826
aa(lp1850
S'(20'
p1851
aS'P'
p1852
aS'NNP'
p1853
aa(lp1854
S'C)'
p1855
aS'P'
p1856
ag1853
aa(lp1857
S'using'
p1858
aS'N'
p1859
aS'VBG'
p1860
aa(lp1861
S'an'
p1862
aS'E'
p1863
ag1822
aa(lp1864
S'Arbin'
p1865
aS'E'
p1866
ag1853
aa(lp1867
S'battery'
p1868
aS'E'
p1869
ag1826
aa(lp1870
S'cycler'
p1871
aS'E'
p1872
ag1826
aa(lp1873
S'.'
p1874
aS'N'
p1875
aS'.'
p1876
aa(lp1877
g75
ag4
ag4
aa(lp1878
g77
ag4
ag4
aaa(lp1879
(lp1880
g3
ag4
ag4
aa(lp1881
g6
ag4
ag4
aa(lp1882
S'The'
p1883
aS'N'
p1884
aS'DT'
p1885
aa(lp1886
S'full'
p1887
aS'R'
p1888
aS'JJ'
p1889
aa(lp1890
S'cells'
p1891
aS'R'
p1892
aS'NNS'
p1893
aa(lp1894
S'were'
p1895
aS'A'
p1896
aS'VBD'
p1897
aa(lp1898
S'charged'
p1899
aS'A'
p1900
aS'VBN'
p1901
aa(lp1902
S'to'
p1903
aS'N'
p1904
aS'TO'
p1905
aa(lp1906
S'4.2'
p1907
aS'P'
p1908
aS'CD'
p1909
aa(lp1910
S'V'
p1911
aS'P'
p1912
aS'NNP'
p1913
aa(lp1914
S'at'
p1915
aS'N'
p1916
aS'IN'
p1917
aa(lp1918
S'constant'
p1919
aS'P'
p1920
aS'JJ'
p1921
aa(lp1922
S'current'
p1923
aS'P'
p1924
aS'JJ'
p1925
aa(lp1926
S'(CC)'
p1927
aS'P'
p1928
aS'NN'
p1929
aa(lp1930
S','
p1931
aS'N'
p1932
aS','
p1933
aa(lp1934
S'and'
p1935
aS'N'
p1936
aS'CC'
p1937
aa(lp1938
S'then'
p1939
aS'N'
p1940
aS'RB'
p1941
aa(lp1942
S'held'
p1943
aS'A'
p1944
aS'VBD'
p1945
aa(lp1946
S'at'
p1947
aS'N'
p1948
ag1917
aa(lp1949
S'a'
p1950
aS'N'
p1951
aS'DT'
p1952
aa(lp1953
S'constant'
p1954
aS'P'
p1955
ag1921
aa(lp1956
S'voltage'
p1957
aS'P'
p1958
ag1929
aa(lp1959
S'(CV)'
p1960
aS'P'
p1961
ag1929
aa(lp1962
S'until'
p1963
aS'N'
p1964
aS'IN'
p1965
aa(lp1966
S'the'
p1967
aS'N'
p1968
aS'DT'
p1969
aa(lp1970
S'current'
p1971
aS'P'
p1972
ag1925
aa(lp1973
S'was'
p1974
aS'P'
p1975
ag1945
aa(lp1976
S'half'
p1977
aS'P'
p1978
ag1929
aa(lp1979
S'of'
p1980
aS'P'
p1981
aS'IN'
p1982
aa(lp1983
S'applied'
p1984
aS'P'
p1985
ag1921
aa(lp1986
S'C-rate'
p1987
aS'P'
p1988
ag1913
aa(lp1989
S'(C/30'
p1990
aS'P'
p1991
ag1913
aa(lp1992
S','
p1993
aS'N'
p1994
ag1933
aa(lp1995
S'C/10'
p1996
aS'P'
p1997
ag1913
aa(lp1998
S','
p1999
aS'N'
p2000
ag1933
aa(lp2001
S'and'
p2002
aS'N'
p2003
ag1937
aa(lp2004
S'C/4)'
p2005
aS'P'
p2006
ag1913
aa(lp2007
S'.'
p2008
aS'N'
p2009
aS'.'
p2010
aa(lp2011
g75
ag4
ag4
aa(lp2012
g77
ag4
ag4
aaa(lp2013
(lp2014
g3
ag4
ag4
aa(lp2015
g6
ag4
ag4
aa(lp2016
S'Discharges'
p2017
aS'E'
p2018
aS'NNS'
p2019
aa(lp2020
S'were'
p2021
aS'A'
p2022
aS'VBD'
p2023
aa(lp2024
S'done'
p2025
aS'A'
p2026
aS'VBN'
p2027
aa(lp2028
S'at'
p2029
aS'N'
p2030
aS'IN'
p2031
aa(lp2032
S'CC'
p2033
aS'P'
p2034
aS'NNP'
p2035
aa(lp2036
S'to'
p2037
aS'N'
p2038
aS'TO'
p2039
aa(lp2040
S'a'
p2041
aS'N'
p2042
aS'DT'
p2043
aa(lp2044
S'cut-off'
p2045
aS'P'
p2046
aS'JJ'
p2047
aa(lp2048
S'potential'
p2049
aS'P'
p2050
aS'NN'
p2051
aa(lp2052
S'of'
p2053
aS'P'
p2054
aS'IN'
p2055
aa(lp2056
S'2.75'
p2057
aS'P'
p2058
aS'CD'
p2059
aa(lp2060
S'V'
p2061
aS'P'
p2062
ag2035
aa(lp2063
S'.'
p2064
aS'N'
p2065
aS'.'
p2066
aa(lp2067
g75
ag4
ag4
aa(lp2068
g77
ag4
ag4
aaa(lp2069
(lp2070
g3
ag4
ag4
aa(lp2071
g6
ag4
ag4
aa(lp2072
S'The'
p2073
aS'N'
p2074
aS'DT'
p2075
aa(lp2076
S'capacities'
p2077
aS'P'
p2078
aS'NNS'
p2079
aa(lp2080
S'of'
p2081
aS'N'
p2082
aS'IN'
p2083
aa(lp2084
S'full'
p2085
aS'R'
p2086
aS'JJ'
p2087
aa(lp2088
S'cells'
p2089
aS'R'
p2090
aS'NNS'
p2091
aa(lp2092
S'were'
p2093
aS'A'
p2094
aS'VBD'
p2095
aa(lp2096
S'normalized'
p2097
aS'A'
p2098
aS'VBN'
p2099
aa(lp2100
S'by'
p2101
aS'N'
p2102
aS'IN'
p2103
aa(lp2104
S'the'
p2105
aS'N'
p2106
aS'DT'
p2107
aa(lp2108
S'weight'
p2109
aS'P'
p2110
aS'NN'
p2111
aa(lp2112
S'of'
p2113
aS'P'
p2114
ag2083
aa(lp2115
S'NCA'
p2116
aS'P'
p2117
aS'NNP'
p2118
aa(lp2119
S'cathode'
p2120
aS'N'
p2121
ag2111
aa(lp2122
S'.'
p2123
aS'N'
p2124
aS'.'
p2125
aa(lp2126
g75
ag4
ag4
aa(lp2127
g77
ag4
ag4
aaa(lp2128
(lp2129
g3
ag4
ag4
aa(lp2130
g6
ag4
ag4
aa(lp2131
S'The'
p2132
aS'N'
p2133
aS'DT'
p2134
aa(lp2135
S'half'
p2136
aS'R'
p2137
aS'NN'
p2138
aa(lp2139
S'cells'
p2140
aS'R'
p2141
aS'NNS'
p2142
aa(lp2143
S'were'
p2144
aS'A'
p2145
aS'VBD'
p2146
aa(lp2147
S'cycled'
p2148
aS'A'
p2149
aS'VBN'
p2150
aa(lp2151
S'between'
p2152
aS'P'
p2153
aS'IN'
p2154
aa(lp2155
S'0.05'
p2156
aS'P'
p2157
aS'CD'
p2158
aa(lp2159
S'and'
p2160
aS'P'
p2161
aS'CC'
p2162
aa(lp2163
S'1.0'
p2164
aS'P'
p2165
ag2158
aa(lp2166
S'VLi+/Li'
p2167
aS'P'
p2168
aS'NNP'
p2169
aa(lp2170
S'(Si/graphene)'
p2171
aS'R'
p2172
ag2169
aa(lp2173
S'and'
p2174
aS'P'
p2175
ag2162
aa(lp2176
S'2.754.20'
p2177
aS'P'
p2178
ag2158
aa(lp2179
S'VLi+/Li'
p2180
aS'P'
p2181
ag2169
aa(lp2182
S'(NCA)'
p2183
aS'R'
p2184
ag2169
aa(lp2185
S'.'
p2186
aS'N'
p2187
aS'.'
p2188
aa(lp2189
g75
ag4
ag4
aa(lp2190
g77
ag4
ag4
aaa(lp2191
(lp2192
g3
ag4
ag4
aa(lp2193
g6
ag4
ag4
aa(lp2194
S'Electrochemical'
p2195
aS'E'
p2196
aS'JJ'
p2197
aa(lp2198
S'Impedance'
p2199
aS'E'
p2200
aS'NNP'
p2201
aa(lp2202
S'Spectroscopy'
p2203
aS'E'
p2204
ag2201
aa(lp2205
S'(EIS)'
p2206
aS'E'
p2207
ag2201
aa(lp2208
S'of'
p2209
aS'N'
p2210
aS'IN'
p2211
aa(lp2212
S'full'
p2213
aS'R'
p2214
aS'JJ'
p2215
aa(lp2216
S'cells'
p2217
aS'R'
p2218
aS'NNS'
p2219
aa(lp2220
S'was'
p2221
aS'A'
p2222
aS'VBD'
p2223
aa(lp2224
S'conducted'
p2225
aS'A'
p2226
aS'VBN'
p2227
aa(lp2228
S'using'
p2229
aS'N'
p2230
aS'VBG'
p2231
aa(lp2232
S'a'
p2233
aS'N'
p2234
aS'DT'
p2235
aa(lp2236
S'potentiostat'
p2237
aS'E'
p2238
aS'NN'
p2239
aa(lp2240
S'in'
p2241
aS'N'
p2242
aS'IN'
p2243
aa(lp2244
S'a'
p2245
aS'N'
p2246
ag2235
aa(lp2247
S'frequency'
p2248
aS'P'
p2249
ag2239
aa(lp2250
S'range'
p2251
aS'P'
p2252
ag2239
aa(lp2253
S'of'
p2254
aS'P'
p2255
ag2211
aa(lp2256
S'1'
p2257
aS'P'
p2258
aS'CD'
p2259
aa(lp2260
S'MHz'
p2261
aS'P'
p2262
ag2201
aa(lp2263
S'pm'
p2264
aS'P'
p2265
ag2239
aa(lp2266
S'0.01'
p2267
aS'P'
p2268
aS'CD'
p2269
aa(lp2270
S'Hz'
p2271
aS'P'
p2272
ag2201
aa(lp2273
S'with'
p2274
aS'N'
p2275
aS'IN'
p2276
aa(lp2277
S'an'
p2278
aS'N'
p2279
aS'DT'
p2280
aa(lp2281
S'amplitude'
p2282
aS'P'
p2283
ag2239
aa(lp2284
S'of'
p2285
aS'P'
p2286
ag2211
aa(lp2287
S'5'
p2288
aS'P'
p2289
aS'CD'
p2290
aa(lp2291
S'mV'
p2292
aS'P'
p2293
ag2239
aa(lp2294
S'at'
p2295
aS'N'
p2296
aS'IN'
p2297
aa(lp2298
S'full'
p2299
aS'P'
p2300
ag2215
aa(lp2301
S'state'
p2302
aS'P'
p2303
aS'NN'
p2304
aa(lp2305
S'of'
p2306
aS'P'
p2307
ag2211
aa(lp2308
S'charge'
p2309
aS'P'
p2310
ag2239
aa(lp2311
S'(SOC)'
p2312
aS'P'
p2313
ag2201
aa(lp2314
S'of'
p2315
aS'P'
p2316
ag2211
aa(lp2317
S'4.094.12'
p2318
aS'P'
p2319
ag2269
aa(lp2320
S'V'
p2321
aS'P'
p2322
ag2201
aa(lp2323
S'.'
p2324
aS'N'
p2325
aS'.'
p2326
aa(lp2327
g75
ag4
ag4
aa(lp2328
g77
ag4
ag4
aaa(lp2329
(lp2330
g3
ag4
ag4
aa(lp2331
g6
ag4
ag4
aa(lp2332
S'The'
p2333
aS'N'
p2334
aS'DT'
p2335
aa(lp2336
S'values'
p2337
aS'PR'
p2338
aS'NNS'
p2339
aa(lp2340
S'for'
p2341
aS'PR'
p2342
aS'IN'
p2343
aa(lp2344
S'resistances'
p2345
aS'PR'
p2346
ag2339
aa(lp2347
S'of'
p2348
aS'N'
p2349
aS'IN'
p2350
aa(lp2351
S'individual'
p2352
aS'P'
p2353
aS'JJ'
p2354
aa(lp2355
S'components'
p2356
aS'P'
p2357
ag2339
aa(lp2358
S'were'
p2359
aS'A'
p2360
aS'VBD'
p2361
aa(lp2362
S'determined'
p2363
aS'A'
p2364
aS'VBN'
p2365
aa(lp2366
S'with'
p2367
aS'N'
p2368
aS'IN'
p2369
aa(lp2370
S'a'
p2371
aS'N'
p2372
aS'DT'
p2373
aa(lp2374
S'fitting'
p2375
aS'E'
p2376
ag2354
aa(lp2377
S'program'
p2378
aS'E'
p2379
aS'NN'
p2380
aa(lp2381
S'.'
p2382
aS'N'
p2383
aS'.'
p2384
aa(lp2385
g75
ag4
ag4
aa(lp2386
g77
ag4
ag4
aaa.