(lp0
(lp1
(lp2
S'***START***'
p3
aS'None'
p4
ag4
aa(lp5
S'***START2***'
p6
ag4
ag4
aa(lp7
S'The'
p8
aS'N'
p9
aS'DT'
p10
aa(lp11
S'FePO4'
p12
aS'PR'
p13
aS'NNP'
p14
aa(lp15
S'electrode'
p16
aS'PR'
p17
aS'NN'
p18
aa(lp19
S'is'
p20
aS'A'
p21
aS'VBZ'
p22
aa(lp23
S'prepared'
p24
aS'A'
p25
aS'VBN'
p26
aa(lp27
S'by'
p28
aS'N'
p29
aS'IN'
p30
aa(lp31
S'the'
p32
aS'N'
p33
aS'DT'
p34
aa(lp35
S'slurry'
p36
aS'E'
p37
ag18
aa(lp38
S'coating'
p39
aS'E'
p40
aS'VBG'
p41
aa(lp42
S'methodE'
p43
aS'N'
p44
ag18
aa(lp45
S'.'
p46
aS'N'
p47
aS'.'
p48
aa(lp49
S'***END***'
p50
ag4
ag4
aa(lp51
S'***END2***'
p52
ag4
ag4
aaa(lp53
(lp54
g3
ag4
ag4
aa(lp55
g6
ag4
ag4
aa(lp56
S'The'
p57
aS'N'
p58
aS'DT'
p59
aa(lp60
S'material'
p61
aS'R'
p62
aS'NN'
p63
aa(lp64
S'is'
p65
aS'A'
p66
aS'VBZ'
p67
aa(lp68
S'mixed'
p69
aS'A'
p70
aS'JJ'
p71
aa(lp72
S'with'
p73
aS'N'
p74
aS'IN'
p75
aa(lp76
S'10'
p77
aS'P'
p78
aS'CD'
p79
aa(lp80
S'wt%'
p81
aS'P'
p82
ag71
aa(lp83
S'carbon'
p84
aS'I'
p85
ag63
aa(lp86
S'black'
p87
aS'I'
p88
aS'JJ'
p89
aa(lp90
S'and'
p91
aS'N'
p92
aS'CC'
p93
aa(lp94
S'8'
p95
aS'P'
p96
aS'CD'
p97
aa(lp98
S'wt%'
p99
aS'P'
p100
ag71
aa(lp101
S'polyvinylidene'
p102
aS'I'
p103
ag71
aa(lp104
S'fluoride'
p105
aS'I'
p106
ag71
aa(lp107
S'(PVDF)'
p108
aS'I'
p109
ag63
aa(lp110
S'in'
p111
aS'N'
p112
aS'IN'
p113
aa(lp114
S'1-methyl-2-pyrrolidinone'
p115
aS'I'
p116
aS'CD'
p117
aa(lp118
S'(NMP)'
p119
aS'I'
p120
ag71
aa(lp121
S'solvent'
p122
aS'I'
p123
ag63
aa(lp124
S'to'
p125
aS'N'
p126
aS'TO'
p127
aa(lp128
S'form'
p129
aS'N'
p130
aS'VB'
p131
aa(lp132
S'a'
p133
aS'N'
p134
aS'DT'
p135
aa(lp136
S'viscous'
p137
aS'PR'
p138
ag71
aa(lp139
S'paste'
p140
aS'PR'
p141
ag63
aa(lp142
S','
p143
aS'N'
p144
aS','
p145
aa(lp146
S'which'
p147
aS'N'
p148
aS'WDT'
p149
aa(lp150
S'is'
p151
aS'A'
p152
ag67
aa(lp153
S'then'
p154
aS'N'
p155
aS'RB'
p156
aa(lp157
S'mixed'
p158
aS'A'
p159
ag71
aa(lp160
S'for'
p161
aS'N'
p162
aS'IN'
p163
aa(lp164
S'30'
p165
aS'P'
p166
aS'CD'
p167
aa(lp168
S'min'
p169
aS'P'
p170
aS'NNS'
p171
aa(lp172
S'using'
p173
aS'N'
p174
aS'VBG'
p175
aa(lp176
S'a'
p177
aS'N'
p178
ag135
aa(lp179
S'planetary'
p180
aS'E'
p181
ag71
aa(lp182
S'ball'
p183
aS'E'
p184
ag63
aa(lp185
S'milling'
p186
aS'E'
p187
ag63
aa(lp188
S'machine'
p189
aS'E'
p190
aS'NN'
p191
aa(lp192
S'.'
p193
aS'N'
p194
aS'.'
p195
aa(lp196
g50
ag4
ag4
aa(lp197
g52
ag4
ag4
aaa(lp198
(lp199
g3
ag4
ag4
aa(lp200
g6
ag4
ag4
aa(lp201
S'The'
p202
aS'N'
p203
aS'DT'
p204
aa(lp205
S'obtained'
p206
aS'N'
p207
aS'JJ'
p208
aa(lp209
S'slurry'
p210
aS'R'
p211
aS'NN'
p212
aa(lp213
S'is'
p214
aS'A'
p215
aS'VBZ'
p216
aa(lp217
S'then'
p218
aS'N'
p219
aS'RB'
p220
aa(lp221
S'coated'
p222
aS'A'
p223
aS'VBN'
p224
aa(lp225
S'onto'
p226
aS'N'
p227
aS'IN'
p228
aa(lp229
S'aluminium'
p230
aS'I'
p231
ag212
aa(lp232
S'foil'
p233
aS'I'
p234
ag212
aa(lp235
S'and'
p236
aS'N'
p237
aS'CC'
p238
aa(lp239
S'dried'
p240
aS'A'
p241
ag224
aa(lp242
S'in'
p243
aS'N'
p244
aS'IN'
p245
aa(lp246
S'a'
p247
aS'A'
p248
aS'DT'
p249
aa(lp250
S'vacuum'
p251
aS'E'
p252
ag212
aa(lp253
S'oven'
p254
aS'E'
p255
aS'RB'
p256
aa(lp257
S'at'
p258
aS'N'
p259
aS'IN'
p260
aa(lp261
S'100'
p262
aS'P'
p263
aS'CD'
p264
aa(lp265
S'overnight'
p266
aS'P'
p267
ag212
aa(lp268
S'.'
p269
aS'N'
p270
aS'.'
p271
aa(lp272
g50
ag4
ag4
aa(lp273
g52
ag4
ag4
aaa(lp274
(lp275
g3
ag4
ag4
aa(lp276
g6
ag4
ag4
aa(lp277
S'Coin'
p278
aS'E'
p279
aS'NNP'
p280
aa(lp281
S'cells'
p282
aS'E'
p283
aS'NNS'
p284
aa(lp285
S'consisting'
p286
aS'N'
p287
aS'VBG'
p288
aa(lp289
S'of'
p290
aS'N'
p291
aS'IN'
p292
aa(lp293
S'an'
p294
aS'N'
p295
aS'DT'
p296
aa(lp297
S'FePO4'
p298
aS'I'
p299
ag280
aa(lp300
S'cathode'
p301
aS'N'
p302
aS'NN'
p303
aa(lp304
S','
p305
aS'N'
p306
aS','
p307
aa(lp308
S'a'
p309
aS'N'
p310
aS'DT'
p311
aa(lp312
S'Na'
p313
aS'I'
p314
ag280
aa(lp315
S'foil'
p316
aS'I'
p317
ag303
aa(lp318
S'anode'
p319
aS'N'
p320
ag303
aa(lp321
S','
p322
aS'N'
p323
ag307
aa(lp324
S'Celgard'
p325
aS'I'
p326
ag280
aa(lp327
S'3501'
p328
aS'I'
p329
aS'CD'
p330
aa(lp331
S'microporous'
p332
aS'I'
p333
aS'JJ'
p334
aa(lp335
S'film'
p336
aS'I'
p337
aS'NN'
p338
aa(lp339
S'separators'
p340
aS'I'
p341
aS'NNS'
p342
aa(lp343
S','
p344
aS'N'
p345
ag307
aa(lp346
S'and'
p347
aS'N'
p348
aS'CC'
p349
aa(lp350
S'1.0'
p351
aS'P'
p352
ag330
aa(lp353
S'M'
p354
aS'P'
p355
ag280
aa(lp356
S'NaClO4'
p357
aS'I'
p358
ag280
aa(lp359
S'in'
p360
aS'N'
p361
aS'IN'
p362
aa(lp363
S'ethylene'
p364
aS'I'
p365
ag334
aa(lp366
S'carbonate'
p367
aS'I'
p368
ag303
aa(lp369
S'(EC)'
p370
aS'I'
p371
ag303
aa(lp372
S':'
p373
aS'N'
p374
aS':'
p375
aa(lp376
S'dimethyl'
p377
aS'I'
p378
ag303
aa(lp379
S'carbonate'
p380
aS'I'
p381
ag303
aa(lp382
S'(DMC)'
p383
aS'I'
p384
ag280
aa(lp385
S'(1'
p386
aS'P'
p387
ag303
aa(lp388
S':'
p389
aS'P'
p390
ag375
aa(lp391
S'1'
p392
aS'P'
p393
aS'CD'
p394
aa(lp395
S'by'
p396
aS'P'
p397
aS'IN'
p398
aa(lp399
S'volume)'
p400
aS'P'
p401
ag303
aa(lp402
S'liquid'
p403
aS'N'
p404
ag303
aa(lp405
S'electrolyte'
p406
aS'N'
p407
ag303
aa(lp408
S'are'
p409
aS'A'
p410
aS'VBP'
p411
aa(lp412
S'used'
p413
aS'A'
p414
aS'VBN'
p415
aa(lp416
S'for'
p417
aS'N'
p418
aS'IN'
p419
aa(lp420
S'electrochemical'
p421
aS'N'
p422
ag334
aa(lp423
S'measurements'
p424
aS'N'
p425
ag342
aa(lp426
S'.'
p427
aS'N'
p428
aS'.'
p429
aa(lp430
g50
ag4
ag4
aa(lp431
g52
ag4
ag4
aaa(lp432
(lp433
g3
ag4
ag4
aa(lp434
g6
ag4
ag4
aa(lp435
S'For'
p436
aS'N'
p437
aS'IN'
p438
aa(lp439
S'comparison'
p440
aS'N'
p441
aS'NN'
p442
aa(lp443
S','
p444
aS'N'
p445
aS','
p446
aa(lp447
S'coin'
p448
aS'E'
p449
ag442
aa(lp450
S'cells'
p451
aS'E'
p452
aS'NNS'
p453
aa(lp454
S'consisting'
p455
aS'N'
p456
aS'VBG'
p457
aa(lp458
S'of'
p459
aS'N'
p460
aS'IN'
p461
aa(lp462
S'an'
p463
aS'N'
p464
aS'DT'
p465
aa(lp466
S'FePO4'
p467
aS'I'
p468
aS'NNP'
p469
aa(lp470
S'cathode'
p471
aS'N'
p472
ag442
aa(lp473
S'and'
p474
aS'N'
p475
aS'CC'
p476
aa(lp477
S'a'
p478
aS'N'
p479
aS'DT'
p480
aa(lp481
S'Li'
p482
aS'I'
p483
ag469
aa(lp484
S'foil'
p485
aS'I'
p486
ag442
aa(lp487
S'anode'
p488
aS'N'
p489
ag442
aa(lp490
S'are'
p491
aS'A'
p492
aS'VBP'
p493
aa(lp494
S'also'
p495
aS'N'
p496
aS'RB'
p497
aa(lp498
S'prepared'
p499
aS'A'
p500
aS'JJ'
p501
aa(lp502
S'with'
p503
aS'N'
p504
aS'IN'
p505
aa(lp506
S'1.0'
p507
aS'P'
p508
aS'CD'
p509
aa(lp510
S'M'
p511
aS'P'
p512
ag469
aa(lp513
S'LiPF6'
p514
aS'I'
p515
ag469
aa(lp516
S'in'
p517
aS'N'
p518
aS'IN'
p519
aa(lp520
S'EC:diethyl'
p521
aS'I'
p522
ag469
aa(lp523
S'carbonate'
p524
aS'I'
p525
ag442
aa(lp526
S'(DEC)'
p527
aS'I'
p528
ag442
aa(lp529
S'as'
p530
aS'N'
p531
aS'IN'
p532
aa(lp533
S'the'
p534
aS'N'
p535
aS'DT'
p536
aa(lp537
S'liquid'
p538
aS'N'
p539
ag442
aa(lp540
S'electrolyte'
p541
aS'N'
p542
ag442
aa(lp543
S'.'
p544
aS'N'
p545
aS'.'
p546
aa(lp547
g50
ag4
ag4
aa(lp548
g52
ag4
ag4
aaa(lp549
(lp550
g3
ag4
ag4
aa(lp551
g6
ag4
ag4
aa(lp552
S'Galvanostatic'
p553
aS'E'
p554
aS'JJ'
p555
aa(lp556
S'chargedischarge'
p557
aS'E'
p558
aS'NN'
p559
aa(lp560
S'is'
p561
aS'A'
p562
aS'VBZ'
p563
aa(lp564
S'performed'
p565
aS'A'
p566
aS'VBN'
p567
aa(lp568
S'by'
p569
aS'N'
p570
aS'IN'
p571
aa(lp572
S'using'
p573
aS'N'
p574
aS'VBG'
p575
aa(lp576
S'the'
p577
aS'N'
p578
aS'DT'
p579
aa(lp580
S'Arbin'
p581
aS'E'
p582
aS'NNP'
p583
aa(lp584
S'test'
p585
aS'E'
p586
ag559
aa(lp587
S'station'
p588
aS'E'
p589
ag559
aa(lp590
S'.'
p591
aS'N'
p592
aS'.'
p593
aa(lp594
g50
ag4
ag4
aa(lp595
g52
ag4
ag4
aaa(lp596
(lp597
g3
ag4
ag4
aa(lp598
g6
ag4
ag4
aa(lp599
S'Before'
p600
aS'N'
p601
aS'IN'
p602
aa(lp603
S'any'
p604
aS'N'
p605
aS'DT'
p606
aa(lp607
S'electrochemical'
p608
aS'N'
p609
aS'JJ'
p610
aa(lp611
S'tests'
p612
aS'N'
p613
aS'NNS'
p614
aa(lp615
S','
p616
aS'N'
p617
aS','
p618
aa(lp619
S'the'
p620
aS'N'
p621
aS'DT'
p622
aa(lp623
S'Na/FePO4'
p624
aS'R'
p625
aS'NNP'
p626
aa(lp627
S'cell'
p628
aS'R'
p629
aS'NN'
p630
aa(lp631
S'is'
p632
aS'A'
p633
aS'VBZ'
p634
aa(lp635
S'discharged'
p636
aS'A'
p637
aS'VBN'
p638
aa(lp639
S'to'
p640
aS'N'
p641
aS'TO'
p642
aa(lp643
S'2.0'
p644
aS'P'
p645
aS'CD'
p646
aa(lp647
S'V'
p648
aS'P'
p649
ag626
aa(lp650
S'and'
p651
aS'N'
p652
aS'CC'
p653
aa(lp654
S'the'
p655
aS'N'
p656
ag622
aa(lp657
S'Li/FePO4'
p658
aS'R'
p659
ag626
aa(lp660
S'cell'
p661
aS'R'
p662
ag630
aa(lp663
S'is'
p664
aS'A'
p665
ag634
aa(lp666
S'discharged'
p667
aS'A'
p668
ag638
aa(lp669
S'to'
p670
aS'N'
p671
ag642
aa(lp672
S'2.5'
p673
aS'P'
p674
aS'CD'
p675
aa(lp676
S'V'
p677
aS'P'
p678
ag626
aa(lp679
S'with'
p680
aS'N'
p681
aS'IN'
p682
aa(lp683
S'a'
p684
aS'N'
p685
aS'DT'
p686
aa(lp687
S'constant'
p688
aS'P'
p689
ag610
aa(lp690
S'current'
p691
aS'P'
p692
aS'JJ'
p693
aa(lp694
S'of'
p695
aS'P'
p696
aS'IN'
p697
aa(lp698
S'0.01'
p699
aS'P'
p700
ag646
aa(lp701
S'C'
p702
aS'P'
p703
ag626
aa(lp704
S'to'
p705
aS'N'
p706
ag642
aa(lp707
S'form'
p708
aS'N'
p709
aS'VB'
p710
aa(lp711
S'NaFePO4'
p712
aS'N'
p713
ag626
aa(lp714
S'and'
p715
aS'N'
p716
ag653
aa(lp717
S'LiFePO4'
p718
aS'N'
p719
ag626
aa(lp720
S'in'
p721
aS'N'
p722
aS'IN'
p723
aa(lp724
S'the'
p725
aS'N'
p726
ag622
aa(lp727
S'cells'
p728
aS'N'
p729
aS'NNS'
p730
aa(lp731
S','
p732
aS'N'
p733
ag618
aa(lp734
S'respectively'
p735
aS'N'
p736
aS'RB'
p737
aa(lp738
S'.'
p739
aS'N'
p740
aS'.'
p741
aa(lp742
g50
ag4
ag4
aa(lp743
g52
ag4
ag4
aaa(lp744
(lp745
g3
ag4
ag4
aa(lp746
g6
ag4
ag4
aa(lp747
S'All'
p748
aS'N'
p749
aS'DT'
p750
aa(lp751
S'C-rates'
p752
aS'PR'
p753
aS'NNS'
p754
aa(lp755
S'used'
p756
aS'N'
p757
aS'VBN'
p758
aa(lp759
S'in'
p760
aS'N'
p761
aS'IN'
p762
aa(lp763
S'this'
p764
aS'N'
p765
aS'DT'
p766
aa(lp767
S'study'
p768
aS'N'
p769
aS'NN'
p770
aa(lp771
S'are'
p772
aS'A'
p773
aS'VBP'
p774
aa(lp775
S'calculated'
p776
aS'A'
p777
ag758
aa(lp778
S'based'
p779
aS'N'
p780
aS'VBN'
p781
aa(lp782
S'on'
p783
aS'N'
p784
aS'IN'
p785
aa(lp786
S'the'
p787
aS'N'
p788
aS'DT'
p789
aa(lp790
S'theoretical'
p791
aS'N'
p792
aS'JJ'
p793
aa(lp794
S'capacity'
p795
aS'N'
p796
aS'NN'
p797
aa(lp798
S'of'
p799
aS'N'
p800
aS'IN'
p801
aa(lp802
S'154'
p803
aS'P'
p804
aS'CD'
p805
aa(lp806
S'mA'
p807
aS'P'
p808
ag754
aa(lp809
S'h'
p810
aS'P'
p811
ag793
aa(lp812
S'g'
p813
aS'P'
p814
ag793
aa(lp815
S'1'
p816
aS'P'
p817
aS'CD'
p818
aa(lp819
S'for'
p820
aS'P'
p821
aS'IN'
p822
aa(lp823
S'NaFePO4'
p824
aS'P'
p825
aS'NNP'
p826
aa(lp827
S'and'
p828
aS'N'
p829
aS'CC'
p830
aa(lp831
S'170'
p832
aS'P'
p833
ag805
aa(lp834
S'mA'
p835
aS'P'
p836
ag754
aa(lp837
S'h'
p838
aS'P'
p839
ag793
aa(lp840
S'g'
p841
aS'P'
p842
ag793
aa(lp843
S'1'
p844
aS'P'
p845
ag818
aa(lp846
S'for'
p847
aS'P'
p848
ag822
aa(lp849
S'LiFePO4'
p850
aS'P'
p851
ag826
aa(lp852
S'.'
p853
aS'N'
p854
aS'.'
p855
aa(lp856
g50
ag4
ag4
aa(lp857
g52
ag4
ag4
aaa(lp858
(lp859
g3
ag4
ag4
aa(lp860
g6
ag4
ag4
aa(lp861
S'The'
p862
aS'N'
p863
aS'DT'
p864
aa(lp865
S'cells'
p866
aS'R'
p867
aS'NNS'
p868
aa(lp869
S'are'
p870
aS'A'
p871
aS'VBP'
p872
aa(lp873
S'cycled'
p874
aS'A'
p875
aS'VBN'
p876
aa(lp877
S'between'
p878
aS'P'
p879
aS'IN'
p880
aa(lp881
S'2.0'
p882
aS'P'
p883
aS'CD'
p884
aa(lp885
S'and'
p886
aS'P'
p887
aS'CC'
p888
aa(lp889
S'4.0'
p890
aS'P'
p891
ag884
aa(lp892
S'V'
p893
aS'P'
p894
aS'NNP'
p895
aa(lp896
S'for'
p897
aS'N'
p898
aS'IN'
p899
aa(lp900
S'NaFePO4'
p901
aS'I'
p902
ag895
aa(lp903
S'cells'
p904
aS'I'
p905
ag868
aa(lp906
S','
p907
aS'N'
p908
aS','
p909
aa(lp910
S'and'
p911
aS'N'
p912
ag888
aa(lp913
S'between'
p914
aS'P'
p915
ag880
aa(lp916
S'and'
p917
aS'P'
p918
ag888
aa(lp919
S'4.0'
p920
aS'P'
p921
ag884
aa(lp922
S'V'
p923
aS'P'
p924
ag895
aa(lp925
S'for'
p926
aS'N'
p927
ag899
aa(lp928
S'LiFePO4'
p929
aS'I'
p930
ag895
aa(lp931
S'cells'
p932
aS'I'
p933
ag868
aa(lp934
S'at'
p935
aS'N'
p936
aS'IN'
p937
aa(lp938
S'different'
p939
aS'N'
p940
aS'JJ'
p941
aa(lp942
S'rates'
p943
aS'N'
p944
aS'NNS'
p945
aa(lp946
S'.'
p947
aS'N'
p948
aS'.'
p949
aa(lp950
g50
ag4
ag4
aa(lp951
g52
ag4
ag4
aaa(lp952
(lp953
g3
ag4
ag4
aa(lp954
g6
ag4
ag4
aa(lp955
S'After'
p956
aS'N'
p957
aS'IN'
p958
aa(lp959
S'the'
p960
aS'N'
p961
aS'DT'
p962
aa(lp963
S'cell'
p964
aS'R'
p965
aS'NN'
p966
aa(lp967
S'reaches'
p968
aS'N'
p969
aS'VBZ'
p970
aa(lp971
S'the'
p972
aS'N'
p973
ag962
aa(lp974
S'cut-off'
p975
aS'N'
p976
ag966
aa(lp977
S'voltages'
p978
aS'N'
p979
aS'NNS'
p980
aa(lp981
S','
p982
aS'N'
p983
aS','
p984
aa(lp985
S'it'
p986
aS'N'
p987
aS'PRP'
p988
aa(lp989
S'is'
p990
aS'A'
p991
aS'VBZ'
p992
aa(lp993
S'relaxed'
p994
aS'A'
p995
aS'VBN'
p996
aa(lp997
S'for'
p998
aS'N'
p999
aS'IN'
p1000
aa(lp1001
S'5'
p1002
aS'P'
p1003
aS'CD'
p1004
aa(lp1005
S'min'
p1006
aS'P'
p1007
ag966
aa(lp1008
S'before'
p1009
aS'N'
p1010
aS'IN'
p1011
aa(lp1012
S'subsequent'
p1013
aS'N'
p1014
aS'JJ'
p1015
aa(lp1016
S'charge'
p1017
aS'N'
p1018
ag966
aa(lp1019
S'or'
p1020
aS'N'
p1021
aS'CC'
p1022
aa(lp1023
S'discharge'
p1024
aS'N'
p1025
ag966
aa(lp1026
g50
ag4
ag4
aa(lp1027
g52
ag4
ag4
aaa(lp1028
(lp1029
g3
ag4
ag4
aa(lp1030
g6
ag4
ag4
aa(lp1031
S'Before'
p1032
aS'N'
p1033
aS'IN'
p1034
aa(lp1035
S'the'
p1036
aS'N'
p1037
aS'DT'
p1038
aa(lp1039
S'galvanostatic'
p1040
aS'N'
p1041
aS'JJ'
p1042
aa(lp1043
S'chargedischarge'
p1044
aS'N'
p1045
aS'NN'
p1046
aa(lp1047
S'tests'
p1048
aS'N'
p1049
aS'NNS'
p1050
aa(lp1051
S','
p1052
aS'N'
p1053
aS','
p1054
aa(lp1055
S'the'
p1056
aS'N'
p1057
ag1038
aa(lp1058
S'cells'
p1059
aS'R'
p1060
aS'NNS'
p1061
aa(lp1062
S'are'
p1063
aS'A'
p1064
aS'VBP'
p1065
aa(lp1066
S'pre-cycled'
p1067
aS'A'
p1068
ag1042
aa(lp1069
S'5'
p1070
aS'P'
p1071
aS'CD'
p1072
aa(lp1073
S'times'
p1074
aS'P'
p1075
ag1050
aa(lp1076
S'at'
p1077
aS'N'
p1078
aS'IN'
p1079
aa(lp1080
S'a'
p1081
aS'P'
p1082
aS'DT'
p1083
aa(lp1084
S'current'
p1085
aS'P'
p1086
aS'JJ'
p1087
aa(lp1088
S'of'
p1089
aS'P'
p1090
aS'IN'
p1091
aa(lp1092
S'0.1'
p1093
aS'P'
p1094
aS'CD'
p1095
aa(lp1096
S'C'
p1097
aS'P'
p1098
aS'NNP'
p1099
aa(lp1100
S'.'
p1101
aS'N'
p1102
aS'.'
p1103
aa(lp1104
g50
ag4
ag4
aa(lp1105
g52
ag4
ag4
aaa(lp1106
(lp1107
g3
ag4
ag4
aa(lp1108
g6
ag4
ag4
aa(lp1109
S'The'
p1110
aS'N'
p1111
aS'DT'
p1112
aa(lp1113
S'equilibrium'
p1114
aS'PR'
p1115
aS'NN'
p1116
aa(lp1117
S'(open-circuit)'
p1118
aS'PR'
p1119
aS'JJ'
p1120
aa(lp1121
S'potential'
p1122
aS'PR'
p1123
ag1116
aa(lp1124
S'of'
p1125
aS'N'
p1126
aS'IN'
p1127
aa(lp1128
S'the'
p1129
aS'N'
p1130
aS'DT'
p1131
aa(lp1132
S'cells'
p1133
aS'N'
p1134
aS'NNS'
p1135
aa(lp1136
S'is'
p1137
aS'A'
p1138
aS'VBZ'
p1139
aa(lp1140
S'obtained'
p1141
aS'A'
p1142
aS'VBN'
p1143
aa(lp1144
S'by'
p1145
aS'N'
p1146
aS'IN'
p1147
aa(lp1148
S'a'
p1149
aS'N'
p1150
aS'DT'
p1151
aa(lp1152
S'galvanostatic'
p1153
aS'E'
p1154
ag1120
aa(lp1155
S'intermittent'
p1156
aS'E'
p1157
ag1116
aa(lp1158
S'titration'
p1159
aS'E'
p1160
ag1116
aa(lp1161
S'technique'
p1162
aS'E'
p1163
ag1116
aa(lp1164
S'(GITT)'
p1165
aS'E'
p1166
aS'NNP'
p1167
aa(lp1168
S','
p1169
aS'N'
p1170
aS','
p1171
aa(lp1172
S'which'
p1173
aS'N'
p1174
aS'WDT'
p1175
aa(lp1176
S'consists'
p1177
aS'N'
p1178
aS'VBZ'
p1179
aa(lp1180
S'of'
p1181
aS'N'
p1182
ag1127
aa(lp1183
S'a'
p1184
aS'N'
p1185
ag1151
aa(lp1186
S'series'
p1187
aS'P'
p1188
aS'NN'
p1189
aa(lp1190
S'of'
p1191
aS'P'
p1192
ag1127
aa(lp1193
S'current'
p1194
aS'P'
p1195
aS'JJ'
p1196
aa(lp1197
S'pulses'
p1198
aS'P'
p1199
aS'NNS'
p1200
aa(lp1201
S'at'
p1202
aS'P'
p1203
aS'IN'
p1204
aa(lp1205
S'0.025'
p1206
aS'P'
p1207
aS'CD'
p1208
aa(lp1209
S'C'
p1210
aS'P'
p1211
ag1167
aa(lp1212
S'(for'
p1213
aS'P'
p1214
aS'VBD'
p1215
aa(lp1216
S'the'
p1217
aS'P'
p1218
ag1131
aa(lp1219
S'NaFePO4'
p1220
aS'P'
p1221
ag1167
aa(lp1222
S'cell)'
p1223
aS'P'
p1224
ag1116
aa(lp1225
S'or'
p1226
aS'N'
p1227
aS'CC'
p1228
aa(lp1229
S'0.05'
p1230
aS'P'
p1231
ag1208
aa(lp1232
S'C'
p1233
aS'P'
p1234
ag1167
aa(lp1235
S'(for'
p1236
aS'P'
p1237
ag1215
aa(lp1238
S'the'
p1239
aS'P'
p1240
ag1131
aa(lp1241
S'LiFePO4'
p1242
aS'P'
p1243
ag1167
aa(lp1244
S'cell)'
p1245
aS'P'
p1246
ag1116
aa(lp1247
S'for'
p1248
aS'P'
p1249
aS'IN'
p1250
aa(lp1251
S'1'
p1252
aS'P'
p1253
aS'CD'
p1254
aa(lp1255
S'h'
p1256
aS'P'
p1257
ag1116
aa(lp1258
S','
p1259
aS'P'
p1260
ag1171
aa(lp1261
S'followed'
p1262
aS'A'
p1263
ag1143
aa(lp1264
S'by'
p1265
aS'N'
p1266
ag1147
aa(lp1267
S'a'
p1268
aS'N'
p1269
ag1151
aa(lp1270
S'15'
p1271
aS'P'
p1272
aS'CD'
p1273
aa(lp1274
S'h'
p1275
aS'P'
p1276
ag1116
aa(lp1277
S'relaxation'
p1278
aS'P'
p1279
ag1116
aa(lp1280
S'process'
p1281
aS'P'
p1282
ag1116
aa(lp1283
S'.'
p1284
aS'N'
p1285
aS'.'
p1286
aa(lp1287
g50
ag4
ag4
aa(lp1288
g52
ag4
ag4
aaa(lp1289
(lp1290
g3
ag4
ag4
aa(lp1291
g6
ag4
ag4
aa(lp1292
S'The'
p1293
aS'N'
p1294
aS'DT'
p1295
aa(lp1296
S'open-circuit-voltag'
p1297
aS'N'
p1298
aS'JJ'
p1299
aa(lp1300
S'(OCV)'
p1301
aS'N'
p1302
aS'NN'
p1303
aa(lp1304
S'at'
p1305
aS'N'
p1306
aS'IN'
p1307
aa(lp1308
S'the'
p1309
aS'N'
p1310
aS'DT'
p1311
aa(lp1312
S'end'
p1313
aS'N'
p1314
ag1303
aa(lp1315
S'of'
p1316
aS'N'
p1317
aS'IN'
p1318
aa(lp1319
S'relaxation'
p1320
aS'N'
p1321
ag1303
aa(lp1322
S'is'
p1323
aS'N'
p1324
aS'VBZ'
p1325
aa(lp1326
S'considered'
p1327
aS'N'
p1328
aS'VBN'
p1329
aa(lp1330
S'to'
p1331
aS'N'
p1332
aS'TO'
p1333
aa(lp1334
S'be'
p1335
aS'N'
p1336
aS'VB'
p1337
aa(lp1338
S'the'
p1339
aS'N'
p1340
ag1311
aa(lp1341
S'thermodynamically'
p1342
aS'N'
p1343
aS'RB'
p1344
aa(lp1345
S'equilibrium'
p1346
aS'N'
p1347
ag1299
aa(lp1348
S'potential'
p1349
aS'N'
p1350
ag1303
aa(lp1351
S'.'
p1352
aS'N'
p1353
aS'.'
p1354
aa(lp1355
g50
ag4
ag4
aa(lp1356
g52
ag4
ag4
aaa(lp1357
(lp1358
g3
ag4
ag4
aa(lp1359
g6
ag4
ag4
aa(lp1360
S'Cyclic'
p1361
aS'E'
p1362
aS'JJ'
p1363
aa(lp1364
S'voltammetry'
p1365
aS'E'
p1366
aS'NN'
p1367
aa(lp1368
S'(CV)'
p1369
aS'E'
p1370
ag1367
aa(lp1371
S'tests'
p1372
aS'E'
p1373
aS'NNS'
p1374
aa(lp1375
S'with'
p1376
aS'N'
p1377
aS'IN'
p1378
aa(lp1379
S'voltages'
p1380
aS'N'
p1381
ag1374
aa(lp1382
S'ranging'
p1383
aS'N'
p1384
aS'VBG'
p1385
aa(lp1386
S'from'
p1387
aS'P'
p1388
aS'IN'
p1389
aa(lp1390
S'2.0'
p1391
aS'P'
p1392
aS'CD'
p1393
aa(lp1394
S'V'
p1395
aS'P'
p1396
aS'NNP'
p1397
aa(lp1398
S'to'
p1399
aS'P'
p1400
aS'TO'
p1401
aa(lp1402
S'3.8'
p1403
aS'P'
p1404
ag1393
aa(lp1405
S'V'
p1406
aS'P'
p1407
ag1397
aa(lp1408
S'for'
p1409
aS'N'
p1410
aS'IN'
p1411
aa(lp1412
S'the'
p1413
aS'N'
p1414
aS'DT'
p1415
aa(lp1416
S'NaFePO4'
p1417
aS'I'
p1418
ag1397
aa(lp1419
S'cell'
p1420
aS'I'
p1421
ag1367
aa(lp1422
S'and'
p1423
aS'N'
p1424
aS'CC'
p1425
aa(lp1426
S'2.5'
p1427
aS'P'
p1428
aS'CD'
p1429
aa(lp1430
S'V'
p1431
aS'P'
p1432
ag1397
aa(lp1433
S'to'
p1434
aS'P'
p1435
ag1401
aa(lp1436
S'4.0'
p1437
aS'P'
p1438
ag1393
aa(lp1439
S'V'
p1440
aS'P'
p1441
ag1397
aa(lp1442
S'for'
p1443
aS'N'
p1444
ag1411
aa(lp1445
S'the'
p1446
aS'N'
p1447
ag1415
aa(lp1448
S'LiFePO4'
p1449
aS'I'
p1450
ag1397
aa(lp1451
S'cell'
p1452
aS'I'
p1453
ag1367
aa(lp1454
S'are'
p1455
aS'A'
p1456
aS'VBP'
p1457
aa(lp1458
S'performed'
p1459
aS'A'
p1460
aS'VBN'
p1461
aa(lp1462
S'under'
p1463
aS'N'
p1464
aS'IN'
p1465
aa(lp1466
S'various'
p1467
aS'P'
p1468
aS'JJ'
p1469
aa(lp1470
S'scan'
p1471
aS'P'
p1472
ag1363
aa(lp1473
S'rates'
p1474
aS'P'
p1475
aS'NNS'
p1476
aa(lp1477
S'.'
p1478
aS'N'
p1479
aS'.'
p1480
aa(lp1481
g50
ag4
ag4
aa(lp1482
g52
ag4
ag4
aaa(lp1483
(lp1484
g3
ag4
ag4
aa(lp1485
g6
ag4
ag4
aa(lp1486
S'Before'
p1487
aS'N'
p1488
aS'IN'
p1489
aa(lp1490
S'each'
p1491
aS'N'
p1492
aS'DT'
p1493
aa(lp1494
S'CV'
p1495
aS'N'
p1496
aS'NNP'
p1497
aa(lp1498
S'test'
p1499
aS'N'
p1500
aS'NN'
p1501
aa(lp1502
S','
p1503
aS'N'
p1504
aS','
p1505
aa(lp1506
S'the'
p1507
aS'N'
p1508
aS'DT'
p1509
aa(lp1510
S'NaFePO4'
p1511
aS'I'
p1512
ag1497
aa(lp1513
S'cell'
p1514
aS'I'
p1515
ag1501
aa(lp1516
S'is'
p1517
aS'A'
p1518
aS'VBZ'
p1519
aa(lp1520
S'galvanostatically'
p1521
aS'A'
p1522
aS'RB'
p1523
aa(lp1524
S'discharged'
p1525
aS'A'
p1526
aS'VBN'
p1527
aa(lp1528
S'to'
p1529
aS'N'
p1530
aS'TO'
p1531
aa(lp1532
S'2.0'
p1533
aS'P'
p1534
aS'CD'
p1535
aa(lp1536
S'V'
p1537
aS'P'
p1538
ag1497
aa(lp1539
S'(2.5'
p1540
aS'P'
p1541
ag1497
aa(lp1542
S'V'
p1543
aS'P'
p1544
ag1497
aa(lp1545
S'for'
p1546
aS'N'
p1547
aS'IN'
p1548
aa(lp1549
S'the'
p1550
aS'N'
p1551
ag1509
aa(lp1552
S'LiFePO4'
p1553
aS'I'
p1554
ag1497
aa(lp1555
S'cell)'
p1556
aS'I'
p1557
ag1501
aa(lp1558
S'at'
p1559
aS'N'
p1560
aS'IN'
p1561
aa(lp1562
S'a'
p1563
aS'N'
p1564
aS'DT'
p1565
aa(lp1566
S'current'
p1567
aS'P'
p1568
aS'JJ'
p1569
aa(lp1570
S'of'
p1571
aS'P'
p1572
aS'IN'
p1573
aa(lp1574
S'0.05'
p1575
aS'P'
p1576
ag1535
aa(lp1577
S'C'
p1578
aS'P'
p1579
ag1497
aa(lp1580
S'.'
p1581
aS'N'
p1582
aS'.'
p1583
aa(lp1584
g50
ag4
ag4
aa(lp1585
g52
ag4
ag4
aaa(lp1586
(lp1587
g3
ag4
ag4
aa(lp1588
g6
ag4
ag4
aa(lp1589
S'Electrochemical'
p1590
aS'E'
p1591
aS'JJ'
p1592
aa(lp1593
S'impedance'
p1594
aS'E'
p1595
aS'NN'
p1596
aa(lp1597
S'spectroscopy'
p1598
aS'E'
p1599
ag1596
aa(lp1600
S'(EIS)'
p1601
aS'E'
p1602
ag1596
aa(lp1603
S'tests'
p1604
aS'E'
p1605
aS'NNS'
p1606
aa(lp1607
S'with'
p1608
aS'N'
p1609
aS'IN'
p1610
aa(lp1611
S'frequency'
p1612
aS'P'
p1613
ag1596
aa(lp1614
S'ranging'
p1615
aS'P'
p1616
aS'VBG'
p1617
aa(lp1618
S'from'
p1619
aS'P'
p1620
aS'IN'
p1621
aa(lp1622
S'10'
p1623
aS'P'
p1624
aS'CD'
p1625
aa(lp1626
S'6'
p1627
aS'P'
p1628
aS'CD'
p1629
aa(lp1630
S'Hz'
p1631
aS'P'
p1632
aS'NNP'
p1633
aa(lp1634
S'to'
p1635
aS'P'
p1636
aS'TO'
p1637
aa(lp1638
S'10'
p1639
aS'P'
p1640
ag1625
aa(lp1641
S'3'
p1642
aS'P'
p1643
aS'CD'
p1644
aa(lp1645
S'Hz'
p1646
aS'P'
p1647
ag1633
aa(lp1648
S'are'
p1649
aS'A'
p1650
aS'VBP'
p1651
aa(lp1652
S'performed'
p1653
aS'A'
p1654
aS'VBN'
p1655
aa(lp1656
S'on'
p1657
aS'N'
p1658
aS'IN'
p1659
aa(lp1660
S'both'
p1661
aS'N'
p1662
aS'DT'
p1663
aa(lp1664
S'NaFePO4'
p1665
aS'I'
p1666
ag1633
aa(lp1667
S'and'
p1668
aS'N'
p1669
aS'CC'
p1670
aa(lp1671
S'LiFePO4'
p1672
aS'I'
p1673
ag1633
aa(lp1674
S'cells'
p1675
aS'I'
p1676
aS'NNS'
p1677
aa(lp1678
S'.'
p1679
aS'N'
p1680
aS'.'
p1681
aa(lp1682
g50
ag4
ag4
aa(lp1683
g52
ag4
ag4
aaa(lp1684
(lp1685
g3
ag4
ag4
aa(lp1686
g6
ag4
ag4
aa(lp1687
S'The'
p1688
aS'N'
p1689
aS'DT'
p1690
aa(lp1691
S'loading'
p1692
aS'PR'
p1693
aS'JJ'
p1694
aa(lp1695
S'amounts'
p1696
aS'PR'
p1697
aS'NNS'
p1698
aa(lp1699
S'of'
p1700
aS'N'
p1701
aS'IN'
p1702
aa(lp1703
S'active'
p1704
aS'N'
p1705
aS'JJ'
p1706
aa(lp1707
S'materials'
p1708
aS'N'
p1709
aS'NNS'
p1710
aa(lp1711
S'for'
p1712
aS'N'
p1713
aS'IN'
p1714
aa(lp1715
S'EIS'
p1716
aS'E'
p1717
aS'NNP'
p1718
aa(lp1719
S'tests'
p1720
aS'E'
p1721
ag1698
aa(lp1722
S'are'
p1723
aS'A'
p1724
aS'VBP'
p1725
aa(lp1726
S'1.7'
p1727
aS'P'
p1728
aS'CD'
p1729
aa(lp1730
S'mg'
p1731
aS'P'
p1732
aS'NN'
p1733
aa(lp1734
S'for'
p1735
aS'N'
p1736
ag1714
aa(lp1737
S'the'
p1738
aS'N'
p1739
aS'DT'
p1740
aa(lp1741
S'NaFePO4'
p1742
aS'I'
p1743
ag1718
aa(lp1744
S'cell'
p1745
aS'I'
p1746
ag1733
aa(lp1747
S'and'
p1748
aS'N'
p1749
aS'CC'
p1750
aa(lp1751
S'1.4'
p1752
aS'P'
p1753
aS'CD'
p1754
aa(lp1755
S'mg'
p1756
aS'P'
p1757
ag1733
aa(lp1758
S'for'
p1759
aS'N'
p1760
ag1714
aa(lp1761
S'the'
p1762
aS'N'
p1763
ag1740
aa(lp1764
S'cell'
p1765
aS'I'
p1766
ag1733
aa(lp1767
S','
p1768
aS'N'
p1769
aS','
p1770
aa(lp1771
S'respectively'
p1772
aS'N'
p1773
aS'RB'
p1774
aa(lp1775
S'.'
p1776
aS'N'
p1777
aS'.'
p1778
aa(lp1779
g50
ag4
ag4
aa(lp1780
g52
ag4
ag4
aaa(lp1781
(lp1782
g3
ag4
ag4
aa(lp1783
g6
ag4
ag4
aa(lp1784
S'Before'
p1785
aS'N'
p1786
aS'IN'
p1787
aa(lp1788
S'the'
p1789
aS'N'
p1790
aS'DT'
p1791
aa(lp1792
S'EIS'
p1793
aS'N'
p1794
aS'NNP'
p1795
aa(lp1796
S'tests'
p1797
aS'N'
p1798
aS'NNS'
p1799
aa(lp1800
S','
p1801
aS'N'
p1802
aS','
p1803
aa(lp1804
S'the'
p1805
aS'N'
p1806
ag1791
aa(lp1807
S'NaFePO4'
p1808
aS'I'
p1809
ag1795
aa(lp1810
S'cell'
p1811
aS'I'
p1812
aS'NN'
p1813
aa(lp1814
S'is'
p1815
aS'A'
p1816
aS'VBZ'
p1817
aa(lp1818
S'chargeddischarged'
p1819
aS'A'
p1820
aS'VBN'
p1821
aa(lp1822
S'for'
p1823
aS'N'
p1824
aS'IN'
p1825
aa(lp1826
S'20'
p1827
aS'P'
p1828
aS'CD'
p1829
aa(lp1830
S'cycles'
p1831
aS'P'
p1832
ag1799
aa(lp1833
S'and'
p1834
aS'N'
p1835
aS'CC'
p1836
aa(lp1837
S'then'
p1838
aS'N'
p1839
aS'RB'
p1840
aa(lp1841
S'discharged'
p1842
aS'A'
p1843
aS'VBD'
p1844
aa(lp1845
S'to'
p1846
aS'N'
p1847
aS'TO'
p1848
aa(lp1849
S'2'
p1850
aS'P'
p1851
aS'CD'
p1852
aa(lp1853
S'V'
p1854
aS'P'
p1855
ag1795
aa(lp1856
S'(2.5'
p1857
aS'P'
p1858
ag1795
aa(lp1859
S'V'
p1860
aS'P'
p1861
ag1795
aa(lp1862
S'for'
p1863
aS'N'
p1864
ag1825
aa(lp1865
S'the'
p1866
aS'N'
p1867
ag1791
aa(lp1868
S'LiFePO4'
p1869
aS'I'
p1870
ag1795
aa(lp1871
S'cell)'
p1872
aS'I'
p1873
ag1813
aa(lp1874
S'with'
p1875
aS'N'
p1876
aS'IN'
p1877
aa(lp1878
S'a'
p1879
aS'N'
p1880
aS'DT'
p1881
aa(lp1882
S'current'
p1883
aS'P'
p1884
aS'JJ'
p1885
aa(lp1886
S'of'
p1887
aS'P'
p1888
aS'IN'
p1889
aa(lp1890
S'0.05'
p1891
aS'P'
p1892
aS'CD'
p1893
aa(lp1894
S'C'
p1895
aS'P'
p1896
ag1795
aa(lp1897
S','
p1898
aS'A'
p1899
ag1803
aa(lp1900
S'followed'
p1901
aS'A'
p1902
ag1821
aa(lp1903
S'by'
p1904
aS'N'
p1905
aS'IN'
p1906
aa(lp1907
S'a'
p1908
aS'N'
p1909
ag1881
aa(lp1910
S'2'
p1911
aS'P'
p1912
ag1852
aa(lp1913
S'h'
p1914
aS'P'
p1915
ag1813
aa(lp1916
S'relaxation'
p1917
aS'P'
p1918
ag1813
aa(lp1919
S'.'
p1920
aS'P'
p1921
aS'.'
p1922
aa(lp1923
g50
ag4
ag4
aa(lp1924
g52
ag4
ag4
aaa(lp1925
(lp1926
g3
ag4
ag4
aa(lp1927
g6
ag4
ag4
aa(lp1928
S'Both'
p1929
aS'N'
p1930
aS'DT'
p1931
aa(lp1932
S'CV'
p1933
aS'E'
p1934
aS'NNP'
p1935
aa(lp1936
S'and'
p1937
aS'N'
p1938
aS'CC'
p1939
aa(lp1940
S'EIS'
p1941
aS'E'
p1942
ag1935
aa(lp1943
S'tests'
p1944
aS'E'
p1945
aS'NNS'
p1946
aa(lp1947
S'are'
p1948
aS'A'
p1949
aS'VBP'
p1950
aa(lp1951
S'recorded'
p1952
aS'A'
p1953
aS'VBN'
p1954
aa(lp1955
S'by'
p1956
aS'N'
p1957
aS'IN'
p1958
aa(lp1959
S'using'
p1960
aS'N'
p1961
aS'VBG'
p1962
aa(lp1963
S'Solatron'
p1964
aS'E'
p1965
ag1935
aa(lp1966
S'1260/1287'
p1967
aS'E'
p1968
aS'CD'
p1969
aa(lp1970
S'Electrochemical'
p1971
aS'E'
p1972
ag1935
aa(lp1973
S'Interface'
p1974
aS'E'
p1975
ag1935
aa(lp1976
S'(Solatron'
p1977
aS'E'
p1978
ag1935
aa(lp1979
S'Metrology'
p1980
aS'E'
p1981
ag1935
aa(lp1982
S','
p1983
aS'E'
p1984
aS','
p1985
aa(lp1986
S'UK)'
p1987
aS'E'
p1988
ag1935
aa(lp1989
S'.'
p1990
aS'E'
p1991
aS'.'
p1992
aa(lp1993
g50
ag4
ag4
aa(lp1994
g52
ag4
ag4
aaa.