(lp0
(lp1
(lp2
S'***START***'
p3
aS'None'
p4
ag4
aa(lp5
S'***START2***'
p6
ag4
ag4
aa(lp7
S'The'
p8
aS'N'
p9
aS'DT'
p10
aa(lp11
S'FePO4'
p12
aS'R'
p13
aS'NNP'
p14
aa(lp15
S'electrode'
p16
aS'R'
p17
aS'NN'
p18
aa(lp19
S'is'
p20
aS'A'
p21
aS'VBZ'
p22
aa(lp23
S'prepared'
p24
aS'A'
p25
aS'VBN'
p26
aa(lp27
S'by'
p28
aS'N'
p29
aS'IN'
p30
aa(lp31
S'the'
p32
aS'N'
p33
aS'DT'
p34
aa(lp35
S'slurry'
p36
aS'R'
p37
ag18
aa(lp38
S'coating'
p39
aS'R'
p40
aS'VBG'
p41
aa(lp42
S'method'
p43
aS'R'
p44
ag18
aa(lp45
S'.'
p46
aS'N'
p47
aS'.'
p48
aa(lp49
S'***END***'
p50
ag4
ag4
aa(lp51
S'***END2***'
p52
ag4
ag4
aaa(lp53
(lp54
g3
ag4
ag4
aa(lp55
g6
ag4
ag4
aa(lp56
S'The'
p57
aS'N'
p58
aS'DT'
p59
aa(lp60
S'material'
p61
aS'R'
p62
aS'NN'
p63
aa(lp64
S'is'
p65
aS'A'
p66
aS'VBZ'
p67
aa(lp68
S'mixed'
p69
aS'A'
p70
aS'JJ'
p71
aa(lp72
S'with'
p73
aS'N'
p74
aS'IN'
p75
aa(lp76
S'10'
p77
aS'P'
p78
aS'CD'
p79
aa(lp80
S'wt%'
p81
aS'P'
p82
ag71
aa(lp83
S'carbon'
p84
aS'R'
p85
ag63
aa(lp86
S'black'
p87
aS'R'
p88
aS'JJ'
p89
aa(lp90
S'and'
p91
aS'N'
p92
aS'CC'
p93
aa(lp94
S'8'
p95
aS'P'
p96
aS'CD'
p97
aa(lp98
S'wt%'
p99
aS'P'
p100
ag71
aa(lp101
S'polyvinylidene'
p102
aS'R'
p103
ag71
aa(lp104
S'fluoride'
p105
aS'R'
p106
ag71
aa(lp107
S'(PVDF)'
p108
aS'R'
p109
ag63
aa(lp110
S'in'
p111
aS'N'
p112
aS'IN'
p113
aa(lp114
S'1-methyl-2-pyrrolidinone'
p115
aS'R'
p116
aS'CD'
p117
aa(lp118
S'(NMP)'
p119
aS'R'
p120
ag71
aa(lp121
S'solvent'
p122
aS'R'
p123
ag63
aa(lp124
S'to'
p125
aS'N'
p126
aS'TO'
p127
aa(lp128
S'form'
p129
aS'N'
p130
aS'VB'
p131
aa(lp132
S'a'
p133
aS'N'
p134
aS'DT'
p135
aa(lp136
S'viscous'
p137
aS'R'
p138
ag71
aa(lp139
S'paste'
p140
aS'R'
p141
ag63
aa(lp142
S','
p143
aS'N'
p144
aS','
p145
aa(lp146
S'which'
p147
aS'N'
p148
aS'WDT'
p149
aa(lp150
S'is'
p151
aS'A'
p152
ag67
aa(lp153
S'then'
p154
aS'N'
p155
aS'RB'
p156
aa(lp157
S'mixed'
p158
aS'A'
p159
ag71
aa(lp160
S'for'
p161
aS'N'
p162
aS'IN'
p163
aa(lp164
S'30'
p165
aS'P'
p166
aS'CD'
p167
aa(lp168
S'min'
p169
aS'P'
p170
aS'NNS'
p171
aa(lp172
S'using'
p173
aS'N'
p174
aS'VBG'
p175
aa(lp176
S'a'
p177
aS'N'
p178
ag135
aa(lp179
S'planetary'
p180
aS'R'
p181
ag71
aa(lp182
S'ball'
p183
aS'R'
p184
ag63
aa(lp185
S'milling'
p186
aS'R'
p187
ag63
aa(lp188
S'machine'
p189
aS'R'
p190
aS'NN'
p191
aa(lp192
S'.'
p193
aS'N'
p194
aS'.'
p195
aa(lp196
g50
ag4
ag4
aa(lp197
g52
ag4
ag4
aaa(lp198
(lp199
g3
ag4
ag4
aa(lp200
g6
ag4
ag4
aa(lp201
S'The'
p202
aS'N'
p203
aS'DT'
p204
aa(lp205
S'obtained'
p206
aS'N'
p207
aS'JJ'
p208
aa(lp209
S'slurry'
p210
aS'R'
p211
aS'NN'
p212
aa(lp213
S'is'
p214
aS'A'
p215
aS'VBZ'
p216
aa(lp217
S'then'
p218
aS'N'
p219
aS'RB'
p220
aa(lp221
S'coated'
p222
aS'A'
p223
aS'VBN'
p224
aa(lp225
S'onto'
p226
aS'N'
p227
aS'IN'
p228
aa(lp229
S'aluminium'
p230
aS'R'
p231
ag212
aa(lp232
S'foil'
p233
aS'R'
p234
ag212
aa(lp235
S'and'
p236
aS'N'
p237
aS'CC'
p238
aa(lp239
S'dried'
p240
aS'A'
p241
ag224
aa(lp242
S'in'
p243
aS'N'
p244
aS'IN'
p245
aa(lp246
S'a'
p247
aS'A'
p248
aS'DT'
p249
aa(lp250
S'vacuum'
p251
aS'R'
p252
ag212
aa(lp253
S'oven'
p254
aS'R'
p255
aS'RB'
p256
aa(lp257
S'at'
p258
aS'N'
p259
aS'IN'
p260
aa(lp261
S'100C'
p262
aS'P'
p263
aS'CD'
p264
aa(lp265
S'overnight'
p266
aS'P'
p267
ag212
aa(lp268
S'.'
p269
aS'N'
p270
aS'.'
p271
aa(lp272
g50
ag4
ag4
aa(lp273
g52
ag4
ag4
aaa(lp274
(lp275
g3
ag4
ag4
aa(lp276
g6
ag4
ag4
aa(lp277
S'Coin'
p278
aS'R'
p279
aS'NNP'
p280
aa(lp281
S'cells'
p282
aS'R'
p283
aS'NNS'
p284
aa(lp285
S'consisting'
p286
aS'N'
p287
aS'VBG'
p288
aa(lp289
S'of'
p290
aS'N'
p291
aS'IN'
p292
aa(lp293
S'an'
p294
aS'N'
p295
aS'DT'
p296
aa(lp297
S'FePO4'
p298
aS'R'
p299
ag280
aa(lp300
S'cathode'
p301
aS'N'
p302
aS'NN'
p303
aa(lp304
S','
p305
aS'N'
p306
aS','
p307
aa(lp308
S'a'
p309
aS'N'
p310
aS'DT'
p311
aa(lp312
S'Na'
p313
aS'R'
p314
ag280
aa(lp315
S'foil'
p316
aS'R'
p317
ag303
aa(lp318
S'anode'
p319
aS'N'
p320
ag303
aa(lp321
S','
p322
aS'N'
p323
ag307
aa(lp324
S'Celgard'
p325
aS'R'
p326
ag280
aa(lp327
S'3501'
p328
aS'R'
p329
aS'CD'
p330
aa(lp331
S'microporous'
p332
aS'R'
p333
aS'JJ'
p334
aa(lp335
S'film'
p336
aS'R'
p337
aS'NN'
p338
aa(lp339
S'separators'
p340
aS'R'
p341
aS'NNS'
p342
aa(lp343
S','
p344
aS'N'
p345
ag307
aa(lp346
S'and'
p347
aS'N'
p348
aS'CC'
p349
aa(lp350
S'1.0'
p351
aS'P'
p352
ag330
aa(lp353
S'M'
p354
aS'P'
p355
ag280
aa(lp356
S'NaClO4'
p357
aS'R'
p358
ag280
aa(lp359
S'in'
p360
aS'N'
p361
aS'IN'
p362
aa(lp363
S'ethylene'
p364
aS'R'
p365
ag334
aa(lp366
S'carbonate'
p367
aS'R'
p368
ag303
aa(lp369
S'(EC)'
p370
aS'R'
p371
ag303
aa(lp372
S':'
p373
aS'N'
p374
aS':'
p375
aa(lp376
S'dimethyl'
p377
aS'R'
p378
ag303
aa(lp379
S'carbonate'
p380
aS'R'
p381
ag303
aa(lp382
S'(DMC)'
p383
aS'R'
p384
ag280
aa(lp385
S'(1'
p386
aS'P'
p387
ag303
aa(lp388
S':'
p389
aS'P'
p390
ag375
aa(lp391
S'1'
p392
aS'P'
p393
aS'CD'
p394
aa(lp395
S'by'
p396
aS'P'
p397
aS'IN'
p398
aa(lp399
S'volume)'
p400
aS'P'
p401
ag303
aa(lp402
S'liquid'
p403
aS'N'
p404
ag303
aa(lp405
S'electrolyte'
p406
aS'N'
p407
ag303
aa(lp408
S'are'
p409
aS'A'
p410
aS'VBP'
p411
aa(lp412
S'used'
p413
aS'A'
p414
aS'VBN'
p415
aa(lp416
S'for'
p417
aS'N'
p418
aS'IN'
p419
aa(lp420
S'electrochemical'
p421
aS'N'
p422
ag334
aa(lp423
S'measurements'
p424
aS'N'
p425
ag342
aa(lp426
S'.'
p427
aS'N'
p428
aS'.'
p429
aa(lp430
g50
ag4
ag4
aa(lp431
g52
ag4
ag4
aaa(lp432
(lp433
g3
ag4
ag4
aa(lp434
g6
ag4
ag4
aa(lp435
S'For'
p436
aS'N'
p437
aS'IN'
p438
aa(lp439
S'comparison'
p440
aS'N'
p441
aS'NN'
p442
aa(lp443
S','
p444
aS'N'
p445
aS','
p446
aa(lp447
S'coin'
p448
aS'R'
p449
ag442
aa(lp450
S'cells'
p451
aS'R'
p452
aS'NNS'
p453
aa(lp454
S'consisting'
p455
aS'N'
p456
aS'VBG'
p457
aa(lp458
S'of'
p459
aS'N'
p460
aS'IN'
p461
aa(lp462
S'an'
p463
aS'N'
p464
aS'DT'
p465
aa(lp466
S'FePO4'
p467
aS'R'
p468
aS'NNP'
p469
aa(lp470
S'cathode'
p471
aS'N'
p472
ag442
aa(lp473
S'and'
p474
aS'N'
p475
aS'CC'
p476
aa(lp477
S'a'
p478
aS'N'
p479
aS'DT'
p480
aa(lp481
S'Li'
p482
aS'R'
p483
ag469
aa(lp484
S'foil'
p485
aS'R'
p486
ag442
aa(lp487
S'anode'
p488
aS'N'
p489
ag442
aa(lp490
S'are'
p491
aS'A'
p492
aS'VBP'
p493
aa(lp494
S'also'
p495
aS'N'
p496
aS'RB'
p497
aa(lp498
S'prepared'
p499
aS'A'
p500
aS'JJ'
p501
aa(lp502
S'with'
p503
aS'N'
p504
aS'IN'
p505
aa(lp506
S'1.0'
p507
aS'P'
p508
aS'CD'
p509
aa(lp510
S'M'
p511
aS'P'
p512
ag469
aa(lp513
S'LiPF6'
p514
aS'R'
p515
ag469
aa(lp516
S'in'
p517
aS'N'
p518
aS'IN'
p519
aa(lp520
S'EC:diethyl'
p521
aS'R'
p522
ag469
aa(lp523
S'carbonate'
p524
aS'R'
p525
ag442
aa(lp526
S'(DEC)'
p527
aS'R'
p528
ag442
aa(lp529
S'as'
p530
aS'N'
p531
aS'IN'
p532
aa(lp533
S'the'
p534
aS'N'
p535
aS'DT'
p536
aa(lp537
S'liquid'
p538
aS'N'
p539
ag442
aa(lp540
S'electrolyte'
p541
aS'N'
p542
ag442
aa(lp543
S'.'
p544
aS'N'
p545
aS'.'
p546
aa(lp547
g50
ag4
ag4
aa(lp548
g52
ag4
ag4
aaa(lp549
(lp550
g3
ag4
ag4
aa(lp551
g6
ag4
ag4
aa(lp552
S'Galvanostatic'
p553
aS'R'
p554
aS'JJ'
p555
aa(lp556
S'chargedischarge'
p557
aS'R'
p558
aS'NN'
p559
aa(lp560
S'is'
p561
aS'A'
p562
aS'VBZ'
p563
aa(lp564
S'performed'
p565
aS'A'
p566
aS'VBN'
p567
aa(lp568
S'by'
p569
aS'N'
p570
aS'IN'
p571
aa(lp572
S'using'
p573
aS'N'
p574
aS'VBG'
p575
aa(lp576
S'the'
p577
aS'N'
p578
aS'DT'
p579
aa(lp580
S'Arbin'
p581
aS'R'
p582
aS'NNP'
p583
aa(lp584
S'test'
p585
aS'R'
p586
ag559
aa(lp587
S'station'
p588
aS'R'
p589
ag559
aa(lp590
S'.'
p591
aS'N'
p592
aS'.'
p593
aa(lp594
g50
ag4
ag4
aa(lp595
g52
ag4
ag4
aaa(lp596
(lp597
g3
ag4
ag4
aa(lp598
g6
ag4
ag4
aa(lp599
S'Before'
p600
aS'N'
p601
aS'IN'
p602
aa(lp603
S'any'
p604
aS'N'
p605
aS'DT'
p606
aa(lp607
S'electrochemical'
p608
aS'N'
p609
aS'JJ'
p610
aa(lp611
S'tests'
p612
aS'N'
p613
aS'NNS'
p614
aa(lp615
S','
p616
aS'N'
p617
aS','
p618
aa(lp619
S'the'
p620
aS'N'
p621
aS'DT'
p622
aa(lp623
S'Na/FePO4'
p624
aS'R'
p625
aS'NNP'
p626
aa(lp627
S'cell'
p628
aS'R'
p629
aS'NN'
p630
aa(lp631
S'is'
p632
aS'A'
p633
aS'VBZ'
p634
aa(lp635
S'discharged'
p636
aS'A'
p637
aS'VBN'
p638
aa(lp639
S'to'
p640
aS'N'
p641
aS'TO'
p642
aa(lp643
S'2.0'
p644
aS'P'
p645
aS'CD'
p646
aa(lp647
S'V'
p648
aS'P'
p649
ag626
aa(lp650
S'and'
p651
aS'N'
p652
aS'CC'
p653
aa(lp654
S'the'
p655
aS'N'
p656
ag622
aa(lp657
S'Li/FePO4'
p658
aS'R'
p659
ag626
aa(lp660
S'cell'
p661
aS'R'
p662
ag630
aa(lp663
S'is'
p664
aS'A'
p665
ag634
aa(lp666
S'discharged'
p667
aS'A'
p668
ag638
aa(lp669
S'to'
p670
aS'N'
p671
ag642
aa(lp672
S'2.5'
p673
aS'P'
p674
aS'CD'
p675
aa(lp676
S'V'
p677
aS'P'
p678
ag626
aa(lp679
S'with'
p680
aS'N'
p681
aS'IN'
p682
aa(lp683
S'a'
p684
aS'N'
p685
aS'DT'
p686
aa(lp687
S'constant'
p688
aS'P'
p689
ag610
aa(lp690
S'current'
p691
aS'P'
p692
aS'JJ'
p693
aa(lp694
S'of'
p695
aS'P'
p696
aS'IN'
p697
aa(lp698
S'0.01'
p699
aS'P'
p700
ag646
aa(lp701
S'C'
p702
aS'P'
p703
ag626
aa(lp704
S'to'
p705
aS'N'
p706
ag642
aa(lp707
S'form'
p708
aS'N'
p709
aS'VB'
p710
aa(lp711
S'NaFePO4'
p712
aS'N'
p713
ag626
aa(lp714
S'and'
p715
aS'N'
p716
ag653
aa(lp717
S'LiFePO4'
p718
aS'N'
p719
ag626
aa(lp720
S'in'
p721
aS'N'
p722
aS'IN'
p723
aa(lp724
S'the'
p725
aS'N'
p726
ag622
aa(lp727
S'cells'
p728
aS'N'
p729
aS'NNS'
p730
aa(lp731
S','
p732
aS'N'
p733
ag618
aa(lp734
S'respectively'
p735
aS'N'
p736
aS'RB'
p737
aa(lp738
S'.'
p739
aS'N'
p740
aS'.'
p741
aa(lp742
g50
ag4
ag4
aa(lp743
g52
ag4
ag4
aaa(lp744
(lp745
g3
ag4
ag4
aa(lp746
g6
ag4
ag4
aa(lp747
S'All'
p748
aS'N'
p749
aS'DT'
p750
aa(lp751
S'C-rates'
p752
aS'R'
p753
aS'NNS'
p754
aa(lp755
S'used'
p756
aS'N'
p757
aS'VBN'
p758
aa(lp759
S'in'
p760
aS'N'
p761
aS'IN'
p762
aa(lp763
S'this'
p764
aS'N'
p765
aS'DT'
p766
aa(lp767
S'study'
p768
aS'N'
p769
aS'NN'
p770
aa(lp771
S'are'
p772
aS'A'
p773
aS'VBP'
p774
aa(lp775
S'calculated'
p776
aS'A'
p777
ag758
aa(lp778
S'based'
p779
aS'N'
p780
aS'VBN'
p781
aa(lp782
S'on'
p783
aS'N'
p784
aS'IN'
p785
aa(lp786
S'the'
p787
aS'N'
p788
aS'DT'
p789
aa(lp790
S'theoretical'
p791
aS'P'
p792
aS'JJ'
p793
aa(lp794
S'capacity'
p795
aS'P'
p796
aS'NN'
p797
aa(lp798
S'of'
p799
aS'P'
p800
aS'IN'
p801
aa(lp802
S'154'
p803
aS'P'
p804
aS'CD'
p805
aa(lp806
S'mA'
p807
aS'P'
p808
ag754
aa(lp809
S'h'
p810
aS'P'
p811
ag793
aa(lp812
S'g'
p813
aS'P'
p814
ag793
aa(lp815
S'1'
p816
aS'P'
p817
aS'CD'
p818
aa(lp819
S'for'
p820
aS'P'
p821
aS'IN'
p822
aa(lp823
S'NaFePO4'
p824
aS'P'
p825
aS'NNP'
p826
aa(lp827
S'and'
p828
aS'N'
p829
aS'CC'
p830
aa(lp831
S'170'
p832
aS'P'
p833
ag805
aa(lp834
S'mA'
p835
aS'P'
p836
ag754
aa(lp837
S'h'
p838
aS'P'
p839
ag793
aa(lp840
S'g'
p841
aS'P'
p842
ag793
aa(lp843
S'1'
p844
aS'P'
p845
ag818
aa(lp846
S'for'
p847
aS'P'
p848
ag822
aa(lp849
S'LiFePO4'
p850
aS'P'
p851
ag826
aa(lp852
S'.'
p853
aS'N'
p854
aS'.'
p855
aa(lp856
g50
ag4
ag4
aa(lp857
g52
ag4
ag4
aaa(lp858
(lp859
g3
ag4
ag4
aa(lp860
g6
ag4
ag4
aa(lp861
S'The'
p862
aS'N'
p863
aS'DT'
p864
aa(lp865
S'cells'
p866
aS'N'
p867
aS'NNS'
p868
aa(lp869
S'are'
p870
aS'A'
p871
aS'VBP'
p872
aa(lp873
S'cycled'
p874
aS'A'
p875
aS'VBN'
p876
aa(lp877
S'between'
p878
aS'P'
p879
aS'IN'
p880
aa(lp881
S'2.0'
p882
aS'P'
p883
aS'CD'
p884
aa(lp885
S'and'
p886
aS'P'
p887
aS'CC'
p888
aa(lp889
S'4.0'
p890
aS'P'
p891
ag884
aa(lp892
S'V'
p893
aS'P'
p894
aS'NNP'
p895
aa(lp896
S'for'
p897
aS'N'
p898
aS'IN'
p899
aa(lp900
S'NaFePO4'
p901
aS'R'
p902
ag895
aa(lp903
S'cells'
p904
aS'R'
p905
ag868
aa(lp906
S','
p907
aS'N'
p908
aS','
p909
aa(lp910
S'and'
p911
aS'N'
p912
ag888
aa(lp913
S'between'
p914
aS'P'
p915
ag880
aa(lp916
S'2.5'
p917
aS'P'
p918
aS'CD'
p919
aa(lp920
S'and'
p921
aS'P'
p922
ag888
aa(lp923
S'4.0'
p924
aS'P'
p925
ag884
aa(lp926
S'V'
p927
aS'P'
p928
ag895
aa(lp929
S'for'
p930
aS'N'
p931
ag899
aa(lp932
S'LiFePO4'
p933
aS'R'
p934
ag895
aa(lp935
S'cells'
p936
aS'R'
p937
ag868
aa(lp938
S'at'
p939
aS'N'
p940
aS'IN'
p941
aa(lp942
S'different'
p943
aS'P'
p944
aS'JJ'
p945
aa(lp946
S'current'
p947
aS'P'
p948
aS'JJ'
p949
aa(lp950
S'rates'
p951
aS'P'
p952
aS'NNS'
p953
aa(lp954
S'.'
p955
aS'N'
p956
aS'.'
p957
aa(lp958
g50
ag4
ag4
aa(lp959
g52
ag4
ag4
aaa(lp960
(lp961
g3
ag4
ag4
aa(lp962
g6
ag4
ag4
aa(lp963
S'After'
p964
aS'N'
p965
aS'IN'
p966
aa(lp967
S'the'
p968
aS'N'
p969
aS'DT'
p970
aa(lp971
S'cell'
p972
aS'R'
p973
aS'NN'
p974
aa(lp975
S'reaches'
p976
aS'N'
p977
aS'VBZ'
p978
aa(lp979
S'the'
p980
aS'N'
p981
ag970
aa(lp982
S'cut-off'
p983
aS'P'
p984
ag974
aa(lp985
S'voltages'
p986
aS'P'
p987
aS'NNS'
p988
aa(lp989
S','
p990
aS'N'
p991
aS','
p992
aa(lp993
S'it'
p994
aS'N'
p995
aS'PRP'
p996
aa(lp997
S'is'
p998
aS'A'
p999
aS'VBZ'
p1000
aa(lp1001
S'relaxed'
p1002
aS'A'
p1003
aS'VBN'
p1004
aa(lp1005
S'for'
p1006
aS'N'
p1007
aS'IN'
p1008
aa(lp1009
S'5'
p1010
aS'P'
p1011
aS'CD'
p1012
aa(lp1013
S'min'
p1014
aS'P'
p1015
ag974
aa(lp1016
S'before'
p1017
aS'N'
p1018
aS'IN'
p1019
aa(lp1020
S'subsequent'
p1021
aS'N'
p1022
aS'JJ'
p1023
aa(lp1024
S'charge'
p1025
aS'N'
p1026
ag974
aa(lp1027
S'or'
p1028
aS'N'
p1029
aS'CC'
p1030
aa(lp1031
S'discharge'
p1032
aS'N'
p1033
ag974
aa(lp1034
S'.'
p1035
aS'N'
p1036
aS'.'
p1037
aa(lp1038
g50
ag4
ag4
aa(lp1039
g52
ag4
ag4
aaa(lp1040
(lp1041
g3
ag4
ag4
aa(lp1042
g6
ag4
ag4
aa(lp1043
S'Before'
p1044
aS'N'
p1045
aS'IN'
p1046
aa(lp1047
S'the'
p1048
aS'N'
p1049
aS'DT'
p1050
aa(lp1051
S'galvanostatic'
p1052
aS'N'
p1053
aS'JJ'
p1054
aa(lp1055
S'chargedischarge'
p1056
aS'N'
p1057
aS'NN'
p1058
aa(lp1059
S'tests'
p1060
aS'N'
p1061
aS'NNS'
p1062
aa(lp1063
S','
p1064
aS'N'
p1065
aS','
p1066
aa(lp1067
S'the'
p1068
aS'N'
p1069
ag1050
aa(lp1070
S'cells'
p1071
aS'R'
p1072
aS'NNS'
p1073
aa(lp1074
S'are'
p1075
aS'A'
p1076
aS'VBP'
p1077
aa(lp1078
S'pre-cycled'
p1079
aS'A'
p1080
ag1054
aa(lp1081
S'5'
p1082
aS'P'
p1083
aS'CD'
p1084
aa(lp1085
S'times'
p1086
aS'P'
p1087
ag1062
aa(lp1088
S'at'
p1089
aS'N'
p1090
aS'IN'
p1091
aa(lp1092
S'a'
p1093
aS'N'
p1094
aS'DT'
p1095
aa(lp1096
S'current'
p1097
aS'P'
p1098
aS'JJ'
p1099
aa(lp1100
S'of'
p1101
aS'P'
p1102
aS'IN'
p1103
aa(lp1104
S'0.1'
p1105
aS'P'
p1106
aS'CD'
p1107
aa(lp1108
S'C'
p1109
aS'P'
p1110
aS'NNP'
p1111
aa(lp1112
S'.'
p1113
aS'N'
p1114
aS'.'
p1115
aa(lp1116
g50
ag4
ag4
aa(lp1117
g52
ag4
ag4
aaa(lp1118
(lp1119
g3
ag4
ag4
aa(lp1120
g6
ag4
ag4
aa(lp1121
S'The'
p1122
aS'N'
p1123
aS'DT'
p1124
aa(lp1125
S'equilibrium'
p1126
aS'R'
p1127
aS'NN'
p1128
aa(lp1129
S'(open-circuit)'
p1130
aS'R'
p1131
aS'JJ'
p1132
aa(lp1133
S'potential'
p1134
aS'R'
p1135
ag1128
aa(lp1136
S'of'
p1137
aS'N'
p1138
aS'IN'
p1139
aa(lp1140
S'the'
p1141
aS'N'
p1142
aS'DT'
p1143
aa(lp1144
S'cells'
p1145
aS'N'
p1146
aS'NNS'
p1147
aa(lp1148
S'is'
p1149
aS'A'
p1150
aS'VBZ'
p1151
aa(lp1152
S'obtained'
p1153
aS'A'
p1154
aS'VBN'
p1155
aa(lp1156
S'by'
p1157
aS'N'
p1158
aS'IN'
p1159
aa(lp1160
S'a'
p1161
aS'N'
p1162
aS'DT'
p1163
aa(lp1164
S'galvanostatic'
p1165
aS'R'
p1166
ag1132
aa(lp1167
S'intermittent'
p1168
aS'R'
p1169
ag1128
aa(lp1170
S'titration'
p1171
aS'R'
p1172
ag1128
aa(lp1173
S'technique'
p1174
aS'R'
p1175
ag1128
aa(lp1176
S'(GITT)'
p1177
aS'R'
p1178
aS'NNP'
p1179
aa(lp1180
S','
p1181
aS'N'
p1182
aS','
p1183
aa(lp1184
S'which'
p1185
aS'N'
p1186
aS'WDT'
p1187
aa(lp1188
S'consists'
p1189
aS'N'
p1190
aS'VBZ'
p1191
aa(lp1192
S'of'
p1193
aS'N'
p1194
ag1139
aa(lp1195
S'a'
p1196
aS'N'
p1197
ag1163
aa(lp1198
S'series'
p1199
aS'P'
p1200
aS'NN'
p1201
aa(lp1202
S'of'
p1203
aS'P'
p1204
ag1139
aa(lp1205
S'current'
p1206
aS'P'
p1207
aS'JJ'
p1208
aa(lp1209
S'pulses'
p1210
aS'P'
p1211
aS'NNS'
p1212
aa(lp1213
S'at'
p1214
aS'P'
p1215
aS'IN'
p1216
aa(lp1217
S'0.025'
p1218
aS'P'
p1219
aS'CD'
p1220
aa(lp1221
S'C'
p1222
aS'P'
p1223
ag1179
aa(lp1224
S'(for'
p1225
aS'N'
p1226
aS'VBD'
p1227
aa(lp1228
S'the'
p1229
aS'N'
p1230
ag1143
aa(lp1231
S'NaFePO4'
p1232
aS'R'
p1233
ag1179
aa(lp1234
S'cell)'
p1235
aS'R'
p1236
ag1128
aa(lp1237
S'or'
p1238
aS'N'
p1239
aS'CC'
p1240
aa(lp1241
S'0.05'
p1242
aS'P'
p1243
ag1220
aa(lp1244
S'C'
p1245
aS'P'
p1246
ag1179
aa(lp1247
S'(for'
p1248
aS'N'
p1249
ag1227
aa(lp1250
S'the'
p1251
aS'N'
p1252
ag1143
aa(lp1253
S'LiFePO4'
p1254
aS'R'
p1255
ag1179
aa(lp1256
S'cell)'
p1257
aS'R'
p1258
ag1128
aa(lp1259
S'for'
p1260
aS'N'
p1261
aS'IN'
p1262
aa(lp1263
S'1'
p1264
aS'P'
p1265
aS'CD'
p1266
aa(lp1267
S'h'
p1268
aS'P'
p1269
ag1128
aa(lp1270
S','
p1271
aS'P'
p1272
ag1183
aa(lp1273
S'followed'
p1274
aS'A'
p1275
ag1155
aa(lp1276
S'by'
p1277
aS'N'
p1278
ag1159
aa(lp1279
S'a'
p1280
aS'N'
p1281
ag1163
aa(lp1282
S'15'
p1283
aS'P'
p1284
aS'CD'
p1285
aa(lp1286
S'h'
p1287
aS'P'
p1288
ag1128
aa(lp1289
S'relaxation'
p1290
aS'R'
p1291
ag1128
aa(lp1292
S'process'
p1293
aS'R'
p1294
ag1128
aa(lp1295
S'.'
p1296
aS'N'
p1297
aS'.'
p1298
aa(lp1299
g50
ag4
ag4
aa(lp1300
g52
ag4
ag4
aaa(lp1301
(lp1302
g3
ag4
ag4
aa(lp1303
g6
ag4
ag4
aa(lp1304
S'The'
p1305
aS'N'
p1306
aS'DT'
p1307
aa(lp1308
S'open-circuit-voltag'
p1309
aS'P'
p1310
aS'JJ'
p1311
aa(lp1312
S'(OCV)'
p1313
aS'P'
p1314
aS'NN'
p1315
aa(lp1316
S'at'
p1317
aS'N'
p1318
aS'IN'
p1319
aa(lp1320
S'the'
p1321
aS'N'
p1322
aS'DT'
p1323
aa(lp1324
S'end'
p1325
aS'P'
p1326
ag1315
aa(lp1327
S'of'
p1328
aS'P'
p1329
aS'IN'
p1330
aa(lp1331
S'relaxation'
p1332
aS'P'
p1333
ag1315
aa(lp1334
S'is'
p1335
aS'A'
p1336
aS'VBZ'
p1337
aa(lp1338
S'considered'
p1339
aS'A'
p1340
aS'VBN'
p1341
aa(lp1342
S'to'
p1343
aS'N'
p1344
aS'TO'
p1345
aa(lp1346
S'be'
p1347
aS'N'
p1348
aS'VB'
p1349
aa(lp1350
S'the'
p1351
aS'N'
p1352
ag1323
aa(lp1353
S'thermodynamically'
p1354
aS'R'
p1355
aS'RB'
p1356
aa(lp1357
S'equilibrium'
p1358
aS'R'
p1359
ag1311
aa(lp1360
S'potential'
p1361
aS'R'
p1362
ag1315
aa(lp1363
S'.'
p1364
aS'N'
p1365
aS'.'
p1366
aa(lp1367
g50
ag4
ag4
aa(lp1368
g52
ag4
ag4
aaa(lp1369
(lp1370
g3
ag4
ag4
aa(lp1371
g6
ag4
ag4
aa(lp1372
S'Cyclic'
p1373
aS'R'
p1374
aS'JJ'
p1375
aa(lp1376
S'voltammetry'
p1377
aS'R'
p1378
aS'NN'
p1379
aa(lp1380
S'(CV)'
p1381
aS'R'
p1382
ag1379
aa(lp1383
S'tests'
p1384
aS'R'
p1385
aS'NNS'
p1386
aa(lp1387
S'with'
p1388
aS'N'
p1389
aS'IN'
p1390
aa(lp1391
S'voltages'
p1392
aS'N'
p1393
ag1386
aa(lp1394
S'ranging'
p1395
aS'N'
p1396
aS'VBG'
p1397
aa(lp1398
S'from'
p1399
aS'P'
p1400
aS'IN'
p1401
aa(lp1402
S'2.0'
p1403
aS'P'
p1404
aS'CD'
p1405
aa(lp1406
S'V'
p1407
aS'P'
p1408
aS'NNP'
p1409
aa(lp1410
S'to'
p1411
aS'P'
p1412
aS'TO'
p1413
aa(lp1414
S'3.8'
p1415
aS'P'
p1416
ag1405
aa(lp1417
S'V'
p1418
aS'P'
p1419
ag1409
aa(lp1420
S'for'
p1421
aS'N'
p1422
aS'IN'
p1423
aa(lp1424
S'the'
p1425
aS'N'
p1426
aS'DT'
p1427
aa(lp1428
S'NaFePO4'
p1429
aS'R'
p1430
ag1409
aa(lp1431
S'cell'
p1432
aS'R'
p1433
ag1379
aa(lp1434
S'and'
p1435
aS'N'
p1436
aS'CC'
p1437
aa(lp1438
S'2.5'
p1439
aS'P'
p1440
aS'CD'
p1441
aa(lp1442
S'V'
p1443
aS'P'
p1444
ag1409
aa(lp1445
S'to'
p1446
aS'P'
p1447
ag1413
aa(lp1448
S'4.0'
p1449
aS'P'
p1450
ag1405
aa(lp1451
S'V'
p1452
aS'P'
p1453
ag1409
aa(lp1454
S'for'
p1455
aS'N'
p1456
ag1423
aa(lp1457
S'the'
p1458
aS'N'
p1459
ag1427
aa(lp1460
S'LiFePO4'
p1461
aS'R'
p1462
ag1409
aa(lp1463
S'cell'
p1464
aS'R'
p1465
ag1379
aa(lp1466
S'are'
p1467
aS'A'
p1468
aS'VBP'
p1469
aa(lp1470
S'performed'
p1471
aS'A'
p1472
aS'VBN'
p1473
aa(lp1474
S'under'
p1475
aS'N'
p1476
aS'IN'
p1477
aa(lp1478
S'various'
p1479
aS'P'
p1480
aS'JJ'
p1481
aa(lp1482
S'scan'
p1483
aS'P'
p1484
ag1375
aa(lp1485
S'rates'
p1486
aS'P'
p1487
aS'NNS'
p1488
aa(lp1489
S'.'
p1490
aS'N'
p1491
aS'.'
p1492
aa(lp1493
g50
ag4
ag4
aa(lp1494
g52
ag4
ag4
aaa(lp1495
(lp1496
g3
ag4
ag4
aa(lp1497
g6
ag4
ag4
aa(lp1498
S'Before'
p1499
aS'N'
p1500
aS'IN'
p1501
aa(lp1502
S'each'
p1503
aS'N'
p1504
aS'DT'
p1505
aa(lp1506
S'CV'
p1507
aS'N'
p1508
aS'NNP'
p1509
aa(lp1510
S'test'
p1511
aS'N'
p1512
aS'NN'
p1513
aa(lp1514
S','
p1515
aS'N'
p1516
aS','
p1517
aa(lp1518
S'the'
p1519
aS'N'
p1520
aS'DT'
p1521
aa(lp1522
S'NaFePO4'
p1523
aS'R'
p1524
ag1509
aa(lp1525
S'cell'
p1526
aS'R'
p1527
ag1513
aa(lp1528
S'is'
p1529
aS'A'
p1530
aS'VBZ'
p1531
aa(lp1532
S'galvanostatically'
p1533
aS'A'
p1534
aS'RB'
p1535
aa(lp1536
S'discharged'
p1537
aS'A'
p1538
aS'VBN'
p1539
aa(lp1540
S'to'
p1541
aS'N'
p1542
aS'TO'
p1543
aa(lp1544
S'2.0'
p1545
aS'P'
p1546
aS'CD'
p1547
aa(lp1548
S'V'
p1549
aS'P'
p1550
ag1509
aa(lp1551
S'(2.5'
p1552
aS'P'
p1553
ag1509
aa(lp1554
S'V'
p1555
aS'P'
p1556
ag1509
aa(lp1557
S'for'
p1558
aS'N'
p1559
aS'IN'
p1560
aa(lp1561
S'the'
p1562
aS'N'
p1563
ag1521
aa(lp1564
S'LiFePO4'
p1565
aS'R'
p1566
ag1509
aa(lp1567
S'cell)'
p1568
aS'R'
p1569
ag1513
aa(lp1570
S'at'
p1571
aS'N'
p1572
aS'IN'
p1573
aa(lp1574
S'a'
p1575
aS'N'
p1576
aS'DT'
p1577
aa(lp1578
S'current'
p1579
aS'P'
p1580
aS'JJ'
p1581
aa(lp1582
S'of'
p1583
aS'P'
p1584
aS'IN'
p1585
aa(lp1586
S'0.05'
p1587
aS'P'
p1588
ag1547
aa(lp1589
S'C'
p1590
aS'P'
p1591
ag1509
aa(lp1592
S'.'
p1593
aS'N'
p1594
aS'.'
p1595
aa(lp1596
g50
ag4
ag4
aa(lp1597
g52
ag4
ag4
aaa(lp1598
(lp1599
g3
ag4
ag4
aa(lp1600
g6
ag4
ag4
aa(lp1601
S'Electrochemical'
p1602
aS'R'
p1603
aS'JJ'
p1604
aa(lp1605
S'impedance'
p1606
aS'R'
p1607
aS'NN'
p1608
aa(lp1609
S'spectroscopy'
p1610
aS'R'
p1611
ag1608
aa(lp1612
S'(EIS)'
p1613
aS'R'
p1614
ag1608
aa(lp1615
S'tests'
p1616
aS'R'
p1617
aS'NNS'
p1618
aa(lp1619
S'with'
p1620
aS'N'
p1621
aS'IN'
p1622
aa(lp1623
S'frequency'
p1624
aS'P'
p1625
ag1608
aa(lp1626
S'ranging'
p1627
aS'P'
p1628
aS'VBG'
p1629
aa(lp1630
S'from'
p1631
aS'P'
p1632
aS'IN'
p1633
aa(lp1634
S'10'
p1635
aS'P'
p1636
aS'CD'
p1637
aa(lp1638
S'6'
p1639
aS'P'
p1640
aS'CD'
p1641
aa(lp1642
S'Hz'
p1643
aS'P'
p1644
aS'NNP'
p1645
aa(lp1646
S'to'
p1647
aS'P'
p1648
aS'TO'
p1649
aa(lp1650
S'10'
p1651
aS'P'
p1652
ag1637
aa(lp1653
S'3'
p1654
aS'P'
p1655
aS'CD'
p1656
aa(lp1657
S'Hz'
p1658
aS'P'
p1659
ag1645
aa(lp1660
S'are'
p1661
aS'A'
p1662
aS'VBP'
p1663
aa(lp1664
S'performed'
p1665
aS'A'
p1666
aS'VBN'
p1667
aa(lp1668
S'on'
p1669
aS'N'
p1670
aS'IN'
p1671
aa(lp1672
S'both'
p1673
aS'N'
p1674
aS'DT'
p1675
aa(lp1676
S'NaFePO4'
p1677
aS'R'
p1678
ag1645
aa(lp1679
S'and'
p1680
aS'N'
p1681
aS'CC'
p1682
aa(lp1683
S'LiFePO4'
p1684
aS'R'
p1685
ag1645
aa(lp1686
S'cells'
p1687
aS'R'
p1688
aS'NNS'
p1689
aa(lp1690
S'.'
p1691
aS'N'
p1692
aS'.'
p1693
aa(lp1694
g50
ag4
ag4
aa(lp1695
g52
ag4
ag4
aaa(lp1696
(lp1697
g3
ag4
ag4
aa(lp1698
g6
ag4
ag4
aa(lp1699
S'The'
p1700
aS'N'
p1701
aS'DT'
p1702
aa(lp1703
S'loading'
p1704
aS'R'
p1705
aS'JJ'
p1706
aa(lp1707
S'amounts'
p1708
aS'R'
p1709
aS'NNS'
p1710
aa(lp1711
S'of'
p1712
aS'N'
p1713
aS'IN'
p1714
aa(lp1715
S'active'
p1716
aS'N'
p1717
aS'JJ'
p1718
aa(lp1719
S'materials'
p1720
aS'N'
p1721
aS'NNS'
p1722
aa(lp1723
S'for'
p1724
aS'N'
p1725
aS'IN'
p1726
aa(lp1727
S'EIS'
p1728
aS'R'
p1729
aS'NNP'
p1730
aa(lp1731
S'tests'
p1732
aS'R'
p1733
ag1710
aa(lp1734
S'are'
p1735
aS'A'
p1736
aS'VBP'
p1737
aa(lp1738
S'1.7'
p1739
aS'P'
p1740
aS'CD'
p1741
aa(lp1742
S'mg'
p1743
aS'P'
p1744
aS'NN'
p1745
aa(lp1746
S'for'
p1747
aS'N'
p1748
ag1726
aa(lp1749
S'the'
p1750
aS'N'
p1751
aS'DT'
p1752
aa(lp1753
S'NaFePO4'
p1754
aS'R'
p1755
ag1730
aa(lp1756
S'cell'
p1757
aS'R'
p1758
ag1745
aa(lp1759
S'and'
p1760
aS'N'
p1761
aS'CC'
p1762
aa(lp1763
S'1.4'
p1764
aS'P'
p1765
aS'CD'
p1766
aa(lp1767
S'mg'
p1768
aS'P'
p1769
ag1745
aa(lp1770
S'for'
p1771
aS'N'
p1772
ag1726
aa(lp1773
S'the'
p1774
aS'N'
p1775
ag1752
aa(lp1776
S'LiFePO4'
p1777
aS'R'
p1778
ag1730
aa(lp1779
S'cell'
p1780
aS'R'
p1781
ag1745
aa(lp1782
S','
p1783
aS'N'
p1784
aS','
p1785
aa(lp1786
S'respectively'
p1787
aS'N'
p1788
aS'RB'
p1789
aa(lp1790
S'.'
p1791
aS'N'
p1792
aS'.'
p1793
aa(lp1794
g50
ag4
ag4
aa(lp1795
g52
ag4
ag4
aaa(lp1796
(lp1797
g3
ag4
ag4
aa(lp1798
g6
ag4
ag4
aa(lp1799
S'Before'
p1800
aS'N'
p1801
aS'IN'
p1802
aa(lp1803
S'the'
p1804
aS'N'
p1805
aS'DT'
p1806
aa(lp1807
S'EIS'
p1808
aS'N'
p1809
aS'NNP'
p1810
aa(lp1811
S'tests'
p1812
aS'N'
p1813
aS'NNS'
p1814
aa(lp1815
S','
p1816
aS'N'
p1817
aS','
p1818
aa(lp1819
S'the'
p1820
aS'N'
p1821
ag1806
aa(lp1822
S'NaFePO4'
p1823
aS'R'
p1824
ag1810
aa(lp1825
S'cell'
p1826
aS'R'
p1827
aS'NN'
p1828
aa(lp1829
S'is'
p1830
aS'A'
p1831
aS'VBZ'
p1832
aa(lp1833
S'chargeddischarged'
p1834
aS'A'
p1835
aS'VBN'
p1836
aa(lp1837
S'for'
p1838
aS'N'
p1839
aS'IN'
p1840
aa(lp1841
S'20'
p1842
aS'P'
p1843
aS'CD'
p1844
aa(lp1845
S'cycles'
p1846
aS'P'
p1847
ag1814
aa(lp1848
S'and'
p1849
aS'N'
p1850
aS'CC'
p1851
aa(lp1852
S'then'
p1853
aS'N'
p1854
aS'RB'
p1855
aa(lp1856
S'discharged'
p1857
aS'A'
p1858
aS'VBD'
p1859
aa(lp1860
S'to'
p1861
aS'N'
p1862
aS'TO'
p1863
aa(lp1864
S'2'
p1865
aS'P'
p1866
aS'CD'
p1867
aa(lp1868
S'V'
p1869
aS'P'
p1870
ag1810
aa(lp1871
S'(2.5'
p1872
aS'P'
p1873
ag1810
aa(lp1874
S'V'
p1875
aS'P'
p1876
ag1810
aa(lp1877
S'for'
p1878
aS'N'
p1879
ag1840
aa(lp1880
S'the'
p1881
aS'N'
p1882
ag1806
aa(lp1883
S'LiFePO4'
p1884
aS'R'
p1885
ag1810
aa(lp1886
S'cell)'
p1887
aS'R'
p1888
ag1828
aa(lp1889
S'with'
p1890
aS'N'
p1891
aS'IN'
p1892
aa(lp1893
S'a'
p1894
aS'N'
p1895
aS'DT'
p1896
aa(lp1897
S'current'
p1898
aS'P'
p1899
aS'JJ'
p1900
aa(lp1901
S'of'
p1902
aS'P'
p1903
aS'IN'
p1904
aa(lp1905
S'0.05'
p1906
aS'P'
p1907
aS'CD'
p1908
aa(lp1909
S'C'
p1910
aS'P'
p1911
ag1810
aa(lp1912
S','
p1913
aS'N'
p1914
ag1818
aa(lp1915
S'followed'
p1916
aS'A'
p1917
ag1836
aa(lp1918
S'by'
p1919
aS'N'
p1920
aS'IN'
p1921
aa(lp1922
S'a'
p1923
aS'N'
p1924
ag1896
aa(lp1925
S'2'
p1926
aS'P'
p1927
ag1867
aa(lp1928
S'h'
p1929
aS'P'
p1930
ag1828
aa(lp1931
S'relaxation'
p1932
aS'P'
p1933
ag1828
aa(lp1934
S'.'
p1935
aS'N'
p1936
aS'.'
p1937
aa(lp1938
g50
ag4
ag4
aa(lp1939
g52
ag4
ag4
aaa(lp1940
(lp1941
g3
ag4
ag4
aa(lp1942
g6
ag4
ag4
aa(lp1943
S'Both'
p1944
aS'N'
p1945
aS'DT'
p1946
aa(lp1947
S'CV'
p1948
aS'R'
p1949
aS'NNP'
p1950
aa(lp1951
S'and'
p1952
aS'N'
p1953
aS'CC'
p1954
aa(lp1955
S'EIS'
p1956
aS'R'
p1957
ag1950
aa(lp1958
S'tests'
p1959
aS'R'
p1960
aS'NNS'
p1961
aa(lp1962
S'are'
p1963
aS'A'
p1964
aS'VBP'
p1965
aa(lp1966
S'recorded'
p1967
aS'A'
p1968
aS'VBN'
p1969
aa(lp1970
S'by'
p1971
aS'N'
p1972
aS'IN'
p1973
aa(lp1974
S'using'
p1975
aS'N'
p1976
aS'VBG'
p1977
aa(lp1978
S'Solatron'
p1979
aS'R'
p1980
ag1950
aa(lp1981
S'1260/1287'
p1982
aS'R'
p1983
aS'CD'
p1984
aa(lp1985
S'Electrochemical'
p1986
aS'R'
p1987
ag1950
aa(lp1988
S'Interface'
p1989
aS'R'
p1990
ag1950
aa(lp1991
S'(Solatron'
p1992
aS'N'
p1993
ag1950
aa(lp1994
S'Metrology'
p1995
aS'N'
p1996
ag1950
aa(lp1997
S','
p1998
aS'N'
p1999
aS','
p2000
aa(lp2001
S'UK)'
p2002
aS'N'
p2003
ag1950
aa(lp2004
S'.'
p2005
aS'N'
p2006
aS'.'
p2007
aa(lp2008
g50
ag4
ag4
aa(lp2009
g52
ag4
ag4
aaa.