(lp0
(lp1
(lp2
S'***START***'
p3
aS'None'
p4
ag4
aa(lp5
S'***START2***'
p6
ag4
ag4
aa(lp7
S'Machine'
p8
aS'P'
p9
aS'NN'
p10
aa(lp11
S'made'
p12
aS'P'
p13
aS'VBD'
p14
aa(lp15
S'220'
p16
aS'P'
p17
aS'CD'
p18
aa(lp19
S'and'
p20
aS'P'
p21
aS'CC'
p22
aa(lp23
S'240'
p24
aS'P'
p25
ag18
aa(lp26
S'mAh'
p27
aS'P'
p28
aS'NNS'
p29
aa(lp30
S'NMC442/graphite'
p31
aS'PR'
p32
aS'NNP'
p33
aa(lp34
S'wound'
p35
aS'PR'
p36
ag14
aa(lp37
S'pouch'
p38
aS'PR'
p39
aS'JJ'
p40
aa(lp41
S'cells'
p42
aS'PR'
p43
aS'NNS'
p44
aa(lp45
S'balanced'
p46
aS'P'
p47
ag14
aa(lp48
S'for'
p49
aS'P'
p50
aS'IN'
p51
aa(lp52
S'4.7'
p53
aS'P'
p54
ag18
aa(lp55
S'V'
p56
aS'P'
p57
ag33
aa(lp58
S'operation'
p59
aS'P'
p60
aS'NN'
p61
aa(lp62
S'were'
p63
aS'A'
p64
aS'VBD'
p65
aa(lp66
S'obtained'
p67
aS'A'
p68
aS'VBN'
p69
aa(lp70
S'dry'
p71
aS'N'
p72
ag40
aa(lp73
S'(no'
p74
aS'N'
p75
ag33
aa(lp76
S'electrolyte'
p77
aS'N'
p78
ag10
aa(lp79
S'added)'
p80
aS'N'
p81
ag10
aa(lp82
S'from'
p83
aS'N'
p84
aS'IN'
p85
aa(lp86
S'LiFUN'
p87
aS'E'
p88
ag33
aa(lp89
S'Technologies'
p90
aS'E'
p91
aS'NNPS'
p92
aa(lp93
S'(Zhuzhou'
p94
aS'N'
p95
ag33
aa(lp96
S'City,'
p97
aS'N'
p98
ag33
aa(lp99
S'China)'
p100
aS'N'
p101
ag33
aa(lp102
S'.'
p103
aS'N'
p104
aS'.'
p105
aa(lp106
S'***END***'
p107
ag4
ag4
aa(lp108
S'***END2***'
p109
ag4
ag4
aaa(lp110
(lp111
g3
ag4
ag4
aa(lp112
g6
ag4
ag4
aa(lp113
S'Pouch'
p114
aS'N'
p115
aS'JJ'
p116
aa(lp117
S'cells'
p118
aS'N'
p119
aS'NNS'
p120
aa(lp121
S'were'
p122
aS'N'
p123
aS'VBD'
p124
aa(lp125
S'manufactured'
p126
aS'N'
p127
aS'VBN'
p128
aa(lp129
S'and'
p130
aS'N'
p131
aS'CC'
p132
aa(lp133
S'vacuum'
p134
aS'N'
p135
aS'NN'
p136
aa(lp137
S'sealed'
p138
aS'N'
p139
ag128
aa(lp140
S'in'
p141
aS'N'
p142
aS'IN'
p143
aa(lp144
S'a'
p145
aS'N'
p146
aS'DT'
p147
aa(lp148
S'dry'
p149
aS'N'
p150
ag116
aa(lp151
S'room'
p152
aS'N'
p153
aS'NN'
p154
aa(lp155
S'in'
p156
aS'N'
p157
ag143
aa(lp158
S'China'
p159
aS'N'
p160
aS'NNP'
p161
aa(lp162
S'before'
p163
aS'N'
p164
aS'IN'
p165
aa(lp166
S'shipping'
p167
aS'N'
p168
aS'VBG'
p169
aa(lp170
S'to'
p171
aS'N'
p172
aS'TO'
p173
aa(lp174
S'Dalhousie'
p175
aS'N'
p176
aS'NNP'
p177
aa(lp178
S'University'
p179
aS'N'
p180
aS'NNP'
p181
aa(lp182
S'.'
p183
aS'N'
p184
aS'.'
p185
aa(lp186
g107
ag4
ag4
aa(lp187
g109
ag4
ag4
aaa(lp188
(lp189
g3
ag4
ag4
aa(lp190
g6
ag4
ag4
aa(lp191
S'After'
p192
aS'N'
p193
aS'IN'
p194
aa(lp195
S'heating'
p196
aS'A'
p197
aS'VBG'
p198
aa(lp199
S'to'
p200
aS'N'
p201
aS'TO'
p202
aa(lp203
S'80C'
p204
aS'P'
p205
aS'CD'
p206
aa(lp207
S'for'
p208
aS'N'
p209
aS'IN'
p210
aa(lp211
S'14'
p212
aS'P'
p213
aS'CD'
p214
aa(lp215
S'hours'
p216
aS'P'
p217
aS'NNS'
p218
aa(lp219
S'under'
p220
aS'N'
p221
aS'IN'
p222
aa(lp223
S'vacuum'
p224
aS'P'
p225
aS'NN'
p226
aa(lp227
S'to'
p228
aS'N'
p229
ag202
aa(lp230
S'remove'
p231
aS'N'
p232
aS'VB'
p233
aa(lp234
S'any'
p235
aS'N'
p236
aS'DT'
p237
aa(lp238
S'residual'
p239
aS'N'
p240
aS'JJ'
p241
aa(lp242
S'water'
p243
aS'N'
p244
aS'NN'
p245
aa(lp246
S'and'
p247
aS'N'
p248
aS'CC'
p249
aa(lp250
S'then'
p251
aS'N'
p252
aS'RB'
p253
aa(lp254
S'moved'
p255
aS'A'
p256
aS'VBD'
p257
aa(lp258
S'into'
p259
aS'N'
p260
aS'IN'
p261
aa(lp262
S'an'
p263
aS'N'
p264
aS'DT'
p265
aa(lp266
S'argon-filled'
p267
aS'E'
p268
ag241
aa(lp269
S'glove'
p270
aS'E'
p271
ag226
aa(lp272
S'box'
p273
aS'E'
p274
ag226
aa(lp275
S','
p276
aS'N'
p277
aS','
p278
aa(lp279
S'the'
p280
aS'N'
p281
aS'DT'
p282
aa(lp283
S'pouch'
p284
aS'R'
p285
ag241
aa(lp286
S'cells'
p287
aS'R'
p288
aS'NNS'
p289
aa(lp290
S'were'
p291
aS'A'
p292
aS'VBD'
p293
aa(lp294
S'filled'
p295
aS'A'
p296
aS'VBN'
p297
aa(lp298
S'with'
p299
aS'N'
p300
aS'IN'
p301
aa(lp302
S'0.90'
p303
aS'P'
p304
ag206
aa(lp305
S'g'
p306
aS'P'
p307
aS'NNS'
p308
aa(lp309
S'of'
p310
aS'N'
p311
aS'IN'
p312
aa(lp313
S'1M'
p314
aS'P'
p315
ag206
aa(lp316
S'LiPF6'
p317
aS'I'
p318
aS'NNP'
p319
aa(lp320
S'in'
p321
aS'N'
p322
aS'IN'
p323
aa(lp324
S'ethylene'
p325
aS'I'
p326
ag241
aa(lp327
S'carbonate'
p328
aS'I'
p329
ag226
aa(lp330
S'(EC):'
p331
aS'I'
p332
ag319
aa(lp333
S'ethylmethyl'
p334
aS'I'
p335
ag226
aa(lp336
S'carbonate'
p337
aS'I'
p338
ag226
aa(lp339
S'(EMC)'
p340
aS'I'
p341
ag319
aa(lp342
S'(BASF)'
p343
aS'N'
p344
ag319
aa(lp345
S'in'
p346
aS'N'
p347
ag323
aa(lp348
S'a'
p349
aS'N'
p350
aS'DT'
p351
aa(lp352
S'ratio'
p353
aS'P'
p354
ag226
aa(lp355
S'of'
p356
aS'P'
p357
ag312
aa(lp358
S'3:7'
p359
aS'P'
p360
ag206
aa(lp361
S'(by'
p362
aS'P'
p363
ag241
aa(lp364
S'weight)'
p365
aS'P'
p366
ag226
aa(lp367
S'as'
p368
aS'N'
p369
aS'IN'
p370
aa(lp371
S'the'
p372
aS'N'
p373
ag282
aa(lp374
S'control'
p375
aS'PR'
p376
ag226
aa(lp377
S'electrolyte'
p378
aS'PR'
p379
ag226
aa(lp380
S'.'
p381
aS'N'
p382
aS'.'
p383
aa(lp384
g107
ag4
ag4
aa(lp385
g109
ag4
ag4
aaa(lp386
(lp387
g3
ag4
ag4
aa(lp388
g6
ag4
ag4
aa(lp389
S'The'
p390
aS'N'
p391
aS'DT'
p392
aa(lp393
S'additives'
p394
aS'N'
p395
aS'NNS'
p396
aa(lp397
S'VC'
p398
aS'I'
p399
aS'NNP'
p400
aa(lp401
S'(BASF'
p402
aS'N'
p403
ag400
aa(lp404
S','
p405
aS'N'
p406
aS','
p407
aa(lp408
S'99.97%)'
p409
aS'P'
p410
aS'CD'
p411
aa(lp412
S','
p413
aS'N'
p414
ag407
aa(lp415
S'PES'
p416
aS'I'
p417
ag400
aa(lp418
S'(Lianchuang'
p419
aS'N'
p420
ag400
aa(lp421
S'Medicinal'
p422
aS'N'
p423
ag400
aa(lp424
S'Co.'
p425
aS'N'
p426
aS'NNP'
p427
aa(lp428
S','
p429
aS'N'
p430
ag407
aa(lp431
S'98.20%)'
p432
aS'P'
p433
ag411
aa(lp434
S','
p435
aS'N'
p436
ag407
aa(lp437
S'dioxathiolane-2,2-dioxide'
p438
aS'I'
p439
aS'JJ'
p440
aa(lp441
S'(DTD'
p442
aS'N'
p443
aS'NN'
p444
aa(lp445
S','
p446
aS'N'
p447
ag407
aa(lp448
S'Aldrich'
p449
aS'N'
p450
ag400
aa(lp451
S','
p452
aS'N'
p453
ag407
aa(lp454
S'98%)'
p455
aS'P'
p456
ag411
aa(lp457
S','
p458
aS'N'
p459
ag407
aa(lp460
S'MMDS'
p461
aS'I'
p462
ag400
aa(lp463
S'(Guangzhou'
p464
aS'N'
p465
ag400
aa(lp466
S'Tinci'
p467
aS'N'
p468
ag400
aa(lp469
S'Co.'
p470
aS'N'
p471
ag427
aa(lp472
S'Ltd'
p473
aS'N'
p474
aS'NNP'
p475
aa(lp476
S','
p477
aS'N'
p478
ag407
aa(lp479
S'98.70%)'
p480
aS'P'
p481
ag411
aa(lp482
S','
p483
aS'N'
p484
ag407
aa(lp485
S'triallyl'
p486
aS'I'
p487
ag444
aa(lp488
S'phosphate'
p489
aS'I'
p490
ag444
aa(lp491
S'(TAP'
p492
aS'N'
p493
ag400
aa(lp494
S','
p495
aS'N'
p496
ag407
aa(lp497
S'TCI'
p498
aS'N'
p499
ag400
aa(lp500
S'America'
p501
aS'N'
p502
aS'NNP'
p503
aa(lp504
S','
p505
aS'N'
p506
ag407
aa(lp507
S'>94.0%)'
p508
aS'P'
p509
ag400
aa(lp510
S','
p511
aS'N'
p512
ag407
aa(lp513
S'18'
p514
aS'I'
p515
aS'CD'
p516
aa(lp517
S'and'
p518
aS'N'
p519
aS'CC'
p520
aa(lp521
S'TTSPi'
p522
aS'I'
p523
ag400
aa(lp524
S'(TCI'
p525
aS'N'
p526
ag400
aa(lp527
S'America'
p528
aS'N'
p529
ag503
aa(lp530
S','
p531
aS'N'
p532
ag407
aa(lp533
S'>95%)'
p534
aS'P'
p535
ag400
aa(lp536
S'were'
p537
aS'A'
p538
aS'VBD'
p539
aa(lp540
S'added'
p541
aS'A'
p542
aS'VBN'
p543
aa(lp544
S'alone'
p545
aS'N'
p546
aS'RB'
p547
aa(lp548
S'or'
p549
aS'N'
p550
aS'CC'
p551
aa(lp552
S'in'
p553
aS'N'
p554
aS'IN'
p555
aa(lp556
S'ternary'
p557
aS'N'
p558
ag440
aa(lp559
S'combinations'
p560
aS'N'
p561
ag396
aa(lp562
S'to'
p563
aS'N'
p564
aS'TO'
p565
aa(lp566
S'the'
p567
aS'N'
p568
aS'DT'
p569
aa(lp570
S'control'
p571
aS'R'
p572
ag444
aa(lp573
S'electrolyte'
p574
aS'R'
p575
ag444
aa(lp576
S','
p577
aS'N'
p578
ag407
aa(lp579
S'in'
p580
aS'N'
p581
ag555
aa(lp582
S'concentrations'
p583
aS'P'
p584
ag396
aa(lp585
S'of'
p586
aS'P'
p587
aS'IN'
p588
aa(lp589
S'1'
p590
aS'P'
p591
aS'CD'
p592
aa(lp593
S'or'
p594
aS'P'
p595
ag551
aa(lp596
S'2%'
p597
aS'P'
p598
ag411
aa(lp599
S'by'
p600
aS'P'
p601
aS'IN'
p602
aa(lp603
S'weight'
p604
aS'P'
p605
ag444
aa(lp606
S'.'
p607
aS'N'
p608
aS'.'
p609
aa(lp610
g107
ag4
ag4
aa(lp611
g109
ag4
ag4
aaa(lp612
(lp613
g3
ag4
ag4
aa(lp614
g6
ag4
ag4
aa(lp615
S'Figure'
p616
aS'N'
p617
aS'NN'
p618
aa(lp619
S'2'
p620
aS'N'
p621
aS'CD'
p622
aa(lp623
S'shows'
p624
aS'N'
p625
aS'VBZ'
p626
aa(lp627
S'the'
p628
aS'N'
p629
aS'DT'
p630
aa(lp631
S'chemical'
p632
aS'N'
p633
ag618
aa(lp634
S'structures'
p635
aS'N'
p636
aS'NNS'
p637
aa(lp638
S'of'
p639
aS'N'
p640
aS'IN'
p641
aa(lp642
S'the'
p643
aS'N'
p644
ag630
aa(lp645
S'additives'
p646
aS'N'
p647
ag637
aa(lp648
S'studied'
p649
aS'N'
p650
aS'VBN'
p651
aa(lp652
S'in'
p653
aS'N'
p654
aS'IN'
p655
aa(lp656
S'this'
p657
aS'N'
p658
aS'DT'
p659
aa(lp660
S'work'
p661
aS'N'
p662
ag618
aa(lp663
S'.'
p664
aS'N'
p665
aS'.'
p666
aa(lp667
g107
ag4
ag4
aa(lp668
g109
ag4
ag4
aaa(lp669
(lp670
g3
ag4
ag4
aa(lp671
g6
ag4
ag4
aa(lp672
S'Cells'
p673
aS'R'
p674
aS'NNS'
p675
aa(lp676
S'were'
p677
aS'A'
p678
aS'VBD'
p679
aa(lp680
S'vacuum'
p681
aS'A'
p682
aS'RB'
p683
aa(lp684
S'sealed'
p685
aS'A'
p686
aS'VBN'
p687
aa(lp688
S'using'
p689
aS'N'
p690
aS'VBG'
p691
aa(lp692
S'a'
p693
aS'N'
p694
aS'DT'
p695
aa(lp696
S'compact'
p697
aS'I'
p698
aS'JJ'
p699
aa(lp700
S'vacuum'
p701
aS'I'
p702
ag683
aa(lp703
S'sealer'
p704
aS'I'
p705
aS'NN'
p706
aa(lp707
S'(MTI'
p708
aS'N'
p709
aS'NNP'
p710
aa(lp711
S'Corp.)'
p712
aS'N'
p713
ag710
aa(lp714
S'after'
p715
aS'N'
p716
aS'IN'
p717
aa(lp718
S'electrolyte'
p719
aS'N'
p720
ag699
aa(lp721
S'filling'
p722
aS'N'
p723
ag706
aa(lp724
S'.'
p725
aS'N'
p726
aS'.'
p727
aa(lp728
g107
ag4
ag4
aa(lp729
g109
ag4
ag4
aaa(lp730
(lp731
g3
ag4
ag4
aa(lp732
g6
ag4
ag4
aa(lp733
S'All'
p734
aS'N'
p735
aS'DT'
p736
aa(lp737
S'cells'
p738
aS'R'
p739
aS'NNS'
p740
aa(lp741
S'did'
p742
aS'A'
p743
aS'VBD'
p744
aa(lp745
S'a'
p746
aS'N'
p747
aS'DT'
p748
aa(lp749
S'formation'
p750
aS'E'
p751
aS'NN'
p752
aa(lp753
S'cycle'
p754
aS'E'
p755
aS'NN'
p756
aa(lp757
S'at'
p758
aS'N'
p759
aS'IN'
p760
aa(lp761
S'40.'
p762
aS'P'
p763
aS'CD'
p764
aa(lp765
S'plus/minus'
p766
aS'P'
p767
ag752
aa(lp768
S'0.1C'
p769
aS'P'
p770
ag764
aa(lp771
S','
p772
aS'N'
p773
aS','
p774
aa(lp775
S'consisting'
p776
aS'N'
p777
aS'VBG'
p778
aa(lp779
S'of'
p780
aS'N'
p781
aS'IN'
p782
aa(lp783
S'a'
p784
aS'N'
p785
ag748
aa(lp786
S'24'
p787
aS'P'
p788
aS'CD'
p789
aa(lp790
S'hour'
p791
aS'P'
p792
aS'NN'
p793
aa(lp794
S'hold'
p795
aS'P'
p796
ag752
aa(lp797
S'at'
p798
aS'P'
p799
ag760
aa(lp800
S'1.5'
p801
aS'P'
p802
aS'CD'
p803
aa(lp804
S'V'
p805
aS'P'
p806
aS'NNP'
p807
aa(lp808
S'to'
p809
aS'N'
p810
aS'TO'
p811
aa(lp812
S'ensure'
p813
aS'N'
p814
aS'VB'
p815
aa(lp816
S'adequate'
p817
aS'N'
p818
aS'JJ'
p819
aa(lp820
S'electrolyte'
p821
aS'N'
p822
ag752
aa(lp823
S'wetting'
p824
aS'N'
p825
ag778
aa(lp826
S'followed'
p827
aS'N'
p828
aS'VBN'
p829
aa(lp830
S'by'
p831
aS'N'
p832
aS'IN'
p833
aa(lp834
S'a'
p835
aS'N'
p836
ag748
aa(lp837
S'C/20'
p838
aS'P'
p839
ag807
aa(lp840
S'charge'
p841
aS'P'
p842
ag752
aa(lp843
S'to'
p844
aS'P'
p845
ag811
aa(lp846
S'3.5'
p847
aS'P'
p848
ag764
aa(lp849
S'V'
p850
aS'P'
p851
ag807
aa(lp852
S'.'
p853
aS'N'
p854
aS'.'
p855
aa(lp856
g107
ag4
ag4
aa(lp857
g109
ag4
ag4
aaa(lp858
(lp859
g3
ag4
ag4
aa(lp860
g6
ag4
ag4
aa(lp861
S'After'
p862
aS'N'
p863
aS'IN'
p864
aa(lp865
S'this'
p866
aS'N'
p867
aS'DT'
p868
aa(lp869
S'step'
p870
aS'N'
p871
aS'NN'
p872
aa(lp873
S','
p874
aS'N'
p875
aS','
p876
aa(lp877
S'cells'
p878
aS'R'
p879
aS'NNS'
p880
aa(lp881
S'were'
p882
aS'A'
p883
aS'VBD'
p884
aa(lp885
S'transferred'
p886
aS'A'
p887
aS'VBN'
p888
aa(lp889
S'into'
p890
aS'N'
p891
aS'IN'
p892
aa(lp893
S'an'
p894
aS'N'
p895
aS'DT'
p896
aa(lp897
S'argon-filled'
p898
aS'E'
p899
aS'JJ'
p900
aa(lp901
S'glove'
p902
aS'E'
p903
ag872
aa(lp904
S'box'
p905
aS'E'
p906
ag872
aa(lp907
S','
p908
aS'N'
p909
ag876
aa(lp910
S'cut'
p911
aS'A'
p912
aS'VB'
p913
aa(lp914
S'open'
p915
aS'A'
p916
ag900
aa(lp917
S'just'
p918
aS'N'
p919
aS'RB'
p920
aa(lp921
S'below'
p922
aS'N'
p923
aS'IN'
p924
aa(lp925
S'the'
p926
aS'N'
p927
aS'DT'
p928
aa(lp929
S'heat'
p930
aS'P'
p931
ag872
aa(lp932
S'seal'
p933
aS'P'
p934
ag872
aa(lp935
S'to'
p936
aS'N'
p937
aS'TO'
p938
aa(lp939
S'release'
p940
aS'N'
p941
ag913
aa(lp942
S'generated'
p943
aS'N'
p944
ag888
aa(lp945
S'gas'
p946
aS'N'
p947
aS'NN'
p948
aa(lp949
S'and'
p950
aS'N'
p951
aS'CC'
p952
aa(lp953
S'then'
p954
aS'N'
p955
aS'RB'
p956
aa(lp957
S'vacuum'
p958
aS'A'
p959
ag872
aa(lp960
S'sealed'
p961
aS'A'
p962
aS'VBD'
p963
aa(lp964
S'again'
p965
aS'N'
p966
aS'RB'
p967
aa(lp968
S'.'
p969
aS'N'
p970
aS'.'
p971
aa(lp972
g107
ag4
ag4
aa(lp973
g109
ag4
ag4
aaa(lp974
(lp975
g3
ag4
ag4
aa(lp976
g6
ag4
ag4
aa(lp977
S'After'
p978
aS'N'
p979
aS'IN'
p980
aa(lp981
S'degassing'
p982
aS'N'
p983
aS'VBG'
p984
aa(lp985
S','
p986
aS'N'
p987
aS','
p988
aa(lp989
S'the'
p990
aS'N'
p991
aS'DT'
p992
aa(lp993
S'cells'
p994
aS'R'
p995
aS'NNS'
p996
aa(lp997
S'were'
p998
aS'A'
p999
aS'VBD'
p1000
aa(lp1001
S'charged'
p1002
aS'A'
p1003
aS'VBN'
p1004
aa(lp1005
S'to'
p1006
aS'N'
p1007
aS'TO'
p1008
aa(lp1009
S'4.5'
p1010
aS'P'
p1011
aS'CD'
p1012
aa(lp1013
S'V'
p1014
aS'P'
p1015
aS'NNP'
p1016
aa(lp1017
S'at'
p1018
aS'N'
p1019
aS'IN'
p1020
aa(lp1021
S'C/20'
p1022
aS'P'
p1023
ag1016
aa(lp1024
S'followed'
p1025
aS'N'
p1026
ag1004
aa(lp1027
S'by'
p1028
aS'N'
p1029
aS'IN'
p1030
aa(lp1031
S'a'
p1032
aS'N'
p1033
aS'DT'
p1034
aa(lp1035
S'C/20'
p1036
aS'P'
p1037
ag1016
aa(lp1038
S'discharge'
p1039
aS'A'
p1040
aS'NN'
p1041
aa(lp1042
S'to'
p1043
aS'N'
p1044
ag1008
aa(lp1045
S'3.8'
p1046
aS'P'
p1047
aS'CD'
p1048
aa(lp1049
S'V'
p1050
aS'P'
p1051
ag1016
aa(lp1052
S'.'
p1053
aS'N'
p1054
aS'.'
p1055
aa(lp1056
g107
ag4
ag4
aa(lp1057
g109
ag4
ag4
aaa(lp1058
(lp1059
g3
ag4
ag4
aa(lp1060
g6
ag4
ag4
aa(lp1061
S'The'
p1062
aS'N'
p1063
aS'DT'
p1064
aa(lp1065
S'temperature'
p1066
aS'N'
p1067
aS'NN'
p1068
aa(lp1069
S'boxes'
p1070
aS'N'
p1071
aS'NNS'
p1072
aa(lp1073
S'used'
p1074
aS'N'
p1075
aS'VBN'
p1076
aa(lp1077
S'for'
p1078
aS'N'
p1079
aS'IN'
p1080
aa(lp1081
S'the'
p1082
aS'N'
p1083
aS'DT'
p1084
aa(lp1085
S'measurements'
p1086
aS'N'
p1087
ag1072
aa(lp1088
S'presented'
p1089
aS'N'
p1090
ag1076
aa(lp1091
S'in'
p1092
aS'N'
p1093
aS'IN'
p1094
aa(lp1095
S'this'
p1096
aS'N'
p1097
aS'DT'
p1098
aa(lp1099
S'work'
p1100
aS'N'
p1101
ag1068
aa(lp1102
S'are'
p1103
aS'N'
p1104
aS'VBP'
p1105
aa(lp1106
S'stable'
p1107
aS'N'
p1108
aS'JJ'
p1109
aa(lp1110
S'to'
p1111
aS'N'
p1112
aS'TO'
p1113
aa(lp1114
S'plus/minus'
p1115
aS'N'
p1116
aS'VB'
p1117
aa(lp1118
S'0.1C'
p1119
aS'N'
p1120
aS'CD'
p1121
aa(lp1122
S','
p1123
aS'N'
p1124
aS','
p1125
aa(lp1126
S'and'
p1127
aS'N'
p1128
aS'CC'
p1129
aa(lp1130
S'are'
p1131
aS'N'
p1132
ag1105
aa(lp1133
S'within'
p1134
aS'N'
p1135
aS'IN'
p1136
aa(lp1137
S'one'
p1138
aS'N'
p1139
ag1121
aa(lp1140
S'degree'
p1141
aS'N'
p1142
ag1068
aa(lp1143
S'centigrade'
p1144
aS'N'
p1145
ag1068
aa(lp1146
S'of'
p1147
aS'N'
p1148
aS'IN'
p1149
aa(lp1150
S'the'
p1151
aS'N'
p1152
ag1084
aa(lp1153
S'set'
p1154
aS'N'
p1155
ag1068
aa(lp1156
S'temperature'
p1157
aS'N'
p1158
ag1068
aa(lp1159
S'.'
p1160
aS'N'
p1161
aS'.'
p1162
aa(lp1163
g107
ag4
ag4
aa(lp1164
g109
ag4
ag4
aaa(lp1165
(lp1166
g3
ag4
ag4
aa(lp1167
g6
ag4
ag4
aa(lp1168
S'After'
p1169
aS'N'
p1170
aS'IN'
p1171
aa(lp1172
S'formation'
p1173
aS'N'
p1174
aS'NN'
p1175
aa(lp1176
S','
p1177
aS'N'
p1178
aS','
p1179
aa(lp1180
S'these'
p1181
aS'N'
p1182
aS'DT'
p1183
aa(lp1184
S'cells'
p1185
aS'R'
p1186
aS'NNS'
p1187
aa(lp1188
S'were'
p1189
aS'A'
p1190
aS'VBD'
p1191
aa(lp1192
S'placed'
p1193
aS'A'
p1194
aS'VBN'
p1195
aa(lp1196
S'in'
p1197
aS'N'
p1198
aS'IN'
p1199
aa(lp1200
S'a'
p1201
aS'N'
p1202
aS'DT'
p1203
aa(lp1204
S'40.'
p1205
aS'P'
p1206
aS'CD'
p1207
aa(lp1208
S'plus/minus'
p1209
aS'P'
p1210
ag1175
aa(lp1211
S'0.1C'
p1212
aS'P'
p1213
ag1207
aa(lp1214
S'temperature'
p1215
aS'E'
p1216
ag1175
aa(lp1217
S'box'
p1218
aS'E'
p1219
ag1175
aa(lp1220
S'connected'
p1221
aS'N'
p1222
aS'VBD'
p1223
aa(lp1224
S'to'
p1225
aS'N'
p1226
aS'TO'
p1227
aa(lp1228
S'one'
p1229
aS'N'
p1230
ag1207
aa(lp1231
S'of'
p1232
aS'N'
p1233
aS'IN'
p1234
aa(lp1235
S'two'
p1236
aS'N'
p1237
aS'CD'
p1238
aa(lp1239
S'systems'
p1240
aS'N'
p1241
aS'NNS'
p1242
aa(lp1243
S'capable'
p1244
aS'N'
p1245
aS'JJ'
p1246
aa(lp1247
S'of'
p1248
aS'N'
p1249
ag1234
aa(lp1250
S'electrochemical'
p1251
aS'N'
p1252
ag1246
aa(lp1253
S'impedance'
p1254
aS'N'
p1255
ag1175
aa(lp1256
S'spectroscopy'
p1257
aS'N'
p1258
ag1175
aa(lp1259
S'measurements'
p1260
aS'N'
p1261
aS'NNS'
p1262
aa(lp1263
S'coupled'
p1264
aS'N'
p1265
ag1195
aa(lp1266
S'with'
p1267
aS'N'
p1268
aS'IN'
p1269
aa(lp1270
S'cycling'
p1271
aS'N'
p1272
ag1175
aa(lp1273
S'capabilities'
p1274
aS'N'
p1275
ag1262
aa(lp1276
S'.'
p1277
aS'N'
p1278
aS'.'
p1279
aa(lp1280
g107
ag4
ag4
aa(lp1281
g109
ag4
ag4
aaa(lp1282
(lp1283
g3
ag4
ag4
aa(lp1284
g6
ag4
ag4
aa(lp1285
S'The'
p1286
aS'N'
p1287
aS'DT'
p1288
aa(lp1289
S'first'
p1290
aS'N'
p1291
aS'JJ'
p1292
aa(lp1293
S'system'
p1294
aS'N'
p1295
aS'NN'
p1296
aa(lp1297
S'consists'
p1298
aS'N'
p1299
aS'VBZ'
p1300
aa(lp1301
S'of'
p1302
aS'N'
p1303
aS'IN'
p1304
aa(lp1305
S'a'
p1306
aS'N'
p1307
aS'DT'
p1308
aa(lp1309
S'Maccor'
p1310
aS'E'
p1311
aS'NNP'
p1312
aa(lp1313
S'series'
p1314
aS'E'
p1315
aS'NN'
p1316
aa(lp1317
S'4000'
p1318
aS'E'
p1319
aS'CD'
p1320
aa(lp1321
S'connected'
p1322
aS'N'
p1323
aS'VBD'
p1324
aa(lp1325
S'to'
p1326
aS'N'
p1327
aS'TO'
p1328
aa(lp1329
S'a'
p1330
aS'N'
p1331
ag1308
aa(lp1332
S'Maccor'
p1333
aS'E'
p1334
ag1312
aa(lp1335
S'FRA'
p1336
aS'E'
p1337
ag1312
aa(lp1338
S'model'
p1339
aS'E'
p1340
aS'NN'
p1341
aa(lp1342
S'0356'
p1343
aS'E'
p1344
ag1320
aa(lp1345
S'.'
p1346
aS'E'
p1347
aS'.'
p1348
aa(lp1349
g107
ag4
ag4
aa(lp1350
g109
ag4
ag4
aaa(lp1351
(lp1352
g3
ag4
ag4
aa(lp1353
g6
ag4
ag4
aa(lp1354
S'The'
p1355
aS'N'
p1356
aS'DT'
p1357
aa(lp1358
S'second'
p1359
aS'N'
p1360
aS'JJ'
p1361
aa(lp1362
S'system'
p1363
aS'N'
p1364
aS'NN'
p1365
aa(lp1366
S','
p1367
aS'N'
p1368
aS','
p1369
aa(lp1370
S'built'
p1371
aS'N'
p1372
aS'VBN'
p1373
aa(lp1374
S'in-house'
p1375
aS'N'
p1376
aS'NN'
p1377
aa(lp1378
S'by'
p1379
aS'N'
p1380
aS'IN'
p1381
aa(lp1382
S'Greg'
p1383
aS'N'
p1384
aS'NNP'
p1385
aa(lp1386
S'dEon'
p1387
aS'N'
p1388
ag1377
aa(lp1389
S'from'
p1390
aS'N'
p1391
aS'IN'
p1392
aa(lp1393
S'Dalhousie'
p1394
aS'N'
p1395
ag1385
aa(lp1396
S'University'
p1397
aS'N'
p1398
aS'NNP'
p1399
aa(lp1400
S','
p1401
aS'N'
p1402
ag1369
aa(lp1403
S'consists'
p1404
aS'N'
p1405
aS'VBZ'
p1406
aa(lp1407
S'of'
p1408
aS'N'
p1409
aS'IN'
p1410
aa(lp1411
S'Neware'
p1412
aS'E'
p1413
ag1385
aa(lp1414
S'(Shenzhen'
p1415
aS'N'
p1416
ag1385
aa(lp1417
S','
p1418
aS'N'
p1419
ag1369
aa(lp1420
S'China)'
p1421
aS'N'
p1422
ag1385
aa(lp1423
S'cyclers'
p1424
aS'E'
p1425
aS'NNS'
p1426
aa(lp1427
S'connected'
p1428
aS'N'
p1429
aS'VBD'
p1430
aa(lp1431
S'to'
p1432
aS'N'
p1433
aS'TO'
p1434
aa(lp1435
S'computers'
p1436
aS'N'
p1437
aS'NNS'
p1438
aa(lp1439
S'with'
p1440
aS'N'
p1441
aS'IN'
p1442
aa(lp1443
S'Gamry'
p1444
aS'E'
p1445
ag1385
aa(lp1446
S'frequency'
p1447
aS'E'
p1448
ag1377
aa(lp1449
S'response'
p1450
aS'E'
p1451
aS'NN'
p1452
aa(lp1453
S'analyzer'
p1454
aS'E'
p1455
ag1377
aa(lp1456
S'(FRA)'
p1457
aS'E'
p1458
ag1361
aa(lp1459
S'cards'
p1460
aS'E'
p1461
ag1426
aa(lp1462
S'via'
p1463
aS'N'
p1464
aS'IN'
p1465
aa(lp1466
S'appropriate'
p1467
aS'N'
p1468
ag1361
aa(lp1469
S'computer'
p1470
aS'N'
p1471
aS'NN'
p1472
aa(lp1473
S'controlled'
p1474
aS'N'
p1475
ag1430
aa(lp1476
S'relays'
p1477
aS'N'
p1478
ag1426
aa(lp1479
S'.'
p1480
aS'N'
p1481
aS'.'
p1482
aa(lp1483
g107
ag4
ag4
aa(lp1484
g109
ag4
ag4
aaa(lp1485
(lp1486
g3
ag4
ag4
aa(lp1487
g6
ag4
ag4
aa(lp1488
S'The'
p1489
aS'N'
p1490
aS'DT'
p1491
aa(lp1492
S'relay'
p1493
aS'R'
p1494
aS'NN'
p1495
aa(lp1496
S'switching'
p1497
aS'R'
p1498
ag1495
aa(lp1499
S'was'
p1500
aS'A'
p1501
aS'VBD'
p1502
aa(lp1503
S'controlled'
p1504
aS'A'
p1505
aS'VBN'
p1506
aa(lp1507
S'to'
p1508
aS'N'
p1509
aS'TO'
p1510
aa(lp1511
S'connect'
p1512
aS'P'
p1513
aS'VB'
p1514
aa(lp1515
S'the'
p1516
aS'N'
p1517
aS'DT'
p1518
aa(lp1519
S'cells'
p1520
aS'R'
p1521
aS'NNS'
p1522
aa(lp1523
S'to'
p1524
aS'N'
p1525
ag1510
aa(lp1526
S'the'
p1527
aS'N'
p1528
ag1518
aa(lp1529
S'Neware'
p1530
aS'E'
p1531
aS'NNP'
p1532
aa(lp1533
S'charger'
p1534
aS'E'
p1535
ag1495
aa(lp1536
S'or'
p1537
aS'N'
p1538
aS'CC'
p1539
aa(lp1540
S'to'
p1541
aS'N'
p1542
ag1510
aa(lp1543
S'the'
p1544
aS'N'
p1545
ag1518
aa(lp1546
S'Gamry'
p1547
aS'E'
p1548
ag1532
aa(lp1549
S'FRA'
p1550
aS'E'
p1551
ag1532
aa(lp1552
S'cards'
p1553
aS'E'
p1554
aS'NNS'
p1555
aa(lp1556
S'as'
p1557
aS'N'
p1558
aS'IN'
p1559
aa(lp1560
S'required'
p1561
aS'N'
p1562
ag1506
aa(lp1563
S'.'
p1564
aS'N'
p1565
aS'.'
p1566
aa(lp1567
g107
ag4
ag4
aa(lp1568
g109
ag4
ag4
aaa(lp1569
(lp1570
g3
ag4
ag4
aa(lp1571
g6
ag4
ag4
aa(lp1572
S'Cells'
p1573
aS'R'
p1574
aS'NNP'
p1575
aa(lp1576
S'underwent'
p1577
aS'A'
p1578
aS'JJ'
p1579
aa(lp1580
S'charge-discharge'
p1581
aS'E'
p1582
aS'NN'
p1583
aa(lp1584
S'cycling'
p1585
aS'E'
p1586
ag1583
aa(lp1587
S'by'
p1588
aS'N'
p1589
aS'IN'
p1590
aa(lp1591
S'one'
p1592
aS'N'
p1593
aS'CD'
p1594
aa(lp1595
S'of'
p1596
aS'N'
p1597
aS'IN'
p1598
aa(lp1599
S'two'
p1600
aS'N'
p1601
aS'CD'
p1602
aa(lp1603
S'methods'
p1604
aS'N'
p1605
aS'NNS'
p1606
aa(lp1607
S','
p1608
aS'N'
p1609
aS','
p1610
aa(lp1611
S'as'
p1612
aS'N'
p1613
aS'IN'
p1614
aa(lp1615
S'shown'
p1616
aS'N'
p1617
aS'VBN'
p1618
aa(lp1619
S'in'
p1620
aS'N'
p1621
aS'IN'
p1622
aa(lp1623
S'Figure'
p1624
aS'N'
p1625
ag1575
aa(lp1626
S'3'
p1627
aS'N'
p1628
ag1594
aa(lp1629
S'.'
p1630
aS'N'
p1631
aS'.'
p1632
aa(lp1633
g107
ag4
ag4
aa(lp1634
g109
ag4
ag4
aaa(lp1635
(lp1636
g3
ag4
ag4
aa(lp1637
g6
ag4
ag4
aa(lp1638
S'The'
p1639
aS'N'
p1640
aS'DT'
p1641
aa(lp1642
S'time'
p1643
aS'N'
p1644
aS'NN'
p1645
aa(lp1646
S'axis'
p1647
aS'N'
p1648
aS'NN'
p1649
aa(lp1650
S'is'
p1651
aS'N'
p1652
aS'VBZ'
p1653
aa(lp1654
S'simply'
p1655
aS'N'
p1656
aS'RB'
p1657
aa(lp1658
S'provided'
p1659
aS'N'
p1660
aS'VBN'
p1661
aa(lp1662
S'as'
p1663
aS'N'
p1664
aS'IN'
p1665
aa(lp1666
S'a'
p1667
aS'N'
p1668
aS'DT'
p1669
aa(lp1670
S'scale'
p1671
aS'N'
p1672
ag1649
aa(lp1673
S','
p1674
aS'N'
p1675
aS','
p1676
aa(lp1677
S'not'
p1678
aS'N'
p1679
aS'RB'
p1680
aa(lp1681
S'as'
p1682
aS'N'
p1683
ag1665
aa(lp1684
S'the'
p1685
aS'N'
p1686
aS'DT'
p1687
aa(lp1688
S'specific'
p1689
aS'N'
p1690
aS'JJ'
p1691
aa(lp1692
S'time'
p1693
aS'N'
p1694
ag1645
aa(lp1695
S'cycles'
p1696
aS'N'
p1697
aS'NNS'
p1698
aa(lp1699
S'occurred'
p1700
aS'N'
p1701
aS'VBD'
p1702
aa(lp1703
S'in'
p1704
aS'N'
p1705
aS'IN'
p1706
aa(lp1707
S'the'
p1708
aS'N'
p1709
ag1687
aa(lp1710
S'experimental'
p1711
aS'N'
p1712
ag1691
aa(lp1713
S'method'
p1714
aS'N'
p1715
ag1649
aa(lp1716
S'.'
p1717
aS'N'
p1718
aS'.'
p1719
aa(lp1720
g107
ag4
ag4
aa(lp1721
g109
ag4
ag4
aaa(lp1722
(lp1723
g3
ag4
ag4
aa(lp1724
g6
ag4
ag4
aa(lp1725
S'Cells'
p1726
aS'N'
p1727
aS'NNS'
p1728
aa(lp1729
S'undergoing'
p1730
aS'P'
p1731
aS'VBG'
p1732
aa(lp1733
S'method'
p1734
aS'P'
p1735
aS'NN'
p1736
aa(lp1737
S'1'
p1738
aS'P'
p1739
aS'CD'
p1740
aa(lp1741
S'were'
p1742
aS'A'
p1743
aS'VBD'
p1744
aa(lp1745
S'cycled'
p1746
aS'A'
p1747
aS'VBN'
p1748
aa(lp1749
S'between'
p1750
aS'P'
p1751
aS'IN'
p1752
aa(lp1753
S'2.8'
p1754
aS'P'
p1755
aS'CD'
p1756
aa(lp1757
S'and'
p1758
aS'P'
p1759
aS'CC'
p1760
aa(lp1761
S'4.4'
p1762
aS'P'
p1763
ag1756
aa(lp1764
S'V'
p1765
aS'P'
p1766
aS'NNP'
p1767
aa(lp1768
S'at'
p1769
aS'N'
p1770
aS'IN'
p1771
aa(lp1772
S'C/5'
p1773
aS'P'
p1774
ag1767
aa(lp1775
S'and'
p1776
aS'N'
p1777
ag1760
aa(lp1778
S'40.'
p1779
aS'P'
p1780
ag1756
aa(lp1781
S'plus/minus'
p1782
aS'P'
p1783
ag1736
aa(lp1784
S'0.1C'
p1785
aS'P'
p1786
ag1756
aa(lp1787
S'.'
p1788
aS'N'
p1789
aS'.'
p1790
aa(lp1791
g107
ag4
ag4
aa(lp1792
g109
ag4
ag4
aaa(lp1793
(lp1794
g3
ag4
ag4
aa(lp1795
g6
ag4
ag4
aa(lp1796
S'Every'
p1797
aS'P'
p1798
aS'DT'
p1799
aa(lp1800
S'12'
p1801
aS'P'
p1802
aS'CD'
p1803
aa(lp1804
S'cycles'
p1805
aS'P'
p1806
aS'NNS'
p1807
aa(lp1808
S','
p1809
aS'N'
p1810
aS','
p1811
aa(lp1812
S'the'
p1813
aS'N'
p1814
aS'DT'
p1815
aa(lp1816
S'cells'
p1817
aS'R'
p1818
aS'NNS'
p1819
aa(lp1820
S'underwent'
p1821
aS'A'
p1822
aS'VBD'
p1823
aa(lp1824
S'an'
p1825
aS'N'
p1826
ag1799
aa(lp1827
S'FRA'
p1828
aS'E'
p1829
aS'NNP'
p1830
aa(lp1831
S'cycle'
p1832
aS'E'
p1833
aS'NN'
p1834
aa(lp1835
S'consisting'
p1836
aS'N'
p1837
aS'VBG'
p1838
aa(lp1839
S'of'
p1840
aS'N'
p1841
aS'IN'
p1842
aa(lp1843
S'a'
p1844
aS'N'
p1845
aS'DT'
p1846
aa(lp1847
S'charge'
p1848
aS'P'
p1849
aS'NN'
p1850
aa(lp1851
S'and'
p1852
aS'N'
p1853
aS'CC'
p1854
aa(lp1855
S'discharge'
p1856
aS'P'
p1857
ag1850
aa(lp1858
S'at'
p1859
aS'N'
p1860
aS'IN'
p1861
aa(lp1862
S'C/20'
p1863
aS'P'
p1864
ag1830
aa(lp1865
S'between'
p1866
aS'P'
p1867
aS'IN'
p1868
aa(lp1869
S'2.8'
p1870
aS'P'
p1871
aS'CD'
p1872
aa(lp1873
S'and'
p1874
aS'N'
p1875
ag1854
aa(lp1876
S'4.4'
p1877
aS'P'
p1878
ag1872
aa(lp1879
S'V'
p1880
aS'P'
p1881
ag1830
aa(lp1882
S'while'
p1883
aS'N'
p1884
aS'IN'
p1885
aa(lp1886
S'the'
p1887
aS'N'
p1888
ag1815
aa(lp1889
S'FRA'
p1890
aS'E'
p1891
ag1830
aa(lp1892
S'measured'
p1893
aS'A'
p1894
ag1823
aa(lp1895
S'the'
p1896
aS'N'
p1897
ag1815
aa(lp1898
S'cell'
p1899
aS'R'
p1900
ag1850
aa(lp1901
S'impedance'
p1902
aS'E'
p1903
ag1850
aa(lp1904
S'every'
p1905
aS'P'
p1906
aS'DT'
p1907
aa(lp1908
S'0.1'
p1909
aS'P'
p1910
ag1872
aa(lp1911
S'V'
p1912
aS'P'
p1913
ag1830
aa(lp1914
S'between'
p1915
aS'P'
p1916
ag1868
aa(lp1917
S'3.6'
p1918
aS'P'
p1919
ag1872
aa(lp1920
S'and'
p1921
aS'P'
p1922
ag1854
aa(lp1923
S'4.4'
p1924
aS'P'
p1925
ag1872
aa(lp1926
S'V'
p1927
aS'P'
p1928
ag1830
aa(lp1929
S'.'
p1930
aS'N'
p1931
aS'.'
p1932
aa(lp1933
g107
ag4
ag4
aa(lp1934
g109
ag4
ag4
aaa(lp1935
(lp1936
g3
ag4
ag4
aa(lp1937
g6
ag4
ag4
aa(lp1938
S'After'
p1939
aS'N'
p1940
aS'IN'
p1941
aa(lp1942
S'the'
p1943
aS'N'
p1944
aS'DT'
p1945
aa(lp1946
S'FRA'
p1947
aS'N'
p1948
aS'NNP'
p1949
aa(lp1950
S'cycle'
p1951
aS'N'
p1952
aS'NN'
p1953
aa(lp1954
S','
p1955
aS'N'
p1956
aS','
p1957
aa(lp1958
S'the'
p1959
aS'N'
p1960
ag1945
aa(lp1961
S'cells'
p1962
aS'R'
p1963
aS'NNS'
p1964
aa(lp1965
S'were'
p1966
aS'A'
p1967
aS'VBD'
p1968
aa(lp1969
S'cycled'
p1970
aS'A'
p1971
aS'VBN'
p1972
aa(lp1973
S'again'
p1974
aS'N'
p1975
aS'RB'
p1976
aa(lp1977
S'between'
p1978
aS'P'
p1979
aS'IN'
p1980
aa(lp1981
S'2.8'
p1982
aS'P'
p1983
aS'CD'
p1984
aa(lp1985
S'and'
p1986
aS'P'
p1987
aS'CC'
p1988
aa(lp1989
S'4.4'
p1990
aS'P'
p1991
ag1984
aa(lp1992
S'V'
p1993
aS'P'
p1994
ag1949
aa(lp1995
S'at'
p1996
aS'N'
p1997
aS'IN'
p1998
aa(lp1999
S'C/5'
p2000
aS'P'
p2001
ag1949
aa(lp2002
S'for'
p2003
aS'N'
p2004
aS'IN'
p2005
aa(lp2006
S'11'
p2007
aS'P'
p2008
aS'CD'
p2009
aa(lp2010
S'cycles'
p2011
aS'P'
p2012
aS'NNS'
p2013
aa(lp2014
S','
p2015
aS'P'
p2016
ag1957
aa(lp2017
S'and'
p2018
aS'N'
p2019
ag1988
aa(lp2020
S'the'
p2021
aS'N'
p2022
ag1945
aa(lp2023
S'protocol'
p2024
aS'R'
p2025
aS'NN'
p2026
aa(lp2027
S'was'
p2028
aS'A'
p2029
aS'VBD'
p2030
aa(lp2031
S'repeated'
p2032
aS'A'
p2033
ag1972
aa(lp2034
S'.'
p2035
aS'N'
p2036
aS'.'
p2037
aa(lp2038
g107
ag4
ag4
aa(lp2039
g109
ag4
ag4
aaa(lp2040
(lp2041
g3
ag4
ag4
aa(lp2042
g6
ag4
ag4
aa(lp2043
S'After'
p2044
aS'N'
p2045
aS'IN'
p2046
aa(lp2047
S'approximately'
p2048
aS'N'
p2049
aS'RB'
p2050
aa(lp2051
S'65'
p2052
aS'N'
p2053
aS'CD'
p2054
aa(lp2055
S'cycles'
p2056
aS'N'
p2057
aS'NNS'
p2058
aa(lp2059
S','
p2060
aS'N'
p2061
aS','
p2062
aa(lp2063
S'the'
p2064
aS'N'
p2065
aS'DT'
p2066
aa(lp2067
S'upper'
p2068
aS'PR'
p2069
aS'JJ'
p2070
aa(lp2071
S'cutoff'
p2072
aS'PR'
p2073
aS'NN'
p2074
aa(lp2075
S'voltage'
p2076
aS'PR'
p2077
ag2074
aa(lp2078
S'during'
p2079
aS'N'
p2080
aS'IN'
p2081
aa(lp2082
S'cycling'
p2083
aS'E'
p2084
ag2074
aa(lp2085
S'and'
p2086
aS'N'
p2087
aS'CC'
p2088
aa(lp2089
S'impedance'
p2090
aS'E'
p2091
ag2074
aa(lp2092
S'measurements'
p2093
aS'E'
p2094
ag2058
aa(lp2095
S'was'
p2096
aS'A'
p2097
aS'VBD'
p2098
aa(lp2099
S'increased'
p2100
aS'A'
p2101
aS'VBN'
p2102
aa(lp2103
S'to'
p2104
aS'N'
p2105
aS'TO'
p2106
aa(lp2107
S'4.5'
p2108
aS'P'
p2109
aS'CD'
p2110
aa(lp2111
S'V'
p2112
aS'P'
p2113
aS'NNP'
p2114
aa(lp2115
S','
p2116
aS'N'
p2117
ag2062
aa(lp2118
S'and'
p2119
aS'N'
p2120
ag2088
aa(lp2121
S'the'
p2122
aS'N'
p2123
ag2066
aa(lp2124
S'same'
p2125
aS'N'
p2126
aS'JJ'
p2127
aa(lp2128
S'11'
p2129
aS'P'
p2130
aS'CD'
p2131
aa(lp2132
S'cycle-FRA-cycle'
p2133
aS'E'
p2134
ag2074
aa(lp2135
S'protocol'
p2136
aS'E'
p2137
ag2074
aa(lp2138
S'continued'
p2139
aS'A'
p2140
ag2098
aa(lp2141
S','
p2142
aS'N'
p2143
ag2062
aa(lp2144
S'as'
p2145
aS'N'
p2146
aS'IN'
p2147
aa(lp2148
S'shown'
p2149
aS'N'
p2150
aS'VBN'
p2151
aa(lp2152
S'in'
p2153
aS'N'
p2154
aS'IN'
p2155
aa(lp2156
S'Figure'
p2157
aS'N'
p2158
ag2114
aa(lp2159
S'3'
p2160
aS'N'
p2161
ag2054
aa(lp2162
S'.'
p2163
aS'N'
p2164
aS'.'
p2165
aa(lp2166
g107
ag4
ag4
aa(lp2167
g109
ag4
ag4
aaa(lp2168
(lp2169
g3
ag4
ag4
aa(lp2170
g6
ag4
ag4
aa(lp2171
S'Cells'
p2172
aS'R'
p2173
aS'NNS'
p2174
aa(lp2175
S'undergoing'
p2176
aS'P'
p2177
aS'VBG'
p2178
aa(lp2179
S'method'
p2180
aS'P'
p2181
aS'NN'
p2182
aa(lp2183
S'2'
p2184
aS'P'
p2185
aS'CD'
p2186
aa(lp2187
S'were'
p2188
aS'A'
p2189
aS'VBD'
p2190
aa(lp2191
S'cycled'
p2192
aS'A'
p2193
aS'VBN'
p2194
aa(lp2195
S'between'
p2196
aS'P'
p2197
aS'IN'
p2198
aa(lp2199
S'2.8'
p2200
aS'P'
p2201
aS'CD'
p2202
aa(lp2203
S'and'
p2204
aS'P'
p2205
aS'CC'
p2206
aa(lp2207
S'4.4'
p2208
aS'P'
p2209
ag2202
aa(lp2210
S'V'
p2211
aS'P'
p2212
aS'NNP'
p2213
aa(lp2214
S'at'
p2215
aS'N'
p2216
aS'IN'
p2217
aa(lp2218
S'C/5'
p2219
aS'P'
p2220
ag2213
aa(lp2221
S'and'
p2222
aS'N'
p2223
ag2206
aa(lp2224
S'40.'
p2225
aS'P'
p2226
ag2202
aa(lp2227
S'plus/minus'
p2228
aS'P'
p2229
ag2174
aa(lp2230
S'0.1C'
p2231
aS'P'
p2232
ag2202
aa(lp2233
S'including'
p2234
aS'N'
p2235
aS'VBG'
p2236
aa(lp2237
S'a'
p2238
aS'N'
p2239
aS'DT'
p2240
aa(lp2241
S'20'
p2242
aS'P'
p2243
aS'CD'
p2244
aa(lp2245
S'or'
p2246
aS'P'
p2247
aS'CC'
p2248
aa(lp2249
S'24'
p2250
aS'P'
p2251
aS'CD'
p2252
aa(lp2253
S'hr'
p2254
aS'P'
p2255
ag2182
aa(lp2256
S'hold'
p2257
aS'P'
p2258
ag2182
aa(lp2259
S'at'
p2260
aS'P'
p2261
ag2217
aa(lp2262
S'4.4'
p2263
aS'P'
p2264
ag2202
aa(lp2265
S'V'
p2266
aS'P'
p2267
ag2213
aa(lp2268
S'.'
p2269
aS'N'
p2270
aS'.'
p2271
aa(lp2272
g107
ag4
ag4
aa(lp2273
g109
ag4
ag4
aaa(lp2274
(lp2275
g3
ag4
ag4
aa(lp2276
g6
ag4
ag4
aa(lp2277
S'Every'
p2278
aS'P'
p2279
aS'DT'
p2280
aa(lp2281
S'4'
p2282
aS'P'
p2283
aS'CD'
p2284
aa(lp2285
S'cycles'
p2286
aS'P'
p2287
aS'NNS'
p2288
aa(lp2289
S','
p2290
aS'N'
p2291
aS','
p2292
aa(lp2293
S'the'
p2294
aS'N'
p2295
aS'DT'
p2296
aa(lp2297
S'cells'
p2298
aS'R'
p2299
aS'NNS'
p2300
aa(lp2301
S'underwent'
p2302
aS'A'
p2303
aS'VBD'
p2304
aa(lp2305
S'an'
p2306
aS'N'
p2307
ag2280
aa(lp2308
S'FRA'
p2309
aS'E'
p2310
aS'NNP'
p2311
aa(lp2312
S'cycle'
p2313
aS'E'
p2314
aS'NN'
p2315
aa(lp2316
S'as'
p2317
aS'N'
p2318
aS'IN'
p2319
aa(lp2320
S'described'
p2321
aS'N'
p2322
aS'VBN'
p2323
aa(lp2324
S'in'
p2325
aS'N'
p2326
aS'IN'
p2327
aa(lp2328
S'method'
p2329
aS'N'
p2330
aS'NN'
p2331
aa(lp2332
S'1'
p2333
aS'N'
p2334
aS'CD'
p2335
aa(lp2336
S'.'
p2337
aS'N'
p2338
aS'.'
p2339
aa(lp2340
g107
ag4
ag4
aa(lp2341
g109
ag4
ag4
aaa(lp2342
(lp2343
g3
ag4
ag4
aa(lp2344
g6
ag4
ag4
aa(lp2345
S'After'
p2346
aS'N'
p2347
aS'IN'
p2348
aa(lp2349
S'the'
p2350
aS'N'
p2351
aS'DT'
p2352
aa(lp2353
S'FRA'
p2354
aS'N'
p2355
aS'NNP'
p2356
aa(lp2357
S'cycle'
p2358
aS'N'
p2359
aS'NN'
p2360
aa(lp2361
S','
p2362
aS'N'
p2363
aS','
p2364
aa(lp2365
S'the'
p2366
aS'N'
p2367
ag2352
aa(lp2368
S'cells'
p2369
aS'R'
p2370
aS'NNS'
p2371
aa(lp2372
S'were'
p2373
aS'A'
p2374
aS'VBD'
p2375
aa(lp2376
S'cycled'
p2377
aS'A'
p2378
aS'VBN'
p2379
aa(lp2380
S'again'
p2381
aS'N'
p2382
aS'RB'
p2383
aa(lp2384
S'between'
p2385
aS'N'
p2386
aS'IN'
p2387
aa(lp2388
S'2.8'
p2389
aS'P'
p2390
aS'CD'
p2391
aa(lp2392
S'and'
p2393
aS'P'
p2394
aS'CC'
p2395
aa(lp2396
S'4.4'
p2397
aS'P'
p2398
ag2391
aa(lp2399
S'V'
p2400
aS'P'
p2401
ag2356
aa(lp2402
S'at'
p2403
aS'N'
p2404
aS'IN'
p2405
aa(lp2406
S'C/5'
p2407
aS'P'
p2408
ag2356
aa(lp2409
S'for'
p2410
aS'N'
p2411
aS'IN'
p2412
aa(lp2413
S'3'
p2414
aS'P'
p2415
ag2391
aa(lp2416
S'cycles'
p2417
aS'P'
p2418
aS'NNS'
p2419
aa(lp2420
S'with'
p2421
aS'N'
p2422
aS'IN'
p2423
aa(lp2424
S'a'
p2425
aS'N'
p2426
aS'DT'
p2427
aa(lp2428
S'20'
p2429
aS'P'
p2430
aS'CD'
p2431
aa(lp2432
S'or'
p2433
aS'P'
p2434
aS'CC'
p2435
aa(lp2436
S'24'
p2437
aS'P'
p2438
aS'CD'
p2439
aa(lp2440
S'h'
p2441
aS'P'
p2442
aS'NN'
p2443
aa(lp2444
S'hold'
p2445
aS'P'
p2446
ag2443
aa(lp2447
S'at'
p2448
aS'P'
p2449
ag2405
aa(lp2450
S'4.4'
p2451
aS'P'
p2452
ag2391
aa(lp2453
S'V'
p2454
aS'P'
p2455
ag2356
aa(lp2456
S','
p2457
aS'N'
p2458
ag2364
aa(lp2459
S'and'
p2460
aS'N'
p2461
ag2395
aa(lp2462
S'the'
p2463
aS'N'
p2464
ag2352
aa(lp2465
S'protocol'
p2466
aS'E'
p2467
ag2443
aa(lp2468
S'was'
p2469
aS'A'
p2470
aS'VBD'
p2471
aa(lp2472
S'repeated'
p2473
aS'A'
p2474
ag2379
aa(lp2475
S'.'
p2476
aS'N'
p2477
aS'.'
p2478
aa(lp2479
g107
ag4
ag4
aa(lp2480
g109
ag4
ag4
aaa.