(lp0
(lp1
(lp2
S'***START***'
p3
aS'None'
p4
ag4
aa(lp5
S'***START2***'
p6
ag4
ag4
aa(lp7
S'Electrochemical'
p8
aS'E'
p9
aS'JJ'
p10
aa(lp11
S'analysis'
p12
aS'E'
p13
aS'NN'
p14
aa(lp15
S'was'
p16
aS'A'
p17
aS'VBD'
p18
aa(lp19
S'conducted'
p20
aS'A'
p21
aS'VBN'
p22
aa(lp23
S'on'
p24
aS'N'
p25
aS'IN'
p26
aa(lp27
S'the'
p28
aS'N'
p29
aS'DT'
p30
aa(lp31
S'electrodes'
p32
aS'R'
p33
aS'NNS'
p34
aa(lp35
S'fabricated'
p36
aS'N'
p37
ag18
aa(lp38
S'as'
p39
aS'N'
p40
aS'IN'
p41
aa(lp42
S'follows'
p43
aS'N'
p44
aS'VBZ'
p45
aa(lp46
S'.'
p47
aS'N'
p48
aS'.'
p49
aa(lp50
S'***END***'
p51
ag4
ag4
aa(lp52
S'***END2***'
p53
ag4
ag4
aaa(lp54
(lp55
g3
ag4
ag4
aa(lp56
g6
ag4
ag4
aa(lp57
S'The'
p58
aS'N'
p59
aS'DT'
p60
aa(lp61
S'working'
p62
aS'PR'
p63
aS'VBG'
p64
aa(lp65
S'electrode'
p66
aS'PR'
p67
aS'NN'
p68
aa(lp69
S'(WE)'
p70
aS'PR'
p71
ag68
aa(lp72
S'was'
p73
aS'A'
p74
aS'VBD'
p75
aa(lp76
S'prepared'
p77
aS'A'
p78
aS'VBN'
p79
aa(lp80
S'using'
p81
aS'N'
p82
aS'VBG'
p83
aa(lp84
S'80%'
p85
aS'P'
p86
aS'CD'
p87
aa(lp88
S'of'
p89
aS'N'
p90
aS'IN'
p91
aa(lp92
S'the'
p93
aS'N'
p94
aS'DT'
p95
aa(lp96
S'active'
p97
aS'I'
p98
aS'JJ'
p99
aa(lp100
S'material'
p101
aS'I'
p102
ag68
aa(lp103
S','
p104
aS'N'
p105
aS','
p106
aa(lp107
S'10%'
p108
aS'P'
p109
ag87
aa(lp110
S'carbon'
p111
aS'I'
p112
ag68
aa(lp113
S'black'
p114
aS'I'
p115
aS'JJ'
p116
aa(lp117
S'(CB)'
p118
aS'I'
p119
ag68
aa(lp120
S','
p121
aS'N'
p122
ag106
aa(lp123
S'and'
p124
aS'N'
p125
aS'CC'
p126
aa(lp127
S'10%'
p128
aS'P'
p129
ag87
aa(lp130
S'polyvinylidene'
p131
aS'I'
p132
ag68
aa(lp133
S'fluoride'
p134
aS'I'
p135
aS'JJ'
p136
aa(lp137
S'(PVDF)'
p138
aS'I'
p139
aS'NNP'
p140
aa(lp141
S'binder'
p142
aS'I'
p143
ag68
aa(lp144
S'.'
p145
aS'N'
p146
aS'.'
p147
aa(lp148
g51
ag4
ag4
aa(lp149
g53
ag4
ag4
aaa(lp150
(lp151
g3
ag4
ag4
aa(lp152
g6
ag4
ag4
aa(lp153
S'Slurry'
p154
aS'PR'
p155
aS'NNP'
p156
aa(lp157
S'was'
p158
aS'A'
p159
aS'VBD'
p160
aa(lp161
S'made'
p162
aS'A'
p163
aS'VBN'
p164
aa(lp165
S'in'
p166
aS'N'
p167
aS'IN'
p168
aa(lp169
S'N-methyl-2-pyrrolidinone'
p170
aS'I'
p171
ag156
aa(lp172
S'(NMP)'
p173
aS'I'
p174
ag156
aa(lp175
S'solvent'
p176
aS'N'
p177
aS'NN'
p178
aa(lp179
S'.'
p180
aS'N'
p181
aS'.'
p182
aa(lp183
g51
ag4
ag4
aa(lp184
g53
ag4
ag4
aaa(lp185
(lp186
g3
ag4
ag4
aa(lp187
g6
ag4
ag4
aa(lp188
S'This'
p189
aS'N'
p190
aS'DT'
p191
aa(lp192
S'slurry'
p193
aS'R'
p194
aS'NN'
p195
aa(lp196
S'was'
p197
aS'A'
p198
aS'VBD'
p199
aa(lp200
S'then'
p201
aS'N'
p202
aS'RB'
p203
aa(lp204
S'uniformly'
p205
aS'A'
p206
aS'RB'
p207
aa(lp208
S'coated'
p209
aS'A'
p210
aS'VBN'
p211
aa(lp212
S'onto'
p213
aS'N'
p214
aS'IN'
p215
aa(lp216
S'a'
p217
aS'N'
p218
aS'DT'
p219
aa(lp220
S'aluminum'
p221
aS'I'
p222
ag195
aa(lp223
S'foil'
p224
aS'I'
p225
ag195
aa(lp226
S'current'
p227
aS'N'
p228
aS'JJ'
p229
aa(lp230
S'collector'
p231
aS'N'
p232
ag195
aa(lp233
S'using'
p234
aS'N'
p235
aS'VBG'
p236
aa(lp237
S'an'
p238
aS'N'
p239
aS'DT'
p240
aa(lp241
S'applicator'
p242
aS'E'
p243
ag195
aa(lp244
S'to'
p245
aS'N'
p246
aS'TO'
p247
aa(lp248
S'generate'
p249
aS'N'
p250
aS'VB'
p251
aa(lp252
S'a'
p253
aS'N'
p254
ag219
aa(lp255
S'coating'
p256
aS'N'
p257
ag195
aa(lp258
S'of'
p259
aS'N'
p260
aS'IN'
p261
aa(lp262
S'120'
p263
aS'P'
p264
aS'CD'
p265
aa(lp266
S'um'
p267
aS'P'
p268
aS'JJ'
p269
aa(lp270
S'thickness'
p271
aS'P'
p272
ag195
aa(lp273
S'.'
p274
aS'N'
p275
aS'.'
p276
aa(lp277
g51
ag4
ag4
aa(lp278
g53
ag4
ag4
aaa(lp279
(lp280
g3
ag4
ag4
aa(lp281
g6
ag4
ag4
aa(lp282
S'After'
p283
aS'N'
p284
aS'IN'
p285
aa(lp286
S'drying'
p287
aS'A'
p288
aS'VBG'
p289
aa(lp290
S'in'
p291
aS'N'
p292
aS'IN'
p293
aa(lp294
S'the'
p295
aS'N'
p296
aS'DT'
p297
aa(lp298
S'fume'
p299
aS'E'
p300
aS'NN'
p301
aa(lp302
S'hood'
p303
aS'E'
p304
ag301
aa(lp305
S'for'
p306
aS'N'
p307
aS'IN'
p308
aa(lp309
S'24'
p310
aS'P'
p311
aS'CD'
p312
aa(lp313
S'h'
p314
aS'P'
p315
ag301
aa(lp316
S','
p317
aS'N'
p318
aS','
p319
aa(lp320
S'the'
p321
aS'N'
p322
ag297
aa(lp323
S'coated'
p324
aS'R'
p325
aS'JJ'
p326
aa(lp327
S'foil'
p328
aS'R'
p329
ag301
aa(lp330
S'was'
p331
aS'A'
p332
aS'VBD'
p333
aa(lp334
S'cut'
p335
aS'A'
p336
aS'VBN'
p337
aa(lp338
S'into'
p339
aS'N'
p340
aS'IN'
p341
aa(lp342
S'0.5'
p343
aS'P'
p344
aS'CD'
p345
aa(lp346
S'in.'
p347
aS'P'
p348
ag326
aa(lp349
S'diameter'
p350
aS'P'
p351
ag301
aa(lp352
S'circles'
p353
aS'P'
p354
aS'NNS'
p355
aa(lp356
S','
p357
aS'N'
p358
ag319
aa(lp359
S'creating'
p360
aS'N'
p361
aS'VBG'
p362
aa(lp363
S'the'
p364
aS'PR'
p365
ag297
aa(lp366
S'working'
p367
aS'PR'
p368
ag289
aa(lp369
S'electrodes'
p370
aS'PR'
p371
ag355
aa(lp372
S'.'
p373
aS'N'
p374
aS'.'
p375
aa(lp376
g51
ag4
ag4
aa(lp377
g53
ag4
ag4
aaa(lp378
(lp379
g3
ag4
ag4
aa(lp380
g6
ag4
ag4
aa(lp381
S'These'
p382
aS'N'
p383
aS'DT'
p384
aa(lp385
S'electrodes'
p386
aS'R'
p387
aS'NNS'
p388
aa(lp389
S'were'
p390
aS'A'
p391
aS'VBD'
p392
aa(lp393
S'placed'
p394
aS'A'
p395
aS'VBN'
p396
aa(lp397
S'in'
p398
aS'N'
p399
aS'IN'
p400
aa(lp401
S'a'
p402
aS'N'
p403
aS'DT'
p404
aa(lp405
S'two-electrode'
p406
aS'E'
p407
aS'JJ'
p408
aa(lp409
S'coin'
p410
aS'E'
p411
aS'NN'
p412
aa(lp413
S'cell'
p414
aS'E'
p415
ag412
aa(lp416
S'using'
p417
aS'N'
p418
aS'VBG'
p419
aa(lp420
S'lithium'
p421
aS'I'
p422
ag408
aa(lp423
S'foil'
p424
aS'I'
p425
ag412
aa(lp426
S'as'
p427
aS'N'
p428
aS'IN'
p429
aa(lp430
S'the'
p431
aS'N'
p432
aS'DT'
p433
aa(lp434
S'counter'
p435
aS'N'
p436
ag412
aa(lp437
S'electrode'
p438
aS'N'
p439
ag412
aa(lp440
S'(CE)'
p441
aS'N'
p442
aS'NNP'
p443
aa(lp444
S'and'
p445
aS'N'
p446
aS'CC'
p447
aa(lp448
S'1'
p449
aS'P'
p450
aS'CD'
p451
aa(lp452
S'M'
p453
aS'P'
p454
ag443
aa(lp455
S'LiPF6'
p456
aS'I'
p457
ag443
aa(lp458
S'salt'
p459
aS'I'
p460
ag412
aa(lp461
S'in'
p462
aS'N'
p463
ag400
aa(lp464
S'ethylene'
p465
aS'I'
p466
ag408
aa(lp467
S'carbonate/diethyl'
p468
aS'I'
p469
ag412
aa(lp470
S'carbonate'
p471
aS'I'
p472
ag412
aa(lp473
S'(1:1'
p474
aS'I'
p475
ag396
aa(lp476
S'by'
p477
aS'I'
p478
aS'IN'
p479
aa(lp480
S'volume'
p481
aS'I'
p482
aS'NN'
p483
aa(lp484
S'EC:DEC)'
p485
aS'I'
p486
ag443
aa(lp487
S'solution'
p488
aS'N'
p489
ag412
aa(lp490
S'as'
p491
aS'N'
p492
ag429
aa(lp493
S'the'
p494
aS'N'
p495
ag433
aa(lp496
S'electrolyte'
p497
aS'N'
p498
ag412
aa(lp499
S'.'
p500
aS'N'
p501
aS'.'
p502
aa(lp503
g51
ag4
ag4
aa(lp504
g53
ag4
ag4
aaa(lp505
(lp506
g3
ag4
ag4
aa(lp507
g6
ag4
ag4
aa(lp508
S'A'
p509
aS'N'
p510
aS'DT'
p511
aa(lp512
S'micro-porous'
p513
aS'I'
p514
aS'JJ'
p515
aa(lp516
S'separator'
p517
aS'I'
p518
aS'NN'
p519
aa(lp520
S'(Celgard3501)'
p521
aS'I'
p522
ag519
aa(lp523
S'was'
p524
aS'A'
p525
aS'VBD'
p526
aa(lp527
S'placed'
p528
aS'A'
p529
aS'VBN'
p530
aa(lp531
S'between'
p532
aS'P'
p533
aS'IN'
p534
aa(lp535
S'the'
p536
aS'P'
p537
aS'DT'
p538
aa(lp539
S'working'
p540
aS'P'
p541
ag519
aa(lp542
S'and'
p543
aS'P'
p544
aS'CC'
p545
aa(lp546
S'counter'
p547
aS'P'
p548
ag519
aa(lp549
S'electrodes'
p550
aS'P'
p551
aS'NNS'
p552
aa(lp553
S'.'
p554
aS'N'
p555
aS'.'
p556
aa(lp557
g51
ag4
ag4
aa(lp558
g53
ag4
ag4
aaa(lp559
(lp560
g3
ag4
ag4
aa(lp561
g6
ag4
ag4
aa(lp562
S'NaFePO4'
p563
aS'I'
p564
aS'NNP'
p565
aa(lp566
S'annealed'
p567
aS'A'
p568
aS'VBD'
p569
aa(lp570
S'in'
p571
aS'N'
p572
aS'IN'
p573
aa(lp574
S'Ar'
p575
aS'P'
p576
ag565
aa(lp577
S'at'
p578
aS'N'
p579
aS'IN'
p580
aa(lp581
S'600'
p582
aS'P'
p583
aS'CD'
p584
aa(lp585
S'C'
p586
aS'P'
p587
ag565
aa(lp588
S'have'
p589
aS'A'
p590
aS'VBP'
p591
aa(lp592
S'been'
p593
aS'A'
p594
aS'VBN'
p595
aa(lp596
S'used'
p597
aS'A'
p598
aS'VBN'
p599
aa(lp600
S'to'
p601
aS'N'
p602
aS'TO'
p603
aa(lp604
S'test'
p605
aS'P'
p606
aS'VB'
p607
aa(lp608
S'the'
p609
aS'N'
p610
aS'DT'
p611
aa(lp612
S'electrochemical'
p613
aS'PR'
p614
aS'JJ'
p615
aa(lp616
S'properties'
p617
aS'PR'
p618
aS'NNS'
p619
aa(lp620
S'.'
p621
aS'N'
p622
aS'.'
p623
aa(lp624
g51
ag4
ag4
aa(lp625
g53
ag4
ag4
aaa(lp626
(lp627
g3
ag4
ag4
aa(lp628
g6
ag4
ag4
aa(lp629
S'The'
p630
aS'N'
p631
aS'DT'
p632
aa(lp633
S'battery'
p634
aS'E'
p635
aS'NN'
p636
aa(lp637
S'cycle'
p638
aS'E'
p639
aS'NN'
p640
aa(lp641
S'tests'
p642
aS'E'
p643
aS'NNS'
p644
aa(lp645
S'were'
p646
aS'A'
p647
aS'VBD'
p648
aa(lp649
S'performed'
p650
aS'A'
p651
aS'VBN'
p652
aa(lp653
S'between'
p654
aS'P'
p655
aS'IN'
p656
aa(lp657
S'2'
p658
aS'P'
p659
aS'CD'
p660
aa(lp661
S'V'
p662
aS'P'
p663
aS'NNP'
p664
aa(lp665
S'and'
p666
aS'P'
p667
aS'CC'
p668
aa(lp669
S'4'
p670
aS'P'
p671
aS'CD'
p672
aa(lp673
S'V'
p674
aS'P'
p675
ag664
aa(lp676
S'using'
p677
aS'N'
p678
aS'VBG'
p679
aa(lp680
S'the'
p681
aS'N'
p682
aS'DT'
p683
aa(lp684
S'Solartron'
p685
aS'E'
p686
ag664
aa(lp687
S'and'
p688
aS'N'
p689
ag668
aa(lp690
S'Arbin'
p691
aS'E'
p692
ag664
aa(lp693
S'battery'
p694
aS'E'
p695
ag636
aa(lp696
S'test'
p697
aS'E'
p698
ag636
aa(lp699
S'stations'
p700
aS'E'
p701
ag644
aa(lp702
S'.'
p703
aS'N'
p704
aS'.'
p705
aa(lp706
g51
ag4
ag4
aa(lp707
g53
ag4
ag4
aaa(lp708
(lp709
g3
ag4
ag4
aa(lp710
g6
ag4
ag4
aa(lp711
S'Cyclic'
p712
aS'E'
p713
aS'JJ'
p714
aa(lp715
S'voltammetry'
p716
aS'E'
p717
aS'NN'
p718
aa(lp719
S'at'
p720
aS'N'
p721
aS'IN'
p722
aa(lp723
S'a'
p724
aS'N'
p725
aS'DT'
p726
aa(lp727
S'rate'
p728
aS'P'
p729
aS'NN'
p730
aa(lp731
S'of'
p732
aS'P'
p733
aS'IN'
p734
aa(lp735
S'0.1'
p736
aS'P'
p737
aS'CD'
p738
aa(lp739
S'mV/s'
p740
aS'P'
p741
ag718
aa(lp742
S'was'
p743
aS'A'
p744
aS'VBD'
p745
aa(lp746
S'performed'
p747
aS'A'
p748
aS'VBN'
p749
aa(lp750
S'using'
p751
aS'N'
p752
aS'VBG'
p753
aa(lp754
S'the'
p755
aS'N'
p756
aS'DT'
p757
aa(lp758
S'Solartron'
p759
aS'E'
p760
aS'NNP'
p761
aa(lp762
S'unit'
p763
aS'E'
p764
aS'NN'
p765
aa(lp766
S'.'
p767
aS'N'
p768
aS'.'
p769
aa(lp770
g51
ag4
ag4
aa(lp771
g53
ag4
ag4
aaa(lp772
(lp773
g3
ag4
ag4
aa(lp774
g6
ag4
ag4
aa(lp775
S'Two'
p776
aS'N'
p777
aS'CD'
p778
aa(lp779
S'separate'
p780
aS'N'
p781
aS'JJ'
p782
aa(lp783
S'current'
p784
aS'N'
p785
aS'JJ'
p786
aa(lp787
S'rates'
p788
aS'N'
p789
aS'NNS'
p790
aa(lp791
S'5'
p792
aS'P'
p793
aS'CD'
p794
aa(lp795
S'mA'
p796
aS'P'
p797
aS'NN'
p798
aa(lp799
S'and'
p800
aS'N'
p801
aS'CC'
p802
aa(lp803
S'20'
p804
aS'P'
p805
aS'CD'
p806
aa(lp807
S'mA'
p808
aS'P'
p809
ag798
aa(lp810
S'were'
p811
aS'A'
p812
aS'VBD'
p813
aa(lp814
S'used'
p815
aS'A'
p816
aS'VBN'
p817
aa(lp818
S'to'
p819
aS'N'
p820
aS'TO'
p821
aa(lp822
S'charge/discharge'
p823
aS'P'
p824
aS'VB'
p825
aa(lp826
S'the'
p827
aS'N'
p828
aS'DT'
p829
aa(lp830
S'cells'
p831
aS'R'
p832
aS'NNS'
p833
aa(lp834
S'.'
p835
aS'N'
p836
aS'.'
p837
aa(lp838
g51
ag4
ag4
aa(lp839
g53
ag4
ag4
aaa(lp840
(lp841
g3
ag4
ag4
aa(lp842
g6
ag4
ag4
aa(lp843
S'The'
p844
aS'N'
p845
aS'DT'
p846
aa(lp847
S'electrochemical'
p848
aS'E'
p849
aS'JJ'
p850
aa(lp851
S'impedance'
p852
aS'E'
p853
aS'NN'
p854
aa(lp855
S'spectroscopy'
p856
aS'E'
p857
ag854
aa(lp858
S'(EIS)'
p859
aS'E'
p860
ag854
aa(lp861
S'measurements'
p862
aS'E'
p863
aS'NNS'
p864
aa(lp865
S'were'
p866
aS'A'
p867
aS'VBD'
p868
aa(lp869
S'performed'
p870
aS'A'
p871
aS'VBN'
p872
aa(lp873
S'after'
p874
aS'N'
p875
aS'IN'
p876
aa(lp877
S'the'
p878
aS'N'
p879
aS'DT'
p880
aa(lp881
S'electrode'
p882
aS'N'
p883
ag854
aa(lp884
S'reached'
p885
aS'N'
p886
aS'VBD'
p887
aa(lp888
S'the'
p889
aS'N'
p890
ag880
aa(lp891
S'end'
p892
aS'P'
p893
ag854
aa(lp894
S'of'
p895
aS'P'
p896
aS'IN'
p897
aa(lp898
S'each'
p899
aS'P'
p900
aS'DT'
p901
aa(lp902
S'charge'
p903
aS'P'
p904
ag854
aa(lp905
S'and'
p906
aS'P'
p907
aS'CC'
p908
aa(lp909
S'discharge'
p910
aS'P'
p911
ag854
aa(lp912
S'states'
p913
aS'P'
p914
ag864
aa(lp915
S'.'
p916
aS'N'
p917
aS'.'
p918
aa(lp919
g51
ag4
ag4
aa(lp920
g53
ag4
ag4
aaa(lp921
(lp922
g3
ag4
ag4
aa(lp923
g6
ag4
ag4
aa(lp924
S'The'
p925
aS'N'
p926
aS'DT'
p927
aa(lp928
S'measurements'
p929
aS'E'
p930
aS'NNS'
p931
aa(lp932
S'were'
p933
aS'A'
p934
aS'VBD'
p935
aa(lp936
S'taken'
p937
aS'A'
p938
aS'VBN'
p939
aa(lp940
S'over'
p941
aS'N'
p942
aS'RP'
p943
aa(lp944
S'a'
p945
aS'N'
p946
aS'DT'
p947
aa(lp948
S'range'
p949
aS'N'
p950
aS'NN'
p951
aa(lp952
S'of'
p953
aS'N'
p954
aS'IN'
p955
aa(lp956
S'1000'
p957
aS'P'
p958
aS'CD'
p959
aa(lp960
S'kHz'
p961
aS'P'
p962
ag951
aa(lp963
S'to'
p964
aS'P'
p965
aS'TO'
p966
aa(lp967
S'1'
p968
aS'P'
p969
aS'CD'
p970
aa(lp971
S'MHz'
p972
aS'P'
p973
aS'NNP'
p974
aa(lp975
S'with'
p976
aS'N'
p977
aS'IN'
p978
aa(lp979
S'AC'
p980
aS'P'
p981
ag974
aa(lp982
S'amplitude'
p983
aS'P'
p984
ag951
aa(lp985
S'of'
p986
aS'P'
p987
ag955
aa(lp988
S'10'
p989
aS'P'
p990
aS'CD'
p991
aa(lp992
S'mV'
p993
aS'P'
p994
ag931
aa(lp995
S'using'
p996
aS'N'
p997
aS'VBG'
p998
aa(lp999
S'a'
p1000
aS'N'
p1001
ag947
aa(lp1002
S'Solartron'
p1003
aS'E'
p1004
ag974
aa(lp1005
S'analyzer'
p1006
aS'E'
p1007
ag951
aa(lp1008
S'.'
p1009
aS'N'
p1010
aS'.'
p1011
aa(lp1012
g51
ag4
ag4
aa(lp1013
g53
ag4
ag4
aaa.