(lp0
(lp1
(lp2
S'***START***'
p3
aS'None'
p4
ag4
aa(lp5
S'***START2***'
p6
ag4
ag4
aa(lp7
S'LTO'
p8
aS'PR'
p9
aS'NNP'
p10
aa(lp11
S'was'
p12
aS'A'
p13
aS'VBD'
p14
aa(lp15
S'purchased'
p16
aS'A'
p17
aS'VBN'
p18
aa(lp19
S'from'
p20
aS'N'
p21
aS'IN'
p22
aa(lp23
S'BTR'
p24
aS'E'
p25
ag10
aa(lp26
S'Energy'
p27
aS'E'
p28
aS'NNP'
p29
aa(lp30
S'Materials'
p31
aS'E'
p32
ag10
aa(lp33
S'Co.,'
p34
aS'E'
p35
ag10
aa(lp36
S'Ltd'
p37
aS'E'
p38
aS'NNP'
p39
aa(lp40
S'.'
p41
aS'N'
p42
aS'.'
p43
aa(lp44
S'***END***'
p45
ag4
ag4
aa(lp46
S'***END2***'
p47
ag4
ag4
aaa(lp48
(lp49
g3
ag4
ag4
aa(lp50
g6
ag4
ag4
aa(lp51
S'As'
p52
aS'N'
p53
aS'IN'
p54
aa(lp55
S'previously'
p56
aS'N'
p57
aS'RB'
p58
aa(lp59
S'disclosed'
p60
aS'N'
p61
aS'VBN'
p62
aa(lp63
S','
p64
aS'N'
p65
aS','
p66
aa(lp67
S'LNMO'
p68
aS'PR'
p69
aS'NNP'
p70
aa(lp71
S'was'
p72
aS'A'
p73
aS'VBD'
p74
aa(lp75
S'prepared'
p76
aS'A'
p77
ag62
aa(lp78
S'by'
p79
aS'N'
p80
aS'IN'
p81
aa(lp82
S'a'
p83
aS'N'
p84
aS'DT'
p85
aa(lp86
S'radiated'
p87
aS'E'
p88
aS'JJ'
p89
aa(lp90
S'polymer'
p91
aS'E'
p92
aS'NN'
p93
aa(lp94
S'gel'
p95
aS'E'
p96
ag93
aa(lp97
S'(RPG)'
p98
aS'E'
p99
ag70
aa(lp100
S'method'
p101
aS'E'
p102
ag93
aa(lp103
S'.'
p104
aS'N'
p105
aS'.'
p106
aa(lp107
g45
ag4
ag4
aa(lp108
g47
ag4
ag4
aaa(lp109
(lp110
g3
ag4
ag4
aa(lp111
g6
ag4
ag4
aa(lp112
S'Composite'
p113
aS'PR'
p114
aS'NNP'
p115
aa(lp116
S'electrodes'
p117
aS'PR'
p118
aS'VBZ'
p119
aa(lp120
S'consisting'
p121
aS'N'
p122
aS'VBG'
p123
aa(lp124
S'of'
p125
aS'N'
p126
aS'IN'
p127
aa(lp128
S'LTO'
p129
aS'R'
p130
ag115
aa(lp131
S'or'
p132
aS'N'
p133
aS'CC'
p134
aa(lp135
S'LNMO'
p136
aS'R'
p137
ag115
aa(lp138
S'(80'
p139
aS'P'
p140
ag115
aa(lp141
S'wt.%)'
p142
aS'P'
p143
aS'NN'
p144
aa(lp145
S','
p146
aS'N'
p147
aS','
p148
aa(lp149
S'acetylene'
p150
aS'I'
p151
aS'JJ'
p152
aa(lp153
S'black'
p154
aS'I'
p155
aS'JJ'
p156
aa(lp157
S'(10'
p158
aS'P'
p159
ag144
aa(lp160
S'wt.%)'
p161
aS'P'
p162
ag144
aa(lp163
S'and'
p164
aS'N'
p165
aS'CC'
p166
aa(lp167
S'poly(vinylidene'
p168
aS'I'
p169
ag144
aa(lp170
S'fluoride)'
p171
aS'I'
p172
aS'VBP'
p173
aa(lp174
S'(PVDF)'
p175
aS'I'
p176
ag115
aa(lp177
S'(10'
p178
aS'P'
p179
ag144
aa(lp180
S'wt.%)'
p181
aS'P'
p182
ag144
aa(lp183
S'were'
p184
aS'A'
p185
aS'VBD'
p186
aa(lp187
S'made'
p188
aS'A'
p189
aS'VBN'
p190
aa(lp191
S'by'
p192
aS'N'
p193
aS'IN'
p194
aa(lp195
S'a'
p196
aS'N'
p197
aS'DT'
p198
aa(lp199
S'tape-casting'
p200
aS'E'
p201
ag152
aa(lp202
S'process'
p203
aS'E'
p204
ag144
aa(lp205
S'on'
p206
aS'N'
p207
aS'IN'
p208
aa(lp209
S'aluminum'
p210
aS'I'
p211
ag144
aa(lp212
S'and'
p213
aS'N'
p214
ag166
aa(lp215
S'copper'
p216
aS'I'
p217
ag144
aa(lp218
S'foils'
p219
aS'I'
p220
aS'NNS'
p221
aa(lp222
S','
p223
aS'N'
p224
ag148
aa(lp225
S'respectively'
p226
aS'N'
p227
aS'RB'
p228
aa(lp229
S'.'
p230
aS'N'
p231
aS'.'
p232
aa(lp233
g45
ag4
ag4
aa(lp234
g47
ag4
ag4
aaa(lp235
(lp236
g3
ag4
ag4
aa(lp237
g6
ag4
ag4
aa(lp238
S'The'
p239
aS'N'
p240
aS'DT'
p241
aa(lp242
S'electrolytes'
p243
aS'PR'
p244
aS'NNS'
p245
aa(lp246
S'were'
p247
aS'A'
p248
aS'VBD'
p249
aa(lp250
S'1'
p251
aS'P'
p252
aS'CD'
p253
aa(lp254
S'M'
p255
aS'P'
p256
aS'NNP'
p257
aa(lp258
S'LiPF6'
p259
aS'I'
p260
ag257
aa(lp261
S'dissolved'
p262
aS'N'
p263
aS'VBD'
p264
aa(lp265
S'in'
p266
aS'N'
p267
aS'IN'
p268
aa(lp269
S'carbonate'
p270
aS'N'
p271
aS'JJ'
p272
aa(lp273
S'solvent'
p274
aS'N'
p275
aS'NN'
p276
aa(lp277
S'mixtures'
p278
aS'N'
p279
ag245
aa(lp280
S'including'
p281
aS'N'
p282
aS'VBG'
p283
aa(lp284
S'ethylene'
p285
aS'I'
p286
ag272
aa(lp287
S'carbonate'
p288
aS'I'
p289
ag272
aa(lp290
S'(EC)'
p291
aS'I'
p292
ag276
aa(lp293
S','
p294
aS'N'
p295
aS','
p296
aa(lp297
S'PC'
p298
aS'I'
p299
ag276
aa(lp300
S','
p301
aS'N'
p302
ag296
aa(lp303
S'dimethyl'
p304
aS'I'
p305
ag272
aa(lp306
S'carbonate'
p307
aS'I'
p308
ag272
aa(lp309
S'(DMC)'
p310
aS'I'
p311
ag276
aa(lp312
S'and'
p313
aS'N'
p314
aS'CC'
p315
aa(lp316
S'diethyl'
p317
aS'I'
p318
ag276
aa(lp319
S'carbonate'
p320
aS'I'
p321
ag272
aa(lp322
S'(DEC)'
p323
aS'I'
p324
ag276
aa(lp325
S'.'
p326
aS'N'
p327
aS'.'
p328
aa(lp329
g45
ag4
ag4
aa(lp330
g47
ag4
ag4
aaa(lp331
(lp332
g3
ag4
ag4
aa(lp333
g6
ag4
ag4
aa(lp334
S'All'
p335
aS'N'
p336
aS'DT'
p337
aa(lp338
S'solvent'
p339
aS'N'
p340
aS'JJ'
p341
aa(lp342
S'ratios'
p343
aS'N'
p344
aS'NNS'
p345
aa(lp346
S'indicated'
p347
aS'N'
p348
aS'VBD'
p349
aa(lp350
S'later'
p351
aS'N'
p352
aS'RB'
p353
aa(lp354
S'in'
p355
aS'N'
p356
aS'IN'
p357
aa(lp358
S'this'
p359
aS'N'
p360
aS'DT'
p361
aa(lp362
S'paper'
p363
aS'N'
p364
aS'NN'
p365
aa(lp366
S'were'
p367
aS'N'
p368
aS'VBD'
p369
aa(lp370
S'in'
p371
aS'N'
p372
ag357
aa(lp373
S'weight'
p374
aS'N'
p375
ag341
aa(lp376
S'ratios'
p377
aS'N'
p378
ag345
aa(lp379
S'.'
p380
aS'N'
p381
aS'.'
p382
aa(lp383
g45
ag4
ag4
aa(lp384
g47
ag4
ag4
aaa(lp385
(lp386
g3
ag4
ag4
aa(lp387
g6
ag4
ag4
aa(lp388
S'CR2032'
p389
aS'PR'
p390
aS'NNP'
p391
aa(lp392
S'coin'
p393
aS'PR'
p394
aS'NN'
p395
aa(lp396
S'cells'
p397
aS'PR'
p398
aS'NNS'
p399
aa(lp400
S'were'
p401
aS'A'
p402
aS'VBD'
p403
aa(lp404
S'assembled'
p405
aS'A'
p406
aS'VBN'
p407
aa(lp408
S'in'
p409
aS'N'
p410
aS'IN'
p411
aa(lp412
S'an'
p413
aS'N'
p414
aS'DT'
p415
aa(lp416
S'argon-filled'
p417
aS'E'
p418
aS'JJ'
p419
aa(lp420
S'glove'
p421
aS'E'
p422
ag395
aa(lp423
S'box'
p424
aS'E'
p425
ag395
aa(lp426
S'(MBrumn'
p427
aS'N'
p428
ag391
aa(lp429
S'Labmaster'
p430
aS'N'
p431
ag391
aa(lp432
S'130)'
p433
aS'N'
p434
aS'CD'
p435
aa(lp436
S'and'
p437
aS'N'
p438
aS'CC'
p439
aa(lp440
S'then'
p441
aS'N'
p442
aS'RB'
p443
aa(lp444
S'galvanostatically'
p445
aS'A'
p446
aS'RB'
p447
aa(lp448
S'cycled'
p449
aS'A'
p450
ag407
aa(lp451
S'on'
p452
aS'N'
p453
aS'IN'
p454
aa(lp455
S'a'
p456
aS'N'
p457
aS'DT'
p458
aa(lp459
S'multi-channel'
p460
aS'E'
p461
ag419
aa(lp462
S'battery'
p463
aS'E'
p464
ag395
aa(lp465
S'cycler'
p466
aS'E'
p467
ag395
aa(lp468
S'(Neware'
p469
aS'N'
p470
ag391
aa(lp471
S'BTS2300'
p472
aS'N'
p473
ag391
aa(lp474
S','
p475
aS'N'
p476
aS','
p477
aa(lp478
S'Shenzhen)'
p479
aS'N'
p480
ag391
aa(lp481
S'.'
p482
aS'N'
p483
aS'.'
p484
aa(lp485
g45
ag4
ag4
aa(lp486
g47
ag4
ag4
aaa(lp487
(lp488
g3
ag4
ag4
aa(lp489
g6
ag4
ag4
aa(lp490
S'In'
p491
aS'N'
p492
aS'IN'
p493
aa(lp494
S'order'
p495
aS'N'
p496
aS'NN'
p497
aa(lp498
S'to'
p499
aS'N'
p500
aS'TO'
p501
aa(lp502
S'simulate'
p503
aS'N'
p504
aS'VB'
p505
aa(lp506
S'the'
p507
aS'N'
p508
aS'DT'
p509
aa(lp510
S'real'
p511
aS'N'
p512
aS'JJ'
p513
aa(lp514
S'load'
p515
aS'N'
p516
aS'NN'
p517
aa(lp518
S'pattern'
p519
aS'N'
p520
ag517
aa(lp521
S'of'
p522
aS'N'
p523
aS'IN'
p524
aa(lp525
S'HEV'
p526
aS'N'
p527
aS'NNP'
p528
aa(lp529
S'batteries'
p530
aS'N'
p531
aS'NNS'
p532
aa(lp533
S','
p534
aS'N'
p535
aS','
p536
aa(lp537
S'accelerated'
p538
aS'E'
p539
aS'JJ'
p540
aa(lp541
S'cycle'
p542
aS'E'
p543
aS'NN'
p544
aa(lp545
S'tests'
p546
aS'E'
p547
ag532
aa(lp548
S'were'
p549
aS'A'
p550
aS'VBD'
p551
aa(lp552
S'designed'
p553
aS'A'
p554
aS'VBN'
p555
aa(lp556
S'and'
p557
aS'N'
p558
aS'CC'
p559
aa(lp560
S'carried'
p561
aS'A'
p562
ag555
aa(lp563
S'out'
p564
aS'A'
p565
ag493
aa(lp566
S'to'
p567
aS'N'
p568
ag501
aa(lp569
S'evaluate'
p570
aS'P'
p571
ag505
aa(lp572
S'the'
p573
aS'N'
p574
ag509
aa(lp575
S'cycle'
p576
aS'PR'
p577
ag544
aa(lp578
S'lifetime'
p579
aS'PR'
p580
ag517
aa(lp581
S'.'
p582
aS'N'
p583
aS'.'
p584
aa(lp585
g45
ag4
ag4
aa(lp586
g47
ag4
ag4
aaa(lp587
(lp588
g3
ag4
ag4
aa(lp589
g6
ag4
ag4
aa(lp590
S'In'
p591
aS'N'
p592
aS'IN'
p593
aa(lp594
S'these'
p595
aS'N'
p596
aS'DT'
p597
aa(lp598
S'tests'
p599
aS'N'
p600
aS'NNS'
p601
aa(lp602
S','
p603
aS'N'
p604
aS','
p605
aa(lp606
S'all'
p607
aS'N'
p608
aS'DT'
p609
aa(lp610
S'of'
p611
aS'N'
p612
aS'IN'
p613
aa(lp614
S'the'
p615
aS'N'
p616
aS'DT'
p617
aa(lp618
S'cells'
p619
aS'R'
p620
aS'NNS'
p621
aa(lp622
S'were'
p623
aS'A'
p624
aS'VBD'
p625
aa(lp626
S'cycled'
p627
aS'A'
p628
aS'VBN'
p629
aa(lp630
S'alternately'
p631
aS'N'
p632
aS'RB'
p633
aa(lp634
S'at'
p635
aS'N'
p636
aS'IN'
p637
aa(lp638
S'the'
p639
aS'N'
p640
ag617
aa(lp641
S'constant'
p642
aS'P'
p643
aS'JJ'
p644
aa(lp645
S'voltage'
p646
aS'P'
p647
aS'NN'
p648
aa(lp649
S'at'
p650
aS'N'
p651
ag637
aa(lp652
S'3.5'
p653
aS'P'
p654
aS'CD'
p655
aa(lp656
S'V'
p657
aS'P'
p658
aS'NNP'
p659
aa(lp660
S'(charge)'
p661
aS'P'
p662
ag648
aa(lp663
S'and'
p664
aS'N'
p665
aS'CC'
p666
aa(lp667
S'at'
p668
aS'N'
p669
ag637
aa(lp670
S'2.0'
p671
aS'P'
p672
ag655
aa(lp673
S'V'
p674
aS'P'
p675
ag659
aa(lp676
S'(discharge)'
p677
aS'P'
p678
ag659
aa(lp679
S'for'
p680
aS'N'
p681
aS'IN'
p682
aa(lp683
S'2'
p684
aS'P'
p685
aS'CD'
p686
aa(lp687
S'min'
p688
aS'P'
p689
ag648
aa(lp690
S','
p691
aS'N'
p692
ag605
aa(lp693
S'respectively'
p694
aS'N'
p695
ag633
aa(lp696
S'.'
p697
aS'N'
p698
aS'.'
p699
aa(lp700
g45
ag4
ag4
aa(lp701
g47
ag4
ag4
aaa(lp702
(lp703
g3
ag4
ag4
aa(lp704
g6
ag4
ag4
aa(lp705
S'Cyclic'
p706
aS'E'
p707
aS'JJ'
p708
aa(lp709
S'voltammetry'
p710
aS'E'
p711
aS'NN'
p712
aa(lp713
S'(CV)'
p714
aS'E'
p715
ag712
aa(lp716
S'was'
p717
aS'A'
p718
aS'VBD'
p719
aa(lp720
S'carried'
p721
aS'A'
p722
aS'VBN'
p723
aa(lp724
S'out'
p725
aS'A'
p726
aS'RP'
p727
aa(lp728
S'at'
p729
aS'N'
p730
aS'IN'
p731
aa(lp732
S'a'
p733
aS'N'
p734
aS'DT'
p735
aa(lp736
S'CHI'
p737
aS'E'
p738
aS'NNP'
p739
aa(lp740
S'604'
p741
aS'E'
p742
aS'CD'
p743
aa(lp744
S'Electrochemical'
p745
aS'E'
p746
ag739
aa(lp747
S'Workstation'
p748
aS'E'
p749
ag739
aa(lp750
S'to'
p751
aS'N'
p752
aS'TO'
p753
aa(lp754
S'examine'
p755
aS'P'
p756
aS'VB'
p757
aa(lp758
S'the'
p759
aS'N'
p760
aS'DT'
p761
aa(lp762
S'high'
p763
aS'PR'
p764
ag708
aa(lp765
S'voltage'
p766
aS'PR'
p767
ag712
aa(lp768
S'retention'
p769
aS'PR'
p770
ag712
aa(lp771
S'of'
p772
aS'N'
p773
aS'IN'
p774
aa(lp775
S'the'
p776
aS'N'
p777
ag761
aa(lp778
S'cell'
p779
aS'R'
p780
ag712
aa(lp781
S'systems'
p782
aS'R'
p783
aS'NNS'
p784
aa(lp785
S'.'
p786
aS'N'
p787
aS'.'
p788
aa(lp789
g45
ag4
ag4
aa(lp790
g47
ag4
ag4
aaa(lp791
(lp792
g3
ag4
ag4
aa(lp793
g6
ag4
ag4
aa(lp794
S'The'
p795
aS'N'
p796
aS'DT'
p797
aa(lp798
S'ac'
p799
aS'E'
p800
aS'JJ'
p801
aa(lp802
S'impedance'
p803
aS'E'
p804
aS'NN'
p805
aa(lp806
S'was'
p807
aS'A'
p808
aS'VBD'
p809
aa(lp810
S'also'
p811
aS'N'
p812
aS'RB'
p813
aa(lp814
S'measured'
p815
aS'A'
p816
aS'VBN'
p817
aa(lp818
S'with'
p819
aS'N'
p820
aS'IN'
p821
aa(lp822
S'the'
p823
aS'N'
p824
aS'DT'
p825
aa(lp826
S'Electrochemical'
p827
aS'E'
p828
aS'NNP'
p829
aa(lp830
S'Workstation'
p831
aS'E'
p832
ag829
aa(lp833
S'above'
p834
aS'N'
p835
aS'IN'
p836
aa(lp837
S','
p838
aS'N'
p839
aS','
p840
aa(lp841
S'with'
p842
aS'N'
p843
ag821
aa(lp844
S'the'
p845
aS'N'
p846
ag825
aa(lp847
S'frequency'
p848
aS'P'
p849
ag805
aa(lp850
S'range'
p851
aS'P'
p852
ag805
aa(lp853
S'and'
p854
aS'N'
p855
aS'CC'
p856
aa(lp857
S'voltage'
p858
aS'P'
p859
ag805
aa(lp860
S'amplitude'
p861
aS'P'
p862
ag805
aa(lp863
S'set'
p864
aS'N'
p865
ag817
aa(lp866
S'as'
p867
aS'N'
p868
ag836
aa(lp869
S'100'
p870
aS'P'
p871
aS'CD'
p872
aa(lp873
S'kHz'
p874
aS'P'
p875
ag805
aa(lp876
S'to'
p877
aS'P'
p878
aS'TO'
p879
aa(lp880
S'0.01'
p881
aS'P'
p882
aS'CD'
p883
aa(lp884
S'Hz'
p885
aS'P'
p886
ag829
aa(lp887
S'and'
p888
aS'N'
p889
ag856
aa(lp890
S'8'
p891
aS'P'
p892
aS'CD'
p893
aa(lp894
S'mV'
p895
aS'P'
p896
ag805
aa(lp897
S','
p898
aS'N'
p899
ag840
aa(lp900
S'respectively'
p901
aS'N'
p902
aS'RB'
p903
aa(lp904
S'.'
p905
aS'N'
p906
aS'.'
p907
aa(lp908
g45
ag4
ag4
aa(lp909
g47
ag4
ag4
aaa(lp910
(lp911
g3
ag4
ag4
aa(lp912
g6
ag4
ag4
aa(lp913
S'For'
p914
aS'N'
p915
aS'IN'
p916
aa(lp917
S'most'
p918
aS'N'
p919
aS'JJS'
p920
aa(lp921
S'of'
p922
aS'N'
p923
aS'IN'
p924
aa(lp925
S'the'
p926
aS'N'
p927
aS'DT'
p928
aa(lp929
S'tests'
p930
aS'N'
p931
aS'NNS'
p932
aa(lp933
S','
p934
aS'N'
p935
aS','
p936
aa(lp937
S'the'
p938
aS'N'
p939
ag928
aa(lp940
S'limited'
p941
aS'PR'
p942
aS'JJ'
p943
aa(lp944
S'capacity'
p945
aS'PR'
p946
aS'NN'
p947
aa(lp948
S'and'
p949
aS'N'
p950
aS'CC'
p951
aa(lp952
S'the'
p953
aS'N'
p954
ag928
aa(lp955
S'excess'
p956
aS'PR'
p957
ag943
aa(lp958
S'capacity'
p959
aS'PR'
p960
ag947
aa(lp961
S'of'
p962
aS'N'
p963
ag924
aa(lp964
S'the'
p965
aS'N'
p966
ag928
aa(lp967
S'two'
p968
aS'N'
p969
aS'CD'
p970
aa(lp971
S'electrodes'
p972
aS'N'
p973
ag932
aa(lp974
S'in'
p975
aS'N'
p976
aS'IN'
p977
aa(lp978
S'the'
p979
aS'N'
p980
ag928
aa(lp981
S'LNMO/LTO'
p982
aS'R'
p983
aS'NNP'
p984
aa(lp985
S'full-cells'
p986
aS'R'
p987
ag932
aa(lp988
S'were'
p989
aS'A'
p990
aS'VBD'
p991
aa(lp992
S'about'
p993
aS'N'
p994
aS'IN'
p995
aa(lp996
S'1.0'
p997
aS'P'
p998
aS'CD'
p999
aa(lp1000
S'and'
p1001
aS'P'
p1002
ag951
aa(lp1003
S'1.2'
p1004
aS'P'
p1005
aS'CD'
p1006
aa(lp1007
S'mAh'
p1008
aS'P'
p1009
aS'NN'
p1010
aa(lp1011
S','
p1012
aS'N'
p1013
ag936
aa(lp1014
S'respectively'
p1015
aS'N'
p1016
aS'RB'
p1017
aa(lp1018
S','
p1019
aS'N'
p1020
ag936
aa(lp1021
S'whether'
p1022
aS'N'
p1023
aS'IN'
p1024
aa(lp1025
S'the'
p1026
aS'N'
p1027
ag928
aa(lp1028
S'cell'
p1029
aS'N'
p1030
ag1010
aa(lp1031
S'capacity'
p1032
aS'N'
p1033
ag947
aa(lp1034
S'was'
p1035
aS'N'
p1036
aS'VBD'
p1037
aa(lp1038
S'determined'
p1039
aS'N'
p1040
aS'VBN'
p1041
aa(lp1042
S'by'
p1043
aS'N'
p1044
aS'IN'
p1045
aa(lp1046
S'the'
p1047
aS'N'
p1048
ag928
aa(lp1049
S'LNMO'
p1050
aS'N'
p1051
ag984
aa(lp1052
S'cathode'
p1053
aS'N'
p1054
ag1010
aa(lp1055
S'or'
p1056
aS'N'
p1057
aS'CC'
p1058
aa(lp1059
S'the'
p1060
aS'N'
p1061
ag928
aa(lp1062
S'LTO'
p1063
aS'N'
p1064
ag984
aa(lp1065
S'anode'
p1066
aS'N'
p1067
ag1010
aa(lp1068
S'(hereinafter'
p1069
aS'N'
p1070
ag1010
aa(lp1071
S'designated'
p1072
aS'N'
p1073
ag1041
aa(lp1074
S'as'
p1075
aS'N'
p1076
ag995
aa(lp1077
S'the'
p1078
aS'N'
p1079
ag928
aa(lp1080
S'LNMO-limited'
p1081
aS'N'
p1082
ag984
aa(lp1083
S'cell'
p1084
aS'N'
p1085
ag1010
aa(lp1086
S'and'
p1087
aS'N'
p1088
ag951
aa(lp1089
S'the'
p1090
aS'N'
p1091
ag928
aa(lp1092
S'LTO-limited'
p1093
aS'N'
p1094
ag943
aa(lp1095
S'cell)'
p1096
aS'N'
p1097
ag1010
aa(lp1098
S'.'
p1099
aS'N'
p1100
aS'.'
p1101
aa(lp1102
g45
ag4
ag4
aa(lp1103
g47
ag4
ag4
aaa.