(lp0
(lp1
(lp2
S'***START***'
p3
aS'None'
p4
ag4
aa(lp5
S'***START2***'
p6
ag4
ag4
aa(lp7
S'Machine'
p8
aS'P'
p9
aS'NN'
p10
aa(lp11
S'made'
p12
aS'P'
p13
aS'VBD'
p14
aa(lp15
S'220'
p16
aS'P'
p17
aS'CD'
p18
aa(lp19
S'and'
p20
aS'P'
p21
aS'CC'
p22
aa(lp23
S'240'
p24
aS'P'
p25
ag18
aa(lp26
S'mAh'
p27
aS'P'
p28
aS'NNS'
p29
aa(lp30
S'NMC442/graphite'
p31
aS'PR'
p32
aS'NNP'
p33
aa(lp34
S'wound'
p35
aS'PR'
p36
ag14
aa(lp37
S'pouch'
p38
aS'PR'
p39
aS'JJ'
p40
aa(lp41
S'cells'
p42
aS'PR'
p43
aS'NNS'
p44
aa(lp45
S'balanced'
p46
aS'P'
p47
ag14
aa(lp48
S'for'
p49
aS'P'
p50
aS'IN'
p51
aa(lp52
S'4.7'
p53
aS'P'
p54
ag18
aa(lp55
S'V'
p56
aS'P'
p57
ag33
aa(lp58
S'operation'
p59
aS'P'
p60
aS'NN'
p61
aa(lp62
S'were'
p63
aS'A'
p64
aS'VBD'
p65
aa(lp66
S'obtained'
p67
aS'A'
p68
aS'VBN'
p69
aa(lp70
S'dry'
p71
aS'P'
p72
ag40
aa(lp73
S'(no'
p74
aS'N'
p75
ag33
aa(lp76
S'electrolyte'
p77
aS'N'
p78
ag10
aa(lp79
S'added)'
p80
aS'N'
p81
ag10
aa(lp82
S'from'
p83
aS'N'
p84
aS'IN'
p85
aa(lp86
S'LiFUN'
p87
aS'E'
p88
ag33
aa(lp89
S'Technologies'
p90
aS'E'
p91
aS'NNPS'
p92
aa(lp93
S'(Zhuzhou'
p94
aS'N'
p95
ag33
aa(lp96
S'City,'
p97
aS'N'
p98
ag33
aa(lp99
S'China)'
p100
aS'N'
p101
ag33
aa(lp102
S'.'
p103
aS'N'
p104
aS'.'
p105
aa(lp106
S'***END***'
p107
ag4
ag4
aa(lp108
S'***END2***'
p109
ag4
ag4
aaa(lp110
(lp111
g3
ag4
ag4
aa(lp112
g6
ag4
ag4
aa(lp113
S'Pouch'
p114
aS'R'
p115
aS'JJ'
p116
aa(lp117
S'cells'
p118
aS'R'
p119
aS'NNS'
p120
aa(lp121
S'were'
p122
aS'A'
p123
aS'VBD'
p124
aa(lp125
S'manufactured'
p126
aS'A'
p127
aS'VBN'
p128
aa(lp129
S'and'
p130
aS'N'
p131
aS'CC'
p132
aa(lp133
S'vacuum'
p134
aS'A'
p135
aS'NN'
p136
aa(lp137
S'sealed'
p138
aS'A'
p139
ag128
aa(lp140
S'in'
p141
aS'N'
p142
aS'IN'
p143
aa(lp144
S'a'
p145
aS'N'
p146
aS'DT'
p147
aa(lp148
S'dry'
p149
aS'E'
p150
ag116
aa(lp151
S'room'
p152
aS'E'
p153
aS'NN'
p154
aa(lp155
S'in'
p156
aS'N'
p157
ag143
aa(lp158
S'China'
p159
aS'N'
p160
aS'NNP'
p161
aa(lp162
S'before'
p163
aS'N'
p164
aS'IN'
p165
aa(lp166
S'shipping'
p167
aS'N'
p168
aS'VBG'
p169
aa(lp170
S'to'
p171
aS'N'
p172
aS'TO'
p173
aa(lp174
S'Dalhousie'
p175
aS'N'
p176
aS'NNP'
p177
aa(lp178
S'University'
p179
aS'N'
p180
aS'NNP'
p181
aa(lp182
S'.'
p183
aS'N'
p184
aS'.'
p185
aa(lp186
g107
ag4
ag4
aa(lp187
g109
ag4
ag4
aaa(lp188
(lp189
g3
ag4
ag4
aa(lp190
g6
ag4
ag4
aa(lp191
S'After'
p192
aS'N'
p193
aS'IN'
p194
aa(lp195
S'heating'
p196
aS'A'
p197
aS'VBG'
p198
aa(lp199
S'to'
p200
aS'N'
p201
aS'TO'
p202
aa(lp203
S'80C'
p204
aS'P'
p205
aS'CD'
p206
aa(lp207
S'for'
p208
aS'N'
p209
aS'IN'
p210
aa(lp211
S'14'
p212
aS'P'
p213
aS'CD'
p214
aa(lp215
S'hours'
p216
aS'P'
p217
aS'NNS'
p218
aa(lp219
S'under'
p220
aS'N'
p221
aS'IN'
p222
aa(lp223
S'vacuum'
p224
aS'P'
p225
aS'NN'
p226
aa(lp227
S'to'
p228
aS'N'
p229
ag202
aa(lp230
S'remove'
p231
aS'N'
p232
aS'VB'
p233
aa(lp234
S'any'
p235
aS'N'
p236
aS'DT'
p237
aa(lp238
S'residual'
p239
aS'N'
p240
aS'JJ'
p241
aa(lp242
S'water'
p243
aS'N'
p244
aS'NN'
p245
aa(lp246
S'and'
p247
aS'N'
p248
aS'CC'
p249
aa(lp250
S'then'
p251
aS'N'
p252
aS'RB'
p253
aa(lp254
S'moved'
p255
aS'A'
p256
aS'VBD'
p257
aa(lp258
S'into'
p259
aS'N'
p260
aS'IN'
p261
aa(lp262
S'an'
p263
aS'N'
p264
aS'DT'
p265
aa(lp266
S'argon-filled'
p267
aS'E'
p268
ag241
aa(lp269
S'glove'
p270
aS'E'
p271
ag226
aa(lp272
S'box'
p273
aS'E'
p274
ag226
aa(lp275
S','
p276
aS'N'
p277
aS','
p278
aa(lp279
S'the'
p280
aS'N'
p281
aS'DT'
p282
aa(lp283
S'pouch'
p284
aS'R'
p285
ag241
aa(lp286
S'cells'
p287
aS'R'
p288
aS'NNS'
p289
aa(lp290
S'were'
p291
aS'A'
p292
aS'VBD'
p293
aa(lp294
S'filled'
p295
aS'A'
p296
aS'VBN'
p297
aa(lp298
S'with'
p299
aS'N'
p300
aS'IN'
p301
aa(lp302
S'0.90'
p303
aS'P'
p304
ag206
aa(lp305
S'g'
p306
aS'P'
p307
aS'NNS'
p308
aa(lp309
S'of'
p310
aS'N'
p311
aS'IN'
p312
aa(lp313
S'1M'
p314
aS'P'
p315
ag206
aa(lp316
S'LiPF6'
p317
aS'I'
p318
aS'NNP'
p319
aa(lp320
S'in'
p321
aS'N'
p322
aS'IN'
p323
aa(lp324
S'ethylene'
p325
aS'I'
p326
ag241
aa(lp327
S'carbonate'
p328
aS'I'
p329
ag226
aa(lp330
S'(EC):'
p331
aS'N'
p332
ag319
aa(lp333
S'ethylmethyl'
p334
aS'I'
p335
ag226
aa(lp336
S'carbonate'
p337
aS'I'
p338
ag226
aa(lp339
S'(EMC)'
p340
aS'I'
p341
ag319
aa(lp342
S'(BASF)'
p343
aS'N'
p344
ag319
aa(lp345
S'in'
p346
aS'N'
p347
ag323
aa(lp348
S'a'
p349
aS'N'
p350
aS'DT'
p351
aa(lp352
S'ratio'
p353
aS'P'
p354
ag226
aa(lp355
S'of'
p356
aS'P'
p357
ag312
aa(lp358
S'3:7'
p359
aS'P'
p360
ag206
aa(lp361
S'(by'
p362
aS'P'
p363
ag241
aa(lp364
S'weight)'
p365
aS'P'
p366
ag226
aa(lp367
S'as'
p368
aS'N'
p369
aS'IN'
p370
aa(lp371
S'the'
p372
aS'N'
p373
ag282
aa(lp374
S'control'
p375
aS'PR'
p376
ag226
aa(lp377
S'electrolyte'
p378
aS'PR'
p379
ag226
aa(lp380
S'.'
p381
aS'N'
p382
aS'.'
p383
aa(lp384
g107
ag4
ag4
aa(lp385
g109
ag4
ag4
aaa(lp386
(lp387
g3
ag4
ag4
aa(lp388
g6
ag4
ag4
aa(lp389
S'The'
p390
aS'N'
p391
aS'DT'
p392
aa(lp393
S'additives'
p394
aS'N'
p395
aS'NNS'
p396
aa(lp397
S'VC'
p398
aS'I'
p399
aS'NNP'
p400
aa(lp401
S'(BASF'
p402
aS'N'
p403
ag400
aa(lp404
S','
p405
aS'N'
p406
aS','
p407
aa(lp408
S'99.97%)'
p409
aS'P'
p410
aS'CD'
p411
aa(lp412
S','
p413
aS'N'
p414
ag407
aa(lp415
S'PES'
p416
aS'I'
p417
ag400
aa(lp418
S'(Lianchuang'
p419
aS'N'
p420
ag400
aa(lp421
S'Medicinal'
p422
aS'N'
p423
ag400
aa(lp424
S'Chemistry'
p425
aS'N'
p426
ag400
aa(lp427
S'Co.'
p428
aS'N'
p429
aS'NNP'
p430
aa(lp431
S','
p432
aS'N'
p433
ag407
aa(lp434
S'98.20%)'
p435
aS'P'
p436
ag411
aa(lp437
S','
p438
aS'N'
p439
ag407
aa(lp440
S'1,3,2-dioxathiolane-2,2-dioxide'
p441
aS'I'
p442
aS'JJ'
p443
aa(lp444
S'(DTD'
p445
aS'N'
p446
aS'NN'
p447
aa(lp448
S','
p449
aS'N'
p450
ag407
aa(lp451
S'Aldrich'
p452
aS'N'
p453
ag400
aa(lp454
S','
p455
aS'N'
p456
ag407
aa(lp457
S'98%)'
p458
aS'P'
p459
ag411
aa(lp460
S','
p461
aS'N'
p462
ag407
aa(lp463
S'MMDS'
p464
aS'I'
p465
ag400
aa(lp466
S'(Guangzhou'
p467
aS'N'
p468
ag400
aa(lp469
S'Tinci'
p470
aS'N'
p471
ag400
aa(lp472
S'Co.'
p473
aS'N'
p474
ag430
aa(lp475
S'Ltd'
p476
aS'N'
p477
aS'NNP'
p478
aa(lp479
S','
p480
aS'N'
p481
ag407
aa(lp482
S'98.70%)'
p483
aS'P'
p484
ag411
aa(lp485
S','
p486
aS'N'
p487
ag407
aa(lp488
S'triallyl'
p489
aS'I'
p490
ag447
aa(lp491
S'phosphate'
p492
aS'I'
p493
ag447
aa(lp494
S'(TAP'
p495
aS'N'
p496
ag400
aa(lp497
S','
p498
aS'N'
p499
ag407
aa(lp500
S'TCI'
p501
aS'N'
p502
ag400
aa(lp503
S'America'
p504
aS'N'
p505
aS'NNP'
p506
aa(lp507
S','
p508
aS'N'
p509
ag407
aa(lp510
S'>94.0%)'
p511
aS'P'
p512
ag400
aa(lp513
S','
p514
aS'N'
p515
ag407
aa(lp516
S'18'
p517
aS'I'
p518
aS'CD'
p519
aa(lp520
S'and'
p521
aS'N'
p522
aS'CC'
p523
aa(lp524
S'TTSPi'
p525
aS'I'
p526
ag400
aa(lp527
S'(TCI'
p528
aS'N'
p529
ag400
aa(lp530
S'America'
p531
aS'N'
p532
ag506
aa(lp533
S','
p534
aS'N'
p535
ag407
aa(lp536
S'>95%)'
p537
aS'P'
p538
ag400
aa(lp539
S'were'
p540
aS'A'
p541
aS'VBD'
p542
aa(lp543
S'added'
p544
aS'A'
p545
aS'VBN'
p546
aa(lp547
S'alone'
p548
aS'N'
p549
aS'RB'
p550
aa(lp551
S'or'
p552
aS'N'
p553
aS'CC'
p554
aa(lp555
S'in'
p556
aS'N'
p557
aS'IN'
p558
aa(lp559
S'ternary'
p560
aS'N'
p561
ag443
aa(lp562
S'combinations'
p563
aS'N'
p564
ag396
aa(lp565
S'to'
p566
aS'N'
p567
aS'TO'
p568
aa(lp569
S'the'
p570
aS'N'
p571
aS'DT'
p572
aa(lp573
S'control'
p574
aS'R'
p575
ag447
aa(lp576
S'electrolyte'
p577
aS'R'
p578
ag447
aa(lp579
S','
p580
aS'N'
p581
ag407
aa(lp582
S'in'
p583
aS'N'
p584
ag558
aa(lp585
S'concentrations'
p586
aS'P'
p587
ag396
aa(lp588
S'of'
p589
aS'P'
p590
aS'IN'
p591
aa(lp592
S'1'
p593
aS'P'
p594
aS'CD'
p595
aa(lp596
S'or'
p597
aS'P'
p598
ag554
aa(lp599
S'2%'
p600
aS'P'
p601
ag411
aa(lp602
S'by'
p603
aS'P'
p604
aS'IN'
p605
aa(lp606
S'weight'
p607
aS'P'
p608
ag447
aa(lp609
S'.'
p610
aS'N'
p611
aS'.'
p612
aa(lp613
g107
ag4
ag4
aa(lp614
g109
ag4
ag4
aaa(lp615
(lp616
g3
ag4
ag4
aa(lp617
g6
ag4
ag4
aa(lp618
S'Figure'
p619
aS'N'
p620
aS'NN'
p621
aa(lp622
S'2'
p623
aS'N'
p624
aS'CD'
p625
aa(lp626
S'shows'
p627
aS'N'
p628
aS'VBZ'
p629
aa(lp630
S'the'
p631
aS'N'
p632
aS'DT'
p633
aa(lp634
S'chemical'
p635
aS'N'
p636
ag621
aa(lp637
S'structures'
p638
aS'N'
p639
aS'NNS'
p640
aa(lp641
S'of'
p642
aS'N'
p643
aS'IN'
p644
aa(lp645
S'the'
p646
aS'N'
p647
ag633
aa(lp648
S'additives'
p649
aS'N'
p650
ag640
aa(lp651
S'studied'
p652
aS'N'
p653
aS'VBN'
p654
aa(lp655
S'in'
p656
aS'N'
p657
aS'IN'
p658
aa(lp659
S'this'
p660
aS'N'
p661
aS'DT'
p662
aa(lp663
S'work'
p664
aS'N'
p665
ag621
aa(lp666
S'.'
p667
aS'N'
p668
aS'.'
p669
aa(lp670
g107
ag4
ag4
aa(lp671
g109
ag4
ag4
aaa(lp672
(lp673
g3
ag4
ag4
aa(lp674
g6
ag4
ag4
aa(lp675
S'Cells'
p676
aS'R'
p677
aS'NNS'
p678
aa(lp679
S'were'
p680
aS'A'
p681
aS'VBD'
p682
aa(lp683
S'vacuum'
p684
aS'A'
p685
aS'RB'
p686
aa(lp687
S'sealed'
p688
aS'A'
p689
aS'VBN'
p690
aa(lp691
S'using'
p692
aS'N'
p693
aS'VBG'
p694
aa(lp695
S'a'
p696
aS'N'
p697
aS'DT'
p698
aa(lp699
S'compact'
p700
aS'E'
p701
aS'JJ'
p702
aa(lp703
S'vacuum'
p704
aS'E'
p705
ag686
aa(lp706
S'sealer'
p707
aS'E'
p708
aS'NN'
p709
aa(lp710
S'(MTI'
p711
aS'N'
p712
aS'NNP'
p713
aa(lp714
S'Corp.)'
p715
aS'N'
p716
ag713
aa(lp717
S'after'
p718
aS'N'
p719
aS'IN'
p720
aa(lp721
S'electrolyte'
p722
aS'N'
p723
ag702
aa(lp724
S'filling'
p725
aS'N'
p726
ag709
aa(lp727
S'.'
p728
aS'N'
p729
aS'.'
p730
aa(lp731
g107
ag4
ag4
aa(lp732
g109
ag4
ag4
aaa(lp733
(lp734
g3
ag4
ag4
aa(lp735
g6
ag4
ag4
aa(lp736
S'All'
p737
aS'N'
p738
aS'DT'
p739
aa(lp740
S'cells'
p741
aS'R'
p742
aS'NNS'
p743
aa(lp744
S'did'
p745
aS'A'
p746
aS'VBD'
p747
aa(lp748
S'a'
p749
aS'N'
p750
aS'DT'
p751
aa(lp752
S'formation'
p753
aS'E'
p754
aS'NN'
p755
aa(lp756
S'cycle'
p757
aS'E'
p758
aS'NN'
p759
aa(lp760
S'at'
p761
aS'N'
p762
aS'IN'
p763
aa(lp764
S'40.'
p765
aS'P'
p766
aS'CD'
p767
aa(lp768
S'plus/minus'
p769
aS'P'
p770
ag755
aa(lp771
S'0.1C'
p772
aS'P'
p773
ag767
aa(lp774
S','
p775
aS'N'
p776
aS','
p777
aa(lp778
S'consisting'
p779
aS'N'
p780
aS'VBG'
p781
aa(lp782
S'of'
p783
aS'N'
p784
aS'IN'
p785
aa(lp786
S'a'
p787
aS'N'
p788
ag751
aa(lp789
S'24'
p790
aS'P'
p791
aS'CD'
p792
aa(lp793
S'hour'
p794
aS'P'
p795
aS'NN'
p796
aa(lp797
S'hold'
p798
aS'P'
p799
ag755
aa(lp800
S'at'
p801
aS'P'
p802
ag763
aa(lp803
S'1.5'
p804
aS'P'
p805
aS'CD'
p806
aa(lp807
S'V'
p808
aS'P'
p809
aS'NNP'
p810
aa(lp811
S'to'
p812
aS'N'
p813
aS'TO'
p814
aa(lp815
S'ensure'
p816
aS'N'
p817
aS'VB'
p818
aa(lp819
S'adequate'
p820
aS'N'
p821
aS'JJ'
p822
aa(lp823
S'electrolyte'
p824
aS'N'
p825
ag755
aa(lp826
S'wetting'
p827
aS'N'
p828
ag781
aa(lp829
S'followed'
p830
aS'N'
p831
aS'VBN'
p832
aa(lp833
S'by'
p834
aS'N'
p835
aS'IN'
p836
aa(lp837
S'a'
p838
aS'N'
p839
ag751
aa(lp840
S'C/20'
p841
aS'P'
p842
ag810
aa(lp843
S'charge'
p844
aS'P'
p845
ag755
aa(lp846
S'to'
p847
aS'P'
p848
ag814
aa(lp849
S'3.5'
p850
aS'P'
p851
ag767
aa(lp852
S'V'
p853
aS'P'
p854
ag810
aa(lp855
S'.'
p856
aS'N'
p857
aS'.'
p858
aa(lp859
g107
ag4
ag4
aa(lp860
g109
ag4
ag4
aaa(lp861
(lp862
g3
ag4
ag4
aa(lp863
g6
ag4
ag4
aa(lp864
S'After'
p865
aS'N'
p866
aS'IN'
p867
aa(lp868
S'this'
p869
aS'N'
p870
aS'DT'
p871
aa(lp872
S'step'
p873
aS'N'
p874
aS'NN'
p875
aa(lp876
S','
p877
aS'N'
p878
aS','
p879
aa(lp880
S'cells'
p881
aS'R'
p882
aS'NNS'
p883
aa(lp884
S'were'
p885
aS'A'
p886
aS'VBD'
p887
aa(lp888
S'transferred'
p889
aS'A'
p890
aS'VBN'
p891
aa(lp892
S'into'
p893
aS'N'
p894
aS'IN'
p895
aa(lp896
S'an'
p897
aS'N'
p898
aS'DT'
p899
aa(lp900
S'argon-filled'
p901
aS'E'
p902
aS'JJ'
p903
aa(lp904
S'glove'
p905
aS'E'
p906
ag875
aa(lp907
S'box'
p908
aS'E'
p909
ag875
aa(lp910
S','
p911
aS'N'
p912
ag879
aa(lp913
S'cut'
p914
aS'A'
p915
aS'VB'
p916
aa(lp917
S'open'
p918
aS'A'
p919
ag903
aa(lp920
S'just'
p921
aS'N'
p922
aS'RB'
p923
aa(lp924
S'below'
p925
aS'P'
p926
aS'IN'
p927
aa(lp928
S'the'
p929
aS'P'
p930
aS'DT'
p931
aa(lp932
S'heat'
p933
aS'P'
p934
ag875
aa(lp935
S'seal'
p936
aS'P'
p937
ag875
aa(lp938
S'to'
p939
aS'N'
p940
aS'TO'
p941
aa(lp942
S'release'
p943
aS'N'
p944
ag916
aa(lp945
S'generated'
p946
aS'N'
p947
ag891
aa(lp948
S'gas'
p949
aS'N'
p950
aS'NN'
p951
aa(lp952
S'and'
p953
aS'N'
p954
aS'CC'
p955
aa(lp956
S'then'
p957
aS'N'
p958
aS'RB'
p959
aa(lp960
S'vacuum'
p961
aS'A'
p962
ag875
aa(lp963
S'sealed'
p964
aS'A'
p965
aS'VBD'
p966
aa(lp967
S'again'
p968
aS'N'
p969
aS'RB'
p970
aa(lp971
S'.'
p972
aS'N'
p973
aS'.'
p974
aa(lp975
g107
ag4
ag4
aa(lp976
g109
ag4
ag4
aaa(lp977
(lp978
g3
ag4
ag4
aa(lp979
g6
ag4
ag4
aa(lp980
S'After'
p981
aS'N'
p982
aS'IN'
p983
aa(lp984
S'degassing'
p985
aS'N'
p986
aS'VBG'
p987
aa(lp988
S','
p989
aS'N'
p990
aS','
p991
aa(lp992
S'the'
p993
aS'N'
p994
aS'DT'
p995
aa(lp996
S'cells'
p997
aS'R'
p998
aS'NNS'
p999
aa(lp1000
S'were'
p1001
aS'A'
p1002
aS'VBD'
p1003
aa(lp1004
S'charged'
p1005
aS'A'
p1006
aS'VBN'
p1007
aa(lp1008
S'to'
p1009
aS'N'
p1010
aS'TO'
p1011
aa(lp1012
S'4.5'
p1013
aS'P'
p1014
aS'CD'
p1015
aa(lp1016
S'V'
p1017
aS'P'
p1018
aS'NNP'
p1019
aa(lp1020
S'at'
p1021
aS'N'
p1022
aS'IN'
p1023
aa(lp1024
S'C/20'
p1025
aS'P'
p1026
ag1019
aa(lp1027
S'followed'
p1028
aS'N'
p1029
ag1007
aa(lp1030
S'by'
p1031
aS'N'
p1032
aS'IN'
p1033
aa(lp1034
S'a'
p1035
aS'N'
p1036
aS'DT'
p1037
aa(lp1038
S'C/20'
p1039
aS'P'
p1040
ag1019
aa(lp1041
S'discharge'
p1042
aS'A'
p1043
aS'NN'
p1044
aa(lp1045
S'to'
p1046
aS'N'
p1047
ag1011
aa(lp1048
S'3.8'
p1049
aS'P'
p1050
aS'CD'
p1051
aa(lp1052
S'V'
p1053
aS'P'
p1054
ag1019
aa(lp1055
S'.'
p1056
aS'N'
p1057
aS'.'
p1058
aa(lp1059
g107
ag4
ag4
aa(lp1060
g109
ag4
ag4
aaa(lp1061
(lp1062
g3
ag4
ag4
aa(lp1063
g6
ag4
ag4
aa(lp1064
S'The'
p1065
aS'N'
p1066
aS'DT'
p1067
aa(lp1068
S'temperature'
p1069
aS'N'
p1070
aS'NN'
p1071
aa(lp1072
S'boxes'
p1073
aS'N'
p1074
aS'NNS'
p1075
aa(lp1076
S'used'
p1077
aS'N'
p1078
aS'VBN'
p1079
aa(lp1080
S'for'
p1081
aS'N'
p1082
aS'IN'
p1083
aa(lp1084
S'the'
p1085
aS'N'
p1086
aS'DT'
p1087
aa(lp1088
S'measurements'
p1089
aS'N'
p1090
ag1075
aa(lp1091
S'presented'
p1092
aS'N'
p1093
ag1079
aa(lp1094
S'in'
p1095
aS'N'
p1096
aS'IN'
p1097
aa(lp1098
S'this'
p1099
aS'N'
p1100
aS'DT'
p1101
aa(lp1102
S'work'
p1103
aS'N'
p1104
ag1071
aa(lp1105
S'are'
p1106
aS'N'
p1107
aS'VBP'
p1108
aa(lp1109
S'stable'
p1110
aS'N'
p1111
aS'JJ'
p1112
aa(lp1113
S'to'
p1114
aS'N'
p1115
aS'TO'
p1116
aa(lp1117
S'plus/minus'
p1118
aS'N'
p1119
aS'VB'
p1120
aa(lp1121
S'0.1C'
p1122
aS'N'
p1123
aS'CD'
p1124
aa(lp1125
S','
p1126
aS'N'
p1127
aS','
p1128
aa(lp1129
S'and'
p1130
aS'N'
p1131
aS'CC'
p1132
aa(lp1133
S'are'
p1134
aS'N'
p1135
ag1108
aa(lp1136
S'within'
p1137
aS'N'
p1138
aS'IN'
p1139
aa(lp1140
S'one'
p1141
aS'N'
p1142
ag1124
aa(lp1143
S'degree'
p1144
aS'N'
p1145
ag1071
aa(lp1146
S'centigrade'
p1147
aS'N'
p1148
ag1071
aa(lp1149
S'of'
p1150
aS'N'
p1151
aS'IN'
p1152
aa(lp1153
S'the'
p1154
aS'N'
p1155
ag1087
aa(lp1156
S'set'
p1157
aS'N'
p1158
ag1071
aa(lp1159
S'temperature'
p1160
aS'N'
p1161
ag1071
aa(lp1162
S'.'
p1163
aS'N'
p1164
aS'.'
p1165
aa(lp1166
g107
ag4
ag4
aa(lp1167
g109
ag4
ag4
aaa(lp1168
(lp1169
g3
ag4
ag4
aa(lp1170
g6
ag4
ag4
aa(lp1171
S'After'
p1172
aS'N'
p1173
aS'IN'
p1174
aa(lp1175
S'formation'
p1176
aS'N'
p1177
aS'NN'
p1178
aa(lp1179
S','
p1180
aS'N'
p1181
aS','
p1182
aa(lp1183
S'these'
p1184
aS'N'
p1185
aS'DT'
p1186
aa(lp1187
S'cells'
p1188
aS'R'
p1189
aS'NNS'
p1190
aa(lp1191
S'were'
p1192
aS'A'
p1193
aS'VBD'
p1194
aa(lp1195
S'placed'
p1196
aS'A'
p1197
aS'VBN'
p1198
aa(lp1199
S'in'
p1200
aS'N'
p1201
aS'IN'
p1202
aa(lp1203
S'a'
p1204
aS'N'
p1205
aS'DT'
p1206
aa(lp1207
S'40.'
p1208
aS'P'
p1209
aS'CD'
p1210
aa(lp1211
S'plus/minus'
p1212
aS'P'
p1213
ag1178
aa(lp1214
S'0.1C'
p1215
aS'P'
p1216
ag1210
aa(lp1217
S'temperature'
p1218
aS'E'
p1219
ag1178
aa(lp1220
S'box'
p1221
aS'E'
p1222
ag1178
aa(lp1223
S'connected'
p1224
aS'N'
p1225
aS'VBD'
p1226
aa(lp1227
S'to'
p1228
aS'N'
p1229
aS'TO'
p1230
aa(lp1231
S'one'
p1232
aS'N'
p1233
ag1210
aa(lp1234
S'of'
p1235
aS'N'
p1236
aS'IN'
p1237
aa(lp1238
S'two'
p1239
aS'N'
p1240
aS'CD'
p1241
aa(lp1242
S'systems'
p1243
aS'N'
p1244
aS'NNS'
p1245
aa(lp1246
S'capable'
p1247
aS'N'
p1248
aS'JJ'
p1249
aa(lp1250
S'of'
p1251
aS'N'
p1252
ag1237
aa(lp1253
S'electrochemical'
p1254
aS'N'
p1255
ag1249
aa(lp1256
S'impedance'
p1257
aS'N'
p1258
ag1178
aa(lp1259
S'spectroscopy'
p1260
aS'N'
p1261
ag1178
aa(lp1262
S'measurements'
p1263
aS'N'
p1264
aS'NNS'
p1265
aa(lp1266
S'coupled'
p1267
aS'N'
p1268
ag1198
aa(lp1269
S'with'
p1270
aS'N'
p1271
aS'IN'
p1272
aa(lp1273
S'cycling'
p1274
aS'N'
p1275
ag1178
aa(lp1276
S'capabilities'
p1277
aS'N'
p1278
ag1265
aa(lp1279
S'.'
p1280
aS'N'
p1281
aS'.'
p1282
aa(lp1283
g107
ag4
ag4
aa(lp1284
g109
ag4
ag4
aaa(lp1285
(lp1286
g3
ag4
ag4
aa(lp1287
g6
ag4
ag4
aa(lp1288
S'The'
p1289
aS'N'
p1290
aS'DT'
p1291
aa(lp1292
S'first'
p1293
aS'PR'
p1294
aS'JJ'
p1295
aa(lp1296
S'system'
p1297
aS'PR'
p1298
aS'NN'
p1299
aa(lp1300
S'consists'
p1301
aS'A'
p1302
aS'VBZ'
p1303
aa(lp1304
S'of'
p1305
aS'N'
p1306
aS'IN'
p1307
aa(lp1308
S'a'
p1309
aS'N'
p1310
aS'DT'
p1311
aa(lp1312
S'Maccor'
p1313
aS'E'
p1314
aS'NNP'
p1315
aa(lp1316
S'series'
p1317
aS'E'
p1318
aS'NN'
p1319
aa(lp1320
S'4000'
p1321
aS'E'
p1322
aS'CD'
p1323
aa(lp1324
S'connected'
p1325
aS'N'
p1326
aS'VBD'
p1327
aa(lp1328
S'to'
p1329
aS'N'
p1330
aS'TO'
p1331
aa(lp1332
S'a'
p1333
aS'N'
p1334
ag1311
aa(lp1335
S'Maccor'
p1336
aS'E'
p1337
ag1315
aa(lp1338
S'FRA'
p1339
aS'E'
p1340
ag1315
aa(lp1341
S'model'
p1342
aS'E'
p1343
aS'NN'
p1344
aa(lp1345
S'0356'
p1346
aS'E'
p1347
ag1323
aa(lp1348
S'.'
p1349
aS'E'
p1350
aS'.'
p1351
aa(lp1352
g107
ag4
ag4
aa(lp1353
g109
ag4
ag4
aaa(lp1354
(lp1355
g3
ag4
ag4
aa(lp1356
g6
ag4
ag4
aa(lp1357
S'The'
p1358
aS'N'
p1359
aS'DT'
p1360
aa(lp1361
S'second'
p1362
aS'PR'
p1363
aS'JJ'
p1364
aa(lp1365
S'system'
p1366
aS'PR'
p1367
aS'NN'
p1368
aa(lp1369
S','
p1370
aS'N'
p1371
aS','
p1372
aa(lp1373
S'built'
p1374
aS'A'
p1375
aS'VBN'
p1376
aa(lp1377
S'in-house'
p1378
aS'N'
p1379
aS'NN'
p1380
aa(lp1381
S'by'
p1382
aS'N'
p1383
aS'IN'
p1384
aa(lp1385
S'Greg'
p1386
aS'N'
p1387
aS'NNP'
p1388
aa(lp1389
S'dEon'
p1390
aS'N'
p1391
ag1380
aa(lp1392
S'from'
p1393
aS'N'
p1394
aS'IN'
p1395
aa(lp1396
S'Dalhousie'
p1397
aS'N'
p1398
ag1388
aa(lp1399
S'University'
p1400
aS'N'
p1401
aS'NNP'
p1402
aa(lp1403
S','
p1404
aS'N'
p1405
ag1372
aa(lp1406
S'consists'
p1407
aS'N'
p1408
aS'VBZ'
p1409
aa(lp1410
S'of'
p1411
aS'N'
p1412
aS'IN'
p1413
aa(lp1414
S'Neware'
p1415
aS'E'
p1416
ag1388
aa(lp1417
S'(Shenzhen'
p1418
aS'N'
p1419
ag1388
aa(lp1420
S','
p1421
aS'N'
p1422
ag1372
aa(lp1423
S'China)'
p1424
aS'N'
p1425
ag1388
aa(lp1426
S'cyclers'
p1427
aS'E'
p1428
aS'NNS'
p1429
aa(lp1430
S'connected'
p1431
aS'N'
p1432
aS'VBD'
p1433
aa(lp1434
S'to'
p1435
aS'N'
p1436
aS'TO'
p1437
aa(lp1438
S'computers'
p1439
aS'N'
p1440
aS'NNS'
p1441
aa(lp1442
S'with'
p1443
aS'N'
p1444
aS'IN'
p1445
aa(lp1446
S'Gamry'
p1447
aS'E'
p1448
ag1388
aa(lp1449
S'frequency'
p1450
aS'E'
p1451
ag1380
aa(lp1452
S'response'
p1453
aS'E'
p1454
aS'NN'
p1455
aa(lp1456
S'analyzer'
p1457
aS'E'
p1458
ag1380
aa(lp1459
S'(FRA)'
p1460
aS'E'
p1461
ag1364
aa(lp1462
S'cards'
p1463
aS'E'
p1464
ag1429
aa(lp1465
S'via'
p1466
aS'N'
p1467
aS'IN'
p1468
aa(lp1469
S'appropriate'
p1470
aS'N'
p1471
ag1364
aa(lp1472
S'computer'
p1473
aS'N'
p1474
aS'NN'
p1475
aa(lp1476
S'controlled'
p1477
aS'N'
p1478
ag1433
aa(lp1479
S'relays'
p1480
aS'N'
p1481
ag1429
aa(lp1482
S'.'
p1483
aS'N'
p1484
aS'.'
p1485
aa(lp1486
g107
ag4
ag4
aa(lp1487
g109
ag4
ag4
aaa(lp1488
(lp1489
g3
ag4
ag4
aa(lp1490
g6
ag4
ag4
aa(lp1491
S'The'
p1492
aS'N'
p1493
aS'DT'
p1494
aa(lp1495
S'relay'
p1496
aS'R'
p1497
aS'NN'
p1498
aa(lp1499
S'switching'
p1500
aS'R'
p1501
ag1498
aa(lp1502
S'was'
p1503
aS'A'
p1504
aS'VBD'
p1505
aa(lp1506
S'controlled'
p1507
aS'A'
p1508
aS'VBN'
p1509
aa(lp1510
S'to'
p1511
aS'N'
p1512
aS'TO'
p1513
aa(lp1514
S'connect'
p1515
aS'P'
p1516
aS'VB'
p1517
aa(lp1518
S'the'
p1519
aS'N'
p1520
aS'DT'
p1521
aa(lp1522
S'cells'
p1523
aS'R'
p1524
aS'NNS'
p1525
aa(lp1526
S'to'
p1527
aS'N'
p1528
ag1513
aa(lp1529
S'the'
p1530
aS'N'
p1531
ag1521
aa(lp1532
S'Neware'
p1533
aS'E'
p1534
aS'NNP'
p1535
aa(lp1536
S'charger'
p1537
aS'E'
p1538
ag1498
aa(lp1539
S'or'
p1540
aS'N'
p1541
aS'CC'
p1542
aa(lp1543
S'to'
p1544
aS'N'
p1545
ag1513
aa(lp1546
S'the'
p1547
aS'N'
p1548
ag1521
aa(lp1549
S'Gamry'
p1550
aS'E'
p1551
ag1535
aa(lp1552
S'FRA'
p1553
aS'E'
p1554
ag1535
aa(lp1555
S'cards'
p1556
aS'E'
p1557
aS'NNS'
p1558
aa(lp1559
S'as'
p1560
aS'N'
p1561
aS'IN'
p1562
aa(lp1563
S'required'
p1564
aS'N'
p1565
ag1509
aa(lp1566
S'.'
p1567
aS'N'
p1568
aS'.'
p1569
aa(lp1570
g107
ag4
ag4
aa(lp1571
g109
ag4
ag4
aaa(lp1572
(lp1573
g3
ag4
ag4
aa(lp1574
g6
ag4
ag4
aa(lp1575
S'Cells'
p1576
aS'R'
p1577
aS'NNP'
p1578
aa(lp1579
S'underwent'
p1580
aS'A'
p1581
aS'JJ'
p1582
aa(lp1583
S'charge-discharge'
p1584
aS'E'
p1585
aS'NN'
p1586
aa(lp1587
S'cycling'
p1588
aS'E'
p1589
ag1586
aa(lp1590
S'by'
p1591
aS'N'
p1592
aS'IN'
p1593
aa(lp1594
S'one'
p1595
aS'N'
p1596
aS'CD'
p1597
aa(lp1598
S'of'
p1599
aS'N'
p1600
aS'IN'
p1601
aa(lp1602
S'two'
p1603
aS'N'
p1604
aS'CD'
p1605
aa(lp1606
S'methods'
p1607
aS'N'
p1608
aS'NNS'
p1609
aa(lp1610
S','
p1611
aS'N'
p1612
aS','
p1613
aa(lp1614
S'as'
p1615
aS'N'
p1616
aS'IN'
p1617
aa(lp1618
S'shown'
p1619
aS'N'
p1620
aS'VBN'
p1621
aa(lp1622
S'in'
p1623
aS'N'
p1624
aS'IN'
p1625
aa(lp1626
S'Figure'
p1627
aS'N'
p1628
ag1578
aa(lp1629
S'3'
p1630
aS'N'
p1631
ag1597
aa(lp1632
S'.'
p1633
aS'N'
p1634
aS'.'
p1635
aa(lp1636
g107
ag4
ag4
aa(lp1637
g109
ag4
ag4
aaa(lp1638
(lp1639
g3
ag4
ag4
aa(lp1640
g6
ag4
ag4
aa(lp1641
S'The'
p1642
aS'N'
p1643
aS'DT'
p1644
aa(lp1645
S'time'
p1646
aS'N'
p1647
aS'NN'
p1648
aa(lp1649
S'axis'
p1650
aS'N'
p1651
aS'NN'
p1652
aa(lp1653
S'is'
p1654
aS'N'
p1655
aS'VBZ'
p1656
aa(lp1657
S'simply'
p1658
aS'N'
p1659
aS'RB'
p1660
aa(lp1661
S'provided'
p1662
aS'N'
p1663
aS'VBN'
p1664
aa(lp1665
S'as'
p1666
aS'N'
p1667
aS'IN'
p1668
aa(lp1669
S'a'
p1670
aS'N'
p1671
aS'DT'
p1672
aa(lp1673
S'scale'
p1674
aS'N'
p1675
ag1652
aa(lp1676
S','
p1677
aS'N'
p1678
aS','
p1679
aa(lp1680
S'not'
p1681
aS'N'
p1682
aS'RB'
p1683
aa(lp1684
S'as'
p1685
aS'N'
p1686
ag1668
aa(lp1687
S'the'
p1688
aS'N'
p1689
aS'DT'
p1690
aa(lp1691
S'specific'
p1692
aS'N'
p1693
aS'JJ'
p1694
aa(lp1695
S'time'
p1696
aS'N'
p1697
ag1648
aa(lp1698
S'cycles'
p1699
aS'N'
p1700
aS'NNS'
p1701
aa(lp1702
S'occurred'
p1703
aS'N'
p1704
aS'VBD'
p1705
aa(lp1706
S'in'
p1707
aS'N'
p1708
aS'IN'
p1709
aa(lp1710
S'the'
p1711
aS'N'
p1712
ag1690
aa(lp1713
S'experimental'
p1714
aS'N'
p1715
ag1694
aa(lp1716
S'method'
p1717
aS'N'
p1718
ag1652
aa(lp1719
S'.'
p1720
aS'N'
p1721
aS'.'
p1722
aa(lp1723
g107
ag4
ag4
aa(lp1724
g109
ag4
ag4
aaa(lp1725
(lp1726
g3
ag4
ag4
aa(lp1727
g6
ag4
ag4
aa(lp1728
S'Cells'
p1729
aS'N'
p1730
aS'NNS'
p1731
aa(lp1732
S'undergoing'
p1733
aS'N'
p1734
aS'VBG'
p1735
aa(lp1736
S'method'
p1737
aS'R'
p1738
aS'NN'
p1739
aa(lp1740
S'1'
p1741
aS'R'
p1742
aS'CD'
p1743
aa(lp1744
S'were'
p1745
aS'A'
p1746
aS'VBD'
p1747
aa(lp1748
S'cycled'
p1749
aS'A'
p1750
aS'VBN'
p1751
aa(lp1752
S'between'
p1753
aS'P'
p1754
aS'IN'
p1755
aa(lp1756
S'2.8'
p1757
aS'P'
p1758
aS'CD'
p1759
aa(lp1760
S'and'
p1761
aS'P'
p1762
aS'CC'
p1763
aa(lp1764
S'4.4'
p1765
aS'P'
p1766
ag1759
aa(lp1767
S'V'
p1768
aS'P'
p1769
aS'NNP'
p1770
aa(lp1771
S'at'
p1772
aS'N'
p1773
aS'IN'
p1774
aa(lp1775
S'C/5'
p1776
aS'P'
p1777
ag1770
aa(lp1778
S'and'
p1779
aS'N'
p1780
ag1763
aa(lp1781
S'40.'
p1782
aS'P'
p1783
ag1759
aa(lp1784
S'plus/minus'
p1785
aS'P'
p1786
ag1739
aa(lp1787
S'0.1C'
p1788
aS'P'
p1789
ag1759
aa(lp1790
S'.'
p1791
aS'N'
p1792
aS'.'
p1793
aa(lp1794
g107
ag4
ag4
aa(lp1795
g109
ag4
ag4
aaa(lp1796
(lp1797
g3
ag4
ag4
aa(lp1798
g6
ag4
ag4
aa(lp1799
S'Every'
p1800
aS'P'
p1801
aS'DT'
p1802
aa(lp1803
S'12'
p1804
aS'P'
p1805
aS'CD'
p1806
aa(lp1807
S'cycles'
p1808
aS'P'
p1809
aS'NNS'
p1810
aa(lp1811
S','
p1812
aS'N'
p1813
aS','
p1814
aa(lp1815
S'the'
p1816
aS'N'
p1817
aS'DT'
p1818
aa(lp1819
S'cells'
p1820
aS'R'
p1821
aS'NNS'
p1822
aa(lp1823
S'underwent'
p1824
aS'A'
p1825
aS'VBD'
p1826
aa(lp1827
S'an'
p1828
aS'N'
p1829
ag1802
aa(lp1830
S'FRA'
p1831
aS'E'
p1832
aS'NNP'
p1833
aa(lp1834
S'cycle'
p1835
aS'E'
p1836
aS'NN'
p1837
aa(lp1838
S'consisting'
p1839
aS'N'
p1840
aS'VBG'
p1841
aa(lp1842
S'of'
p1843
aS'N'
p1844
aS'IN'
p1845
aa(lp1846
S'a'
p1847
aS'N'
p1848
aS'DT'
p1849
aa(lp1850
S'charge'
p1851
aS'P'
p1852
aS'NN'
p1853
aa(lp1854
S'and'
p1855
aS'N'
p1856
aS'CC'
p1857
aa(lp1858
S'discharge'
p1859
aS'P'
p1860
ag1853
aa(lp1861
S'at'
p1862
aS'N'
p1863
aS'IN'
p1864
aa(lp1865
S'C/20'
p1866
aS'P'
p1867
ag1833
aa(lp1868
S'between'
p1869
aS'P'
p1870
aS'IN'
p1871
aa(lp1872
S'2.8'
p1873
aS'P'
p1874
aS'CD'
p1875
aa(lp1876
S'and'
p1877
aS'N'
p1878
ag1857
aa(lp1879
S'4.4'
p1880
aS'P'
p1881
ag1875
aa(lp1882
S'V'
p1883
aS'P'
p1884
ag1833
aa(lp1885
S'while'
p1886
aS'N'
p1887
aS'IN'
p1888
aa(lp1889
S'the'
p1890
aS'N'
p1891
ag1818
aa(lp1892
S'FRA'
p1893
aS'E'
p1894
ag1833
aa(lp1895
S'measured'
p1896
aS'A'
p1897
ag1826
aa(lp1898
S'the'
p1899
aS'N'
p1900
ag1818
aa(lp1901
S'cell'
p1902
aS'R'
p1903
ag1853
aa(lp1904
S'impedance'
p1905
aS'E'
p1906
ag1853
aa(lp1907
S'every'
p1908
aS'P'
p1909
aS'DT'
p1910
aa(lp1911
S'0.1'
p1912
aS'P'
p1913
ag1875
aa(lp1914
S'V'
p1915
aS'P'
p1916
ag1833
aa(lp1917
S'between'
p1918
aS'P'
p1919
ag1871
aa(lp1920
S'3.6'
p1921
aS'P'
p1922
ag1875
aa(lp1923
S'and'
p1924
aS'P'
p1925
ag1857
aa(lp1926
S'4.4'
p1927
aS'P'
p1928
ag1875
aa(lp1929
S'V'
p1930
aS'P'
p1931
ag1833
aa(lp1932
S'.'
p1933
aS'N'
p1934
aS'.'
p1935
aa(lp1936
g107
ag4
ag4
aa(lp1937
g109
ag4
ag4
aaa(lp1938
(lp1939
g3
ag4
ag4
aa(lp1940
g6
ag4
ag4
aa(lp1941
S'After'
p1942
aS'N'
p1943
aS'IN'
p1944
aa(lp1945
S'the'
p1946
aS'N'
p1947
aS'DT'
p1948
aa(lp1949
S'FRA'
p1950
aS'N'
p1951
aS'NNP'
p1952
aa(lp1953
S'cycle'
p1954
aS'N'
p1955
aS'NN'
p1956
aa(lp1957
S','
p1958
aS'N'
p1959
aS','
p1960
aa(lp1961
S'the'
p1962
aS'N'
p1963
ag1948
aa(lp1964
S'cells'
p1965
aS'R'
p1966
aS'NNS'
p1967
aa(lp1968
S'were'
p1969
aS'A'
p1970
aS'VBD'
p1971
aa(lp1972
S'cycled'
p1973
aS'A'
p1974
aS'VBN'
p1975
aa(lp1976
S'again'
p1977
aS'N'
p1978
aS'RB'
p1979
aa(lp1980
S'between'
p1981
aS'P'
p1982
aS'IN'
p1983
aa(lp1984
S'2.8'
p1985
aS'P'
p1986
aS'CD'
p1987
aa(lp1988
S'and'
p1989
aS'P'
p1990
aS'CC'
p1991
aa(lp1992
S'4.4'
p1993
aS'P'
p1994
ag1987
aa(lp1995
S'V'
p1996
aS'P'
p1997
ag1952
aa(lp1998
S'at'
p1999
aS'N'
p2000
aS'IN'
p2001
aa(lp2002
S'C/5'
p2003
aS'P'
p2004
ag1952
aa(lp2005
S'for'
p2006
aS'N'
p2007
aS'IN'
p2008
aa(lp2009
S'11'
p2010
aS'P'
p2011
aS'CD'
p2012
aa(lp2013
S'cycles'
p2014
aS'P'
p2015
aS'NNS'
p2016
aa(lp2017
S','
p2018
aS'P'
p2019
ag1960
aa(lp2020
S'and'
p2021
aS'N'
p2022
ag1991
aa(lp2023
S'the'
p2024
aS'N'
p2025
ag1948
aa(lp2026
S'protocol'
p2027
aS'R'
p2028
aS'NN'
p2029
aa(lp2030
S'was'
p2031
aS'A'
p2032
aS'VBD'
p2033
aa(lp2034
S'repeated'
p2035
aS'A'
p2036
ag1975
aa(lp2037
S'.'
p2038
aS'N'
p2039
aS'.'
p2040
aa(lp2041
g107
ag4
ag4
aa(lp2042
g109
ag4
ag4
aaa(lp2043
(lp2044
g3
ag4
ag4
aa(lp2045
g6
ag4
ag4
aa(lp2046
S'After'
p2047
aS'N'
p2048
aS'IN'
p2049
aa(lp2050
S'approximately'
p2051
aS'N'
p2052
aS'RB'
p2053
aa(lp2054
S'65'
p2055
aS'N'
p2056
aS'CD'
p2057
aa(lp2058
S'cycles'
p2059
aS'N'
p2060
aS'NNS'
p2061
aa(lp2062
S','
p2063
aS'N'
p2064
aS','
p2065
aa(lp2066
S'the'
p2067
aS'N'
p2068
aS'DT'
p2069
aa(lp2070
S'upper'
p2071
aS'PR'
p2072
aS'JJ'
p2073
aa(lp2074
S'cutoff'
p2075
aS'PR'
p2076
aS'NN'
p2077
aa(lp2078
S'voltage'
p2079
aS'PR'
p2080
ag2077
aa(lp2081
S'during'
p2082
aS'N'
p2083
aS'IN'
p2084
aa(lp2085
S'cycling'
p2086
aS'E'
p2087
ag2077
aa(lp2088
S'and'
p2089
aS'N'
p2090
aS'CC'
p2091
aa(lp2092
S'impedance'
p2093
aS'E'
p2094
ag2077
aa(lp2095
S'measurements'
p2096
aS'E'
p2097
ag2061
aa(lp2098
S'was'
p2099
aS'A'
p2100
aS'VBD'
p2101
aa(lp2102
S'increased'
p2103
aS'A'
p2104
aS'VBN'
p2105
aa(lp2106
S'to'
p2107
aS'N'
p2108
aS'TO'
p2109
aa(lp2110
S'4.5'
p2111
aS'P'
p2112
aS'CD'
p2113
aa(lp2114
S'V'
p2115
aS'P'
p2116
aS'NNP'
p2117
aa(lp2118
S','
p2119
aS'N'
p2120
ag2065
aa(lp2121
S'and'
p2122
aS'N'
p2123
ag2091
aa(lp2124
S'the'
p2125
aS'N'
p2126
ag2069
aa(lp2127
S'same'
p2128
aS'N'
p2129
aS'JJ'
p2130
aa(lp2131
S'11'
p2132
aS'P'
p2133
aS'CD'
p2134
aa(lp2135
S'cycle-FRA-cycle'
p2136
aS'E'
p2137
ag2077
aa(lp2138
S'protocol'
p2139
aS'E'
p2140
ag2077
aa(lp2141
S'continued'
p2142
aS'A'
p2143
ag2101
aa(lp2144
S','
p2145
aS'N'
p2146
ag2065
aa(lp2147
S'as'
p2148
aS'N'
p2149
aS'IN'
p2150
aa(lp2151
S'shown'
p2152
aS'N'
p2153
aS'VBN'
p2154
aa(lp2155
S'in'
p2156
aS'N'
p2157
aS'IN'
p2158
aa(lp2159
S'Figure'
p2160
aS'N'
p2161
ag2117
aa(lp2162
S'3'
p2163
aS'N'
p2164
ag2057
aa(lp2165
S'.'
p2166
aS'N'
p2167
aS'.'
p2168
aa(lp2169
g107
ag4
ag4
aa(lp2170
g109
ag4
ag4
aaa(lp2171
(lp2172
g3
ag4
ag4
aa(lp2173
g6
ag4
ag4
aa(lp2174
S'Cells'
p2175
aS'R'
p2176
aS'NNS'
p2177
aa(lp2178
S'undergoing'
p2179
aS'N'
p2180
aS'VBG'
p2181
aa(lp2182
S'method'
p2183
aS'R'
p2184
aS'NN'
p2185
aa(lp2186
S'2'
p2187
aS'R'
p2188
aS'CD'
p2189
aa(lp2190
S'were'
p2191
aS'A'
p2192
aS'VBD'
p2193
aa(lp2194
S'cycled'
p2195
aS'A'
p2196
aS'VBN'
p2197
aa(lp2198
S'between'
p2199
aS'P'
p2200
aS'IN'
p2201
aa(lp2202
S'2.8'
p2203
aS'P'
p2204
aS'CD'
p2205
aa(lp2206
S'and'
p2207
aS'P'
p2208
aS'CC'
p2209
aa(lp2210
S'4.4'
p2211
aS'P'
p2212
ag2205
aa(lp2213
S'V'
p2214
aS'P'
p2215
aS'NNP'
p2216
aa(lp2217
S'at'
p2218
aS'N'
p2219
aS'IN'
p2220
aa(lp2221
S'C/5'
p2222
aS'P'
p2223
ag2216
aa(lp2224
S'and'
p2225
aS'N'
p2226
ag2209
aa(lp2227
S'40.'
p2228
aS'P'
p2229
ag2205
aa(lp2230
S'plus/minus'
p2231
aS'P'
p2232
ag2177
aa(lp2233
S'0.1C'
p2234
aS'P'
p2235
ag2205
aa(lp2236
S'including'
p2237
aS'N'
p2238
aS'VBG'
p2239
aa(lp2240
S'a'
p2241
aS'N'
p2242
aS'DT'
p2243
aa(lp2244
S'20'
p2245
aS'P'
p2246
aS'CD'
p2247
aa(lp2248
S'or'
p2249
aS'P'
p2250
aS'CC'
p2251
aa(lp2252
S'24'
p2253
aS'P'
p2254
aS'CD'
p2255
aa(lp2256
S'hr'
p2257
aS'P'
p2258
ag2185
aa(lp2259
S'hold'
p2260
aS'P'
p2261
ag2185
aa(lp2262
S'at'
p2263
aS'P'
p2264
ag2220
aa(lp2265
S'4.4'
p2266
aS'P'
p2267
ag2205
aa(lp2268
S'V'
p2269
aS'P'
p2270
ag2216
aa(lp2271
S'.'
p2272
aS'N'
p2273
aS'.'
p2274
aa(lp2275
g107
ag4
ag4
aa(lp2276
g109
ag4
ag4
aaa(lp2277
(lp2278
g3
ag4
ag4
aa(lp2279
g6
ag4
ag4
aa(lp2280
S'Every'
p2281
aS'P'
p2282
aS'DT'
p2283
aa(lp2284
S'4'
p2285
aS'P'
p2286
aS'CD'
p2287
aa(lp2288
S'cycles'
p2289
aS'P'
p2290
aS'NNS'
p2291
aa(lp2292
S','
p2293
aS'N'
p2294
aS','
p2295
aa(lp2296
S'the'
p2297
aS'N'
p2298
aS'DT'
p2299
aa(lp2300
S'cells'
p2301
aS'R'
p2302
aS'NNS'
p2303
aa(lp2304
S'underwent'
p2305
aS'A'
p2306
aS'VBD'
p2307
aa(lp2308
S'an'
p2309
aS'N'
p2310
ag2283
aa(lp2311
S'FRA'
p2312
aS'E'
p2313
aS'NNP'
p2314
aa(lp2315
S'cycle'
p2316
aS'E'
p2317
aS'NN'
p2318
aa(lp2319
S'as'
p2320
aS'N'
p2321
aS'IN'
p2322
aa(lp2323
S'described'
p2324
aS'N'
p2325
aS'VBN'
p2326
aa(lp2327
S'in'
p2328
aS'N'
p2329
aS'IN'
p2330
aa(lp2331
S'method'
p2332
aS'N'
p2333
aS'NN'
p2334
aa(lp2335
S'1'
p2336
aS'N'
p2337
aS'CD'
p2338
aa(lp2339
S'.'
p2340
aS'N'
p2341
aS'.'
p2342
aa(lp2343
g107
ag4
ag4
aa(lp2344
g109
ag4
ag4
aaa(lp2345
(lp2346
g3
ag4
ag4
aa(lp2347
g6
ag4
ag4
aa(lp2348
S'After'
p2349
aS'N'
p2350
aS'IN'
p2351
aa(lp2352
S'the'
p2353
aS'N'
p2354
aS'DT'
p2355
aa(lp2356
S'FRA'
p2357
aS'N'
p2358
aS'NNP'
p2359
aa(lp2360
S'cycle'
p2361
aS'N'
p2362
aS'NN'
p2363
aa(lp2364
S','
p2365
aS'N'
p2366
aS','
p2367
aa(lp2368
S'the'
p2369
aS'N'
p2370
ag2355
aa(lp2371
S'cells'
p2372
aS'R'
p2373
aS'NNS'
p2374
aa(lp2375
S'were'
p2376
aS'A'
p2377
aS'VBD'
p2378
aa(lp2379
S'cycled'
p2380
aS'A'
p2381
aS'VBN'
p2382
aa(lp2383
S'again'
p2384
aS'N'
p2385
aS'RB'
p2386
aa(lp2387
S'between'
p2388
aS'N'
p2389
aS'IN'
p2390
aa(lp2391
S'2.8'
p2392
aS'P'
p2393
aS'CD'
p2394
aa(lp2395
S'and'
p2396
aS'P'
p2397
aS'CC'
p2398
aa(lp2399
S'4.4'
p2400
aS'P'
p2401
ag2394
aa(lp2402
S'V'
p2403
aS'P'
p2404
ag2359
aa(lp2405
S'at'
p2406
aS'N'
p2407
aS'IN'
p2408
aa(lp2409
S'C/5'
p2410
aS'P'
p2411
ag2359
aa(lp2412
S'for'
p2413
aS'N'
p2414
aS'IN'
p2415
aa(lp2416
S'3'
p2417
aS'P'
p2418
ag2394
aa(lp2419
S'cycles'
p2420
aS'P'
p2421
aS'NNS'
p2422
aa(lp2423
S'with'
p2424
aS'N'
p2425
aS'IN'
p2426
aa(lp2427
S'a'
p2428
aS'N'
p2429
aS'DT'
p2430
aa(lp2431
S'20'
p2432
aS'P'
p2433
aS'CD'
p2434
aa(lp2435
S'or'
p2436
aS'P'
p2437
aS'CC'
p2438
aa(lp2439
S'24'
p2440
aS'P'
p2441
aS'CD'
p2442
aa(lp2443
S'h'
p2444
aS'P'
p2445
aS'NN'
p2446
aa(lp2447
S'hold'
p2448
aS'P'
p2449
ag2446
aa(lp2450
S'at'
p2451
aS'P'
p2452
ag2408
aa(lp2453
S'4.4'
p2454
aS'P'
p2455
ag2394
aa(lp2456
S'V'
p2457
aS'P'
p2458
ag2359
aa(lp2459
S','
p2460
aS'N'
p2461
ag2367
aa(lp2462
S'and'
p2463
aS'N'
p2464
ag2398
aa(lp2465
S'the'
p2466
aS'N'
p2467
ag2355
aa(lp2468
S'protocol'
p2469
aS'E'
p2470
ag2446
aa(lp2471
S'was'
p2472
aS'A'
p2473
aS'VBD'
p2474
aa(lp2475
S'repeated'
p2476
aS'A'
p2477
ag2382
aa(lp2478
S'.'
p2479
aS'N'
p2480
aS'.'
p2481
aa(lp2482
g107
ag4
ag4
aa(lp2483
g109
ag4
ag4
aaa.