(lp0
(lp1
(lp2
S'***START***'
p3
aS'None'
p4
ag4
aa(lp5
S'***START2***'
p6
ag4
ag4
aa(lp7
S'Titanate'
p8
aS'R'
p9
aS'NN'
p10
aa(lp11
S'nanowires'
p12
aS'R'
p13
aS'NNS'
p14
aa(lp15
S'were'
p16
aS'A'
p17
aS'VBD'
p18
aa(lp19
S'synthesized'
p20
aS'A'
p21
aS'VBN'
p22
aa(lp23
S'by'
p24
aS'N'
p25
aS'IN'
p26
aa(lp27
S'adding'
p28
aS'P'
p29
aS'VBG'
p30
aa(lp31
S'anatase'
p32
aS'R'
p33
ag10
aa(lp34
S'TiO2'
p35
aS'R'
p36
aS'NNP'
p37
aa(lp38
S'to'
p39
aS'N'
p40
aS'TO'
p41
aa(lp42
S'a'
p43
aS'N'
p44
aS'DT'
p45
aa(lp46
S'15'
p47
aS'P'
p48
aS'CD'
p49
aa(lp50
S'M'
p51
aS'P'
p52
ag37
aa(lp53
S'aqueous'
p54
aS'R'
p55
aS'JJ'
p56
aa(lp57
S'solution'
p58
aS'R'
p59
ag10
aa(lp60
S'of'
p61
aS'R'
p62
aS'IN'
p63
aa(lp64
S'NaOH'
p65
aS'R'
p66
ag37
aa(lp67
S'.'
p68
aS'N'
p69
aS'.'
p70
aa(lp71
S'***END***'
p72
ag4
ag4
aa(lp73
S'***END2***'
p74
ag4
ag4
aaa(lp75
(lp76
g3
ag4
ag4
aa(lp77
g6
ag4
ag4
aa(lp78
S'After'
p79
aS'N'
p80
aS'IN'
p81
aa(lp82
S'stirring'
p83
aS'A'
p84
aS'VBG'
p85
aa(lp86
S'for'
p87
aS'N'
p88
aS'IN'
p89
aa(lp90
S'1'
p91
aS'P'
p92
aS'CD'
p93
aa(lp94
S'h'
p95
aS'P'
p96
aS'PDT'
p97
aa(lp98
S'the'
p99
aS'N'
p100
aS'DT'
p101
aa(lp102
S'resulting'
p103
aS'R'
p104
ag85
aa(lp105
S'suspension'
p106
aS'R'
p107
aS'NN'
p108
aa(lp109
S'was'
p110
aS'A'
p111
aS'VBD'
p112
aa(lp113
S'transferred'
p114
aS'A'
p115
aS'VBN'
p116
aa(lp117
S'to'
p118
aS'N'
p119
aS'TO'
p120
aa(lp121
S'a'
p122
aS'N'
p123
aS'DT'
p124
aa(lp125
S'Teflon-lined'
p126
aS'R'
p127
aS'JJ'
p128
aa(lp129
S'autoclave'
p130
aS'R'
p131
ag108
aa(lp132
S'and'
p133
aS'N'
p134
aS'CC'
p135
aa(lp136
S'heated'
p137
aS'A'
p138
ag112
aa(lp139
S'to'
p140
aS'N'
p141
ag120
aa(lp142
S'170'
p143
aS'P'
p144
aS'CD'
p145
aa(lp146
S'C'
p147
aS'P'
p148
aS'NNP'
p149
aa(lp150
S'for'
p151
aS'N'
p152
ag89
aa(lp153
S'72'
p154
aS'P'
p155
ag145
aa(lp156
S'h'
p157
aS'P'
p158
ag97
aa(lp159
S'.'
p160
aS'N'
p161
aS'.'
p162
aa(lp163
g72
ag4
ag4
aa(lp164
g74
ag4
ag4
aaa(lp165
(lp166
g3
ag4
ag4
aa(lp167
g6
ag4
ag4
aa(lp168
S'The'
p169
aS'N'
p170
aS'DT'
p171
aa(lp172
S'product'
p173
aS'R'
p174
aS'NN'
p175
aa(lp176
S'was'
p177
aS'A'
p178
aS'VBD'
p179
aa(lp180
S'acid-washed'
p181
aS'A'
p182
aS'JJ'
p183
aa(lp184
S','
p185
aS'N'
p186
aS','
p187
aa(lp188
S'which'
p189
aS'N'
p190
aS'WDT'
p191
aa(lp192
S'involved'
p193
aS'N'
p194
ag179
aa(lp195
S'stirring'
p196
aS'P'
p197
aS'VBG'
p198
aa(lp199
S'the'
p200
aS'N'
p201
aS'DT'
p202
aa(lp203
S'sample'
p204
aS'N'
p205
aS'NN'
p206
aa(lp207
S'in'
p208
aS'N'
p209
aS'IN'
p210
aa(lp211
S'0.05'
p212
aS'P'
p213
aS'CD'
p214
aa(lp215
S'M'
p216
aS'P'
p217
aS'NNP'
p218
aa(lp219
S'HCl'
p220
aS'R'
p221
ag218
aa(lp222
S'solution'
p223
aS'R'
p224
ag206
aa(lp225
S'for'
p226
aS'N'
p227
aS'IN'
p228
aa(lp229
S'2'
p230
aS'P'
p231
aS'CD'
p232
aa(lp233
S'h'
p234
aS'P'
p235
ag206
aa(lp236
S'.'
p237
aS'N'
p238
aS'.'
p239
aa(lp240
g72
ag4
ag4
aa(lp241
g74
ag4
ag4
aaa(lp242
(lp243
g3
ag4
ag4
aa(lp244
g6
ag4
ag4
aa(lp245
S'The'
p246
aS'N'
p247
aS'DT'
p248
aa(lp249
S'material'
p250
aS'R'
p251
aS'NN'
p252
aa(lp253
S'was'
p254
aS'A'
p255
aS'VBD'
p256
aa(lp257
S'then'
p258
aS'N'
p259
aS'RB'
p260
aa(lp261
S'filtered'
p262
aS'A'
p263
aS'VBN'
p264
aa(lp265
S','
p266
aS'N'
p267
aS','
p268
aa(lp269
S'washed'
p270
aS'A'
p271
ag264
aa(lp272
S'with'
p273
aS'N'
p274
aS'IN'
p275
aa(lp276
S'distilled'
p277
aS'R'
p278
aS'JJ'
p279
aa(lp280
S'water'
p281
aS'R'
p282
aS'NN'
p283
aa(lp284
S','
p285
aS'N'
p286
ag268
aa(lp287
S'and'
p288
aS'N'
p289
aS'CC'
p290
aa(lp291
S'dried'
p292
aS'A'
p293
ag256
aa(lp294
S'at'
p295
aS'N'
p296
aS'IN'
p297
aa(lp298
S'80'
p299
aS'P'
p300
aS'CD'
p301
aa(lp302
S'C'
p303
aS'P'
p304
aS'NNP'
p305
aa(lp306
S'for'
p307
aS'N'
p308
aS'IN'
p309
aa(lp310
S'15'
p311
aS'P'
p312
aS'CD'
p313
aa(lp314
S'h'
p315
aS'P'
p316
ag252
aa(lp317
S'.'
p318
aS'N'
p319
aS'.'
p320
aa(lp321
g72
ag4
ag4
aa(lp322
g74
ag4
ag4
aaa(lp323
(lp324
g3
ag4
ag4
aa(lp325
g6
ag4
ag4
aa(lp326
S'TiO2(B)'
p327
aS'R'
p328
aS'NNP'
p329
aa(lp330
S'nanowires'
p331
aS'R'
p332
aS'NNS'
p333
aa(lp334
S'were'
p335
aS'A'
p336
aS'VBD'
p337
aa(lp338
S'prepared'
p339
aS'A'
p340
aS'VBN'
p341
aa(lp342
S'by'
p343
aS'N'
p344
aS'IN'
p345
aa(lp346
S'heating'
p347
aS'P'
p348
aS'VBG'
p349
aa(lp350
S'the'
p351
aS'N'
p352
aS'DT'
p353
aa(lp354
S'acid-washed'
p355
aS'P'
p356
aS'JJ'
p357
aa(lp358
S'titanate'
p359
aS'R'
p360
aS'NN'
p361
aa(lp362
S'nanowires'
p363
aS'R'
p364
ag333
aa(lp365
S'at'
p366
aS'N'
p367
aS'IN'
p368
aa(lp369
S'400'
p370
aS'P'
p371
aS'CD'
p372
aa(lp373
S'C'
p374
aS'P'
p375
ag329
aa(lp376
S'for'
p377
aS'N'
p378
aS'IN'
p379
aa(lp380
S'4'
p381
aS'P'
p382
aS'CD'
p383
aa(lp384
S'h'
p385
aS'P'
p386
ag361
aa(lp387
S'in'
p388
aS'N'
p389
aS'IN'
p390
aa(lp391
S'air'
p392
aS'P'
p393
ag361
aa(lp394
S'.'
p395
aS'N'
p396
aS'.'
p397
aa(lp398
g72
ag4
ag4
aa(lp399
g74
ag4
ag4
aaa(lp400
(lp401
g3
ag4
ag4
aa(lp402
g6
ag4
ag4
aa(lp403
S'The'
p404
aS'N'
p405
aS'DT'
p406
aa(lp407
S'GPE'
p408
aS'R'
p409
aS'NNP'
p410
aa(lp411
S'was'
p412
aS'A'
p413
aS'VBD'
p414
aa(lp415
S'formed'
p416
aS'A'
p417
aS'VBN'
p418
aa(lp419
S'by'
p420
aS'N'
p421
aS'IN'
p422
aa(lp423
S'trapping'
p424
aS'P'
p425
aS'VBG'
p426
aa(lp427
S'LiPF6'
p428
aS'R'
p429
ag410
aa(lp430
S'dissolved'
p431
aS'N'
p432
ag414
aa(lp433
S'in'
p434
aS'N'
p435
aS'IN'
p436
aa(lp437
S'a'
p438
aS'N'
p439
aS'DT'
p440
aa(lp441
S'mixture'
p442
aS'N'
p443
aS'NN'
p444
aa(lp445
S'of'
p446
aS'N'
p447
aS'IN'
p448
aa(lp449
S'EC'
p450
aS'R'
p451
aS'NNP'
p452
aa(lp453
S'and'
p454
aS'N'
p455
aS'CC'
p456
aa(lp457
S'PC'
p458
aS'R'
p459
ag410
aa(lp460
S'(20:40:40'
p461
aS'P'
p462
ag410
aa(lp463
S'by'
p464
aS'P'
p465
ag422
aa(lp466
S'weight)'
p467
aS'P'
p468
ag444
aa(lp469
S'in'
p470
aS'N'
p471
ag436
aa(lp472
S'a'
p473
aS'N'
p474
ag440
aa(lp475
S'PVdF'
p476
aS'R'
p477
ag410
aa(lp478
S'matrix'
p479
aS'R'
p480
ag444
aa(lp481
S','
p482
aS'N'
p483
aS','
p484
aa(lp485
S'following'
p486
aS'N'
p487
ag426
aa(lp488
S'a'
p489
aS'N'
p490
ag440
aa(lp491
S'procedure'
p492
aS'N'
p493
ag444
aa(lp494
S'described'
p495
aS'N'
p496
ag418
aa(lp497
S'in'
p498
aS'N'
p499
ag436
aa(lp500
S'detail'
p501
aS'N'
p502
ag444
aa(lp503
S'elsewhere'
p504
aS'N'
p505
aS'RB'
p506
aa(lp507
S'.'
p508
aS'N'
p509
aS'.'
p510
aa(lp511
g72
ag4
ag4
aa(lp512
g74
ag4
ag4
aaa(lp513
(lp514
g3
ag4
ag4
aa(lp515
g6
ag4
ag4
aa(lp516
S'LiFePO4'
p517
aS'R'
p518
aS'NNP'
p519
aa(lp520
S'was'
p521
aS'A'
p522
aS'VBD'
p523
aa(lp524
S'generously'
p525
aS'N'
p526
aS'RB'
p527
aa(lp528
S'provided'
p529
aS'A'
p530
aS'VBN'
p531
aa(lp532
S'by'
p533
aS'N'
p534
aS'IN'
p535
aa(lp536
S'Dr.'
p537
aS'N'
p538
aS'NNP'
p539
aa(lp540
S'Margret'
p541
aS'N'
p542
ag519
aa(lp543
S'WohlfahrtMehrens'
p544
aS'N'
p545
ag519
aa(lp546
S'of'
p547
aS'N'
p548
aS'IN'
p549
aa(lp550
S'ZSW'
p551
aS'N'
p552
ag519
aa(lp553
S'in'
p554
aS'N'
p555
aS'IN'
p556
aa(lp557
S'Ulm'
p558
aS'N'
p559
ag519
aa(lp560
S','
p561
aS'N'
p562
aS','
p563
aa(lp564
S'Germany'
p565
aS'N'
p566
aS'NNP'
p567
aa(lp568
S'.'
p569
aS'N'
p570
aS'.'
p571
aa(lp572
g72
ag4
ag4
aa(lp573
g74
ag4
ag4
aaa(lp574
(lp575
g3
ag4
ag4
aa(lp576
g6
ag4
ag4
aa(lp577
S'The'
p578
aS'N'
p579
aS'DT'
p580
aa(lp581
S'nickel'
p582
aS'R'
p583
aS'JJ'
p584
aa(lp585
S'manganese'
p586
aS'R'
p587
ag584
aa(lp588
S'spinel'
p589
aS'R'
p590
aS'NNS'
p591
aa(lp592
S','
p593
aS'N'
p594
aS','
p595
aa(lp596
S'LiNi0.5Mn1.5O4'
p597
aS'R'
p598
aS'NNP'
p599
aa(lp600
S','
p601
aS'N'
p602
ag595
aa(lp603
S'was'
p604
aS'A'
p605
aS'VBD'
p606
aa(lp607
S'obtained'
p608
aS'A'
p609
aS'VBN'
p610
aa(lp611
S'by'
p612
aS'N'
p613
aS'IN'
p614
aa(lp615
S'a'
p616
aS'R'
p617
aS'DT'
p618
aa(lp619
S'wet-chemistry'
p620
aS'R'
p621
ag584
aa(lp622
S'route'
p623
aS'R'
p624
aS'NN'
p625
aa(lp626
S'starting'
p627
aS'N'
p628
aS'VBG'
p629
aa(lp630
S'from'
p631
aS'N'
p632
aS'IN'
p633
aa(lp634
S'LiNO3'
p635
aS'R'
p636
ag599
aa(lp637
S','
p638
aS'N'
p639
ag595
aa(lp640
S'Ni(NO3)2H2O'
p641
aS'R'
p642
ag599
aa(lp643
S'and'
p644
aS'R'
p645
aS'CC'
p646
aa(lp647
S'Mn(NO3)2H2O'
p648
aS'R'
p649
ag599
aa(lp650
S'.'
p651
aS'N'
p652
aS'.'
p653
aa(lp654
g72
ag4
ag4
aa(lp655
g74
ag4
ag4
aaa(lp656
(lp657
g3
ag4
ag4
aa(lp658
g6
ag4
ag4
aa(lp659
S'The'
p660
aS'N'
p661
aS'DT'
p662
aa(lp663
S'synthesis'
p664
aS'N'
p665
aS'NN'
p666
aa(lp667
S'procedures'
p668
aS'N'
p669
aS'NNS'
p670
aa(lp671
S'and'
p672
aS'N'
p673
aS'CC'
p674
aa(lp675
S'characterization'
p676
aS'N'
p677
ag666
aa(lp678
S'of'
p679
aS'N'
p680
aS'IN'
p681
aa(lp682
S'both'
p683
aS'N'
p684
aS'DT'
p685
aa(lp686
S'cathode'
p687
aS'N'
p688
ag666
aa(lp689
S'materials'
p690
aS'N'
p691
aS'NNS'
p692
aa(lp693
S'have'
p694
aS'N'
p695
aS'VBP'
p696
aa(lp697
S'been'
p698
aS'N'
p699
aS'VBN'
p700
aa(lp701
S'described'
p702
aS'N'
p703
aS'VBN'
p704
aa(lp705
S'previously'
p706
aS'N'
p707
aS'RB'
p708
aa(lp709
S'.'
p710
aS'N'
p711
aS'.'
p712
aa(lp713
g72
ag4
ag4
aa(lp714
g74
ag4
ag4
aaa(lp715
(lp716
g3
ag4
ag4
aa(lp717
g6
ag4
ag4
aa(lp718
S'Composite'
p719
aS'R'
p720
aS'NNP'
p721
aa(lp722
S'electrodes'
p723
aS'R'
p724
aS'NNS'
p725
aa(lp726
S'were'
p727
aS'A'
p728
aS'VBD'
p729
aa(lp730
S'fabricated'
p731
aS'A'
p732
aS'VBN'
p733
aa(lp734
S'in'
p735
aS'N'
p736
aS'IN'
p737
aa(lp738
S'the'
p739
aS'N'
p740
aS'DT'
p741
aa(lp742
S'form'
p743
aS'P'
p744
aS'NN'
p745
aa(lp746
S'of'
p747
aS'P'
p748
aS'IN'
p749
aa(lp750
S'films'
p751
aS'P'
p752
ag725
aa(lp753
S'by'
p754
aS'N'
p755
aS'IN'
p756
aa(lp757
S'dispersing'
p758
aS'P'
p759
aS'VBG'
p760
aa(lp761
S'the'
p762
aS'N'
p763
ag741
aa(lp764
S'active'
p765
aS'R'
p766
aS'JJ'
p767
aa(lp768
S'materials'
p769
aS'R'
p770
aS'NNS'
p771
aa(lp772
S'(i.e.'
p773
aS'N'
p774
aS'VBP'
p775
aa(lp776
S','
p777
aS'N'
p778
aS','
p779
aa(lp780
S'TiO2(B)'
p781
aS'R'
p782
ag721
aa(lp783
S','
p784
aS'N'
p785
ag779
aa(lp786
S'LiFePO4'
p787
aS'R'
p788
ag721
aa(lp789
S','
p790
aS'N'
p791
ag779
aa(lp792
S'or'
p793
aS'N'
p794
aS'CC'
p795
aa(lp796
S'LiNi0.5-'
p797
aS'R'
p798
aS'JJ'
p799
aa(lp800
S'Mn1.5O4)'
p801
aS'R'
p802
ag721
aa(lp803
S'in'
p804
aS'N'
p805
ag737
aa(lp806
S'N-methylpyrrolidinone'
p807
aS'R'
p808
ag721
aa(lp809
S'(NMP)'
p810
aS'R'
p811
ag721
aa(lp812
S'with'
p813
aS'N'
p814
aS'IN'
p815
aa(lp816
S'8'
p817
aS'P'
p818
aS'CD'
p819
aa(lp820
S'or'
p821
aS'P'
p822
ag795
aa(lp823
S'10'
p824
aS'P'
p825
aS'CD'
p826
aa(lp827
S'wt%'
p828
aS'P'
p829
ag745
aa(lp830
S'of'
p831
aS'N'
p832
ag749
aa(lp833
S'Super'
p834
aS'R'
p835
ag721
aa(lp836
S'P'
p837
aS'R'
p838
ag721
aa(lp839
S'(M.M.M.'
p840
aS'N'
p841
ag721
aa(lp842
S'Carbon'
p843
aS'N'
p844
ag721
aa(lp845
S'Belgium)'
p846
aS'N'
p847
ag721
aa(lp848
S'and'
p849
aS'N'
p850
aS'CC'
p851
aa(lp852
S'10'
p853
aS'P'
p854
ag826
aa(lp855
S'wt%'
p856
aS'P'
p857
ag745
aa(lp858
S'PVdF'
p859
aS'R'
p860
ag721
aa(lp861
S'(Solvay'
p862
aS'N'
p863
ag721
aa(lp864
S'Solef'
p865
aS'N'
p866
ag721
aa(lp867
S'UHMW'
p868
aS'N'
p869
ag721
aa(lp870
S'6020)'
p871
aS'N'
p872
aS'CD'
p873
aa(lp874
S'.'
p875
aS'N'
p876
aS'.'
p877
aa(lp878
g72
ag4
ag4
aa(lp879
g74
ag4
ag4
aaa(lp880
(lp881
g3
ag4
ag4
aa(lp882
g6
ag4
ag4
aa(lp883
S'This'
p884
aS'N'
p885
aS'DT'
p886
aa(lp887
S'slurry'
p888
aS'R'
p889
aS'NN'
p890
aa(lp891
S'was'
p892
aS'A'
p893
aS'VBD'
p894
aa(lp895
S'then'
p896
aS'N'
p897
aS'RB'
p898
aa(lp899
S'cast'
p900
aS'A'
p901
aS'VBN'
p902
aa(lp903
S'onto'
p904
aS'N'
p905
aS'IN'
p906
aa(lp907
S'aluminum'
p908
aS'R'
p909
ag890
aa(lp910
S'(LiFePO4'
p911
aS'R'
p912
ag890
aa(lp913
S'or'
p914
aS'N'
p915
aS'CC'
p916
aa(lp917
S'LiNi0.5Mn1.5O4)'
p918
aS'R'
p919
aS'NNP'
p920
aa(lp921
S'or'
p922
aS'N'
p923
ag916
aa(lp924
S'copper'
p925
aS'R'
p926
ag890
aa(lp927
S'(TiO2(B))'
p928
aS'R'
p929
ag890
aa(lp930
S'foils'
p931
aS'N'
p932
aS'NNS'
p933
aa(lp934
S'.'
p935
aS'N'
p936
aS'.'
p937
aa(lp938
g72
ag4
ag4
aa(lp939
g74
ag4
ag4
aaa(lp940
(lp941
g3
ag4
ag4
aa(lp942
g6
ag4
ag4
aa(lp943
S'Disks'
p944
aS'R'
p945
aS'NNS'
p946
aa(lp947
S'of'
p948
aS'N'
p949
aS'IN'
p950
aa(lp951
S'10'
p952
aS'P'
p953
aS'CD'
p954
aa(lp955
S'mm'
p956
aS'P'
p957
ag946
aa(lp958
S'diameter'
p959
aS'P'
p960
aS'RBR'
p961
aa(lp962
S'were'
p963
aS'A'
p964
aS'VBD'
p965
aa(lp966
S'cut'
p967
aS'A'
p968
aS'VBN'
p969
aa(lp970
S'and'
p971
aS'N'
p972
aS'CC'
p973
aa(lp974
S'vacuum-dried'
p975
aS'A'
p976
aS'JJ'
p977
aa(lp978
S'for'
p979
aS'N'
p980
aS'IN'
p981
aa(lp982
S'5'
p983
aS'P'
p984
aS'CD'
p985
aa(lp986
S'h'
p987
aS'P'
p988
aS'NN'
p989
aa(lp990
S'at'
p991
aS'N'
p992
aS'IN'
p993
aa(lp994
S'110'
p995
aS'P'
p996
aS'CD'
p997
aa(lp998
S'C'
p999
aS'P'
p1000
aS'NNP'
p1001
aa(lp1002
S'to'
p1003
aS'N'
p1004
aS'TO'
p1005
aa(lp1006
S'completely'
p1007
aS'N'
p1008
aS'RB'
p1009
aa(lp1010
S'eliminate'
p1011
aS'N'
p1012
aS'VB'
p1013
aa(lp1014
S'traces'
p1015
aS'N'
p1016
ag946
aa(lp1017
S'of'
p1018
aS'N'
p1019
ag950
aa(lp1020
S'moisture'
p1021
aS'N'
p1022
ag989
aa(lp1023
S'and'
p1024
aS'N'
p1025
ag973
aa(lp1026
S'NMP'
p1027
aS'N'
p1028
ag1001
aa(lp1029
S'.'
p1030
aS'N'
p1031
aS'.'
p1032
aa(lp1033
g72
ag4
ag4
aa(lp1034
g74
ag4
ag4
aaa(lp1035
(lp1036
g3
ag4
ag4
aa(lp1037
g6
ag4
ag4
aa(lp1038
S'The'
p1039
aS'N'
p1040
aS'DT'
p1041
aa(lp1042
S'complete'
p1043
aS'N'
p1044
aS'JJ'
p1045
aa(lp1046
S'lithium-ion'
p1047
aS'R'
p1048
aS'NN'
p1049
aa(lp1050
S'cell'
p1051
aS'R'
p1052
ag1049
aa(lp1053
S'was'
p1054
aS'A'
p1055
aS'VBD'
p1056
aa(lp1057
S'assembled'
p1058
aS'A'
p1059
aS'VBN'
p1060
aa(lp1061
S'by'
p1062
aS'N'
p1063
aS'IN'
p1064
aa(lp1065
S'sandwiching'
p1066
aS'P'
p1067
aS'VBG'
p1068
aa(lp1069
S'a'
p1070
aS'N'
p1071
aS'DT'
p1072
aa(lp1073
S'GPE'
p1074
aS'R'
p1075
aS'NNP'
p1076
aa(lp1077
S'membrane'
p1078
aS'R'
p1079
ag1049
aa(lp1080
S'between'
p1081
aS'N'
p1082
aS'IN'
p1083
aa(lp1084
S'a'
p1085
aS'N'
p1086
ag1072
aa(lp1087
S'TiO2(B)'
p1088
aS'R'
p1089
ag1076
aa(lp1090
S'electrode'
p1091
aS'R'
p1092
ag1049
aa(lp1093
S'and'
p1094
aS'N'
p1095
aS'CC'
p1096
aa(lp1097
S'either'
p1098
aS'N'
p1099
aS'CC'
p1100
aa(lp1101
S'a'
p1102
aS'N'
p1103
ag1072
aa(lp1104
S'LiFePO4'
p1105
aS'R'
p1106
ag1076
aa(lp1107
S'or'
p1108
aS'N'
p1109
aS'CC'
p1110
aa(lp1111
S'LiNi0.5Mn1.5O4'
p1112
aS'R'
p1113
ag1076
aa(lp1114
S'disk'
p1115
aS'R'
p1116
ag1049
aa(lp1117
S'.'
p1118
aS'N'
p1119
aS'.'
p1120
aa(lp1121
g72
ag4
ag4
aa(lp1122
g74
ag4
ag4
aaa(lp1123
(lp1124
g3
ag4
ag4
aa(lp1125
g6
ag4
ag4
aa(lp1126
S'The'
p1127
aS'N'
p1128
aS'DT'
p1129
aa(lp1130
S'batteries'
p1131
aS'R'
p1132
aS'NNS'
p1133
aa(lp1134
S'were'
p1135
aS'A'
p1136
aS'VBD'
p1137
aa(lp1138
S'anode'
p1139
aS'P'
p1140
aS'RB'
p1141
aa(lp1142
S'limited'
p1143
aS'P'
p1144
aS'VBN'
p1145
aa(lp1146
S'and'
p1147
aS'N'
p1148
aS'CC'
p1149
aa(lp1150
S'the'
p1151
aS'N'
p1152
aS'DT'
p1153
aa(lp1154
S'specific'
p1155
aS'P'
p1156
aS'JJ'
p1157
aa(lp1158
S'capacity'
p1159
aS'P'
p1160
aS'NN'
p1161
aa(lp1162
S'and'
p1163
aS'N'
p1164
ag1149
aa(lp1165
S'rate'
p1166
aS'P'
p1167
aS'NN'
p1168
aa(lp1169
S'of'
p1170
aS'P'
p1171
aS'IN'
p1172
aa(lp1173
S'the'
p1174
aS'P'
p1175
ag1153
aa(lp1176
S'batteries'
p1177
aS'P'
p1178
ag1133
aa(lp1179
S'referred'
p1180
aS'N'
p1181
aS'VBD'
p1182
aa(lp1183
S'to'
p1184
aS'N'
p1185
aS'TO'
p1186
aa(lp1187
S'the'
p1188
aS'N'
p1189
ag1153
aa(lp1190
S'mass'
p1191
aS'P'
p1192
aS'NN'
p1193
aa(lp1194
S'of'
p1195
aS'P'
p1196
ag1172
aa(lp1197
S'the'
p1198
aS'N'
p1199
ag1153
aa(lp1200
S'negative'
p1201
aS'N'
p1202
ag1157
aa(lp1203
S'TiO2(B)'
p1204
aS'R'
p1205
aS'NNP'
p1206
aa(lp1207
S'electrode'
p1208
aS'R'
p1209
ag1193
aa(lp1210
S'.'
p1211
aS'N'
p1212
aS'.'
p1213
aa(lp1214
g72
ag4
ag4
aa(lp1215
g74
ag4
ag4
aaa(lp1216
(lp1217
g3
ag4
ag4
aa(lp1218
g6
ag4
ag4
aa(lp1219
S'All'
p1220
aS'N'
p1221
aS'DT'
p1222
aa(lp1223
S'manipulations'
p1224
aS'N'
p1225
aS'NNS'
p1226
aa(lp1227
S'were'
p1228
aS'N'
p1229
aS'VBD'
p1230
aa(lp1231
S'carried'
p1232
aS'N'
p1233
aS'VBN'
p1234
aa(lp1235
S'out'
p1236
aS'N'
p1237
aS'RP'
p1238
aa(lp1239
S'in'
p1240
aS'N'
p1241
aS'IN'
p1242
aa(lp1243
S'a'
p1244
aS'N'
p1245
aS'DT'
p1246
aa(lp1247
S'MBraun'
p1248
aS'N'
p1249
aS'NNP'
p1250
aa(lp1251
S'drybox'
p1252
aS'N'
p1253
aS'NN'
p1254
aa(lp1255
S'with'
p1256
aS'N'
p1257
aS'IN'
p1258
aa(lp1259
S'moisture'
p1260
aS'N'
p1261
ag1254
aa(lp1262
S'and'
p1263
aS'N'
p1264
aS'CC'
p1265
aa(lp1266
S'oxygen'
p1267
aS'N'
p1268
ag1254
aa(lp1269
S'levels'
p1270
aS'N'
p1271
aS'NNS'
p1272
aa(lp1273
S'below'
p1274
aS'N'
p1275
aS'IN'
p1276
aa(lp1277
S'1'
p1278
aS'N'
p1279
aS'CD'
p1280
aa(lp1281
S'ppm'
p1282
aS'N'
p1283
ag1254
aa(lp1284
S'.'
p1285
aS'N'
p1286
aS'.'
p1287
aa(lp1288
g72
ag4
ag4
aa(lp1289
g74
ag4
ag4
aaa(lp1290
(lp1291
g3
ag4
ag4
aa(lp1292
g6
ag4
ag4
aa(lp1293
S'The'
p1294
aS'N'
p1295
aS'DT'
p1296
aa(lp1297
S'galvanostatic'
p1298
aS'R'
p1299
aS'JJ'
p1300
aa(lp1301
S'cycling'
p1302
aS'R'
p1303
aS'NN'
p1304
aa(lp1305
S'tests'
p1306
aS'R'
p1307
aS'NNS'
p1308
aa(lp1309
S'were'
p1310
aS'A'
p1311
aS'VBD'
p1312
aa(lp1313
S'performed'
p1314
aS'A'
p1315
aS'VBN'
p1316
aa(lp1317
S'using'
p1318
aS'N'
p1319
aS'VBG'
p1320
aa(lp1321
S'a'
p1322
aS'N'
p1323
aS'DT'
p1324
aa(lp1325
S'Maccor'
p1326
aS'R'
p1327
aS'NNP'
p1328
aa(lp1329
S'automated'
p1330
aS'R'
p1331
ag1316
aa(lp1332
S'battery'
p1333
aS'R'
p1334
ag1304
aa(lp1335
S'cycler'
p1336
aS'R'
p1337
ag1304
aa(lp1338
S'.'
p1339
aS'N'
p1340
aS'.'
p1341
aa(lp1342
g72
ag4
ag4
aa(lp1343
g74
ag4
ag4
aaa(lp1344
(lp1345
g3
ag4
ag4
aa(lp1346
g6
ag4
ag4
aa(lp1347
S'All'
p1348
aS'N'
p1349
aS'DT'
p1350
aa(lp1351
S'measurements'
p1352
aS'R'
p1353
aS'NNS'
p1354
aa(lp1355
S'were'
p1356
aS'A'
p1357
aS'VBD'
p1358
aa(lp1359
S'performed'
p1360
aS'A'
p1361
aS'VBN'
p1362
aa(lp1363
S'at'
p1364
aS'N'
p1365
aS'IN'
p1366
aa(lp1367
S'room'
p1368
aS'P'
p1369
aS'NN'
p1370
aa(lp1371
S'temperature'
p1372
aS'P'
p1373
aS'NN'
p1374
aa(lp1375
S'.'
p1376
aS'N'
p1377
aS'.'
p1378
aa(lp1379
g72
ag4
ag4
aa(lp1380
g74
ag4
ag4
aaa.