(lp0
(lp1
(lp2
S'***START***'
p3
aS'None'
p4
ag4
aa(lp5
S'***START2***'
p6
ag4
ag4
aa(lp7
S'LFP'
p8
aS'R'
p9
aS'JJ'
p10
aa(lp11
S'nanoparticles'
p12
aS'R'
p13
aS'NNS'
p14
aa(lp15
S'were'
p16
aS'A'
p17
aS'VBD'
p18
aa(lp19
S'synthesized'
p20
aS'A'
p21
aS'VBN'
p22
aa(lp23
S'using'
p24
aS'N'
p25
aS'VBG'
p26
aa(lp27
S'a'
p28
aS'N'
p29
aS'DT'
p30
aa(lp31
S'hydrothermal'
p32
aS'R'
p33
ag10
aa(lp34
S'method'
p35
aS'R'
p36
aS'NN'
p37
aa(lp38
S'reported'
p39
aS'N'
p40
aS'VBD'
p41
aa(lp42
S'in'
p43
aS'N'
p44
aS'IN'
p45
aa(lp46
S'our'
p47
aS'N'
p48
aS'PRP$'
p49
aa(lp50
S'previous'
p51
aS'N'
p52
aS'JJ'
p53
aa(lp54
S'paper'
p55
aS'N'
p56
aS'NN'
p57
aa(lp58
S'.'
p59
aS'N'
p60
aS'.'
p61
aa(lp62
S'***END***'
p63
ag4
ag4
aa(lp64
S'***END2***'
p65
ag4
ag4
aaa(lp66
(lp67
g3
ag4
ag4
aa(lp68
g6
ag4
ag4
aa(lp69
S'Typically'
p70
aS'N'
p71
aS'RB'
p72
aa(lp73
S','
p74
aS'N'
p75
aS','
p76
aa(lp77
S'150'
p78
aS'P'
p79
aS'CD'
p80
aa(lp81
S'ml'
p82
aS'P'
p83
aS'NN'
p84
aa(lp85
S'of'
p86
aS'N'
p87
aS'IN'
p88
aa(lp89
S'1'
p90
aS'P'
p91
aS'CD'
p92
aa(lp93
S'mol'
p94
aS'P'
p95
aS'NNS'
p96
aa(lp97
S'L1H3PO4'
p98
aS'R'
p99
aS'NNP'
p100
aa(lp101
S'aqueous'
p102
aS'R'
p103
aS'JJ'
p104
aa(lp105
S'solution'
p106
aS'R'
p107
ag84
aa(lp108
S'was'
p109
aS'A'
p110
aS'VBD'
p111
aa(lp112
S'added'
p113
aS'A'
p114
aS'VBN'
p115
aa(lp116
S'to'
p117
aS'N'
p118
aS'TO'
p119
aa(lp120
S'a'
p121
aS'N'
p122
aS'DT'
p123
aa(lp124
S'beaker'
p125
aS'R'
p126
ag84
aa(lp127
S'containing'
p128
aS'N'
p129
aS'VBG'
p130
aa(lp131
S'600'
p132
aS'P'
p133
aS'CD'
p134
aa(lp135
S'ml'
p136
aS'P'
p137
ag84
aa(lp138
S'of'
p139
aS'N'
p140
ag88
aa(lp141
S'polyethylene'
p142
aS'R'
p143
ag84
aa(lp144
S'glycol'
p145
aS'R'
p146
ag84
aa(lp147
S'400'
p148
aS'R'
p149
aS'CD'
p150
aa(lp151
S'whilst'
p152
aS'N'
p153
ag84
aa(lp154
S'stirring'
p155
aS'P'
p156
ag130
aa(lp157
S'it'
p158
aS'N'
p159
aS'PRP'
p160
aa(lp161
S'mechanically'
p162
aS'N'
p163
ag72
aa(lp164
S'.'
p165
aS'N'
p166
aS'.'
p167
aa(lp168
g63
ag4
ag4
aa(lp169
g65
ag4
ag4
aaa(lp170
(lp171
g3
ag4
ag4
aa(lp172
g6
ag4
ag4
aa(lp173
S'Then'
p174
aS'N'
p175
aS'RB'
p176
aa(lp177
S','
p178
aS'N'
p179
aS','
p180
aa(lp181
S'450'
p182
aS'P'
p183
aS'CD'
p184
aa(lp185
S'ml'
p186
aS'P'
p187
aS'NN'
p188
aa(lp189
S'of'
p190
aS'N'
p191
aS'IN'
p192
aa(lp193
S'1'
p194
aS'P'
p195
aS'CD'
p196
aa(lp197
S'mol'
p198
aS'P'
p199
aS'NNS'
p200
aa(lp201
S'L1LiOH'
p202
aS'R'
p203
aS'NNP'
p204
aa(lp205
S'aqueous'
p206
aS'R'
p207
aS'JJ'
p208
aa(lp209
S'solution'
p210
aS'R'
p211
ag188
aa(lp212
S'was'
p213
aS'A'
p214
aS'VBD'
p215
aa(lp216
S'dropped'
p217
aS'A'
p218
aS'VBN'
p219
aa(lp220
S'into'
p221
aS'N'
p222
aS'IN'
p223
aa(lp224
S'this'
p225
aS'R'
p226
aS'DT'
p227
aa(lp228
S'mixture'
p229
aS'R'
p230
ag188
aa(lp231
S'.'
p232
aS'N'
p233
aS'.'
p234
aa(lp235
g63
ag4
ag4
aa(lp236
g65
ag4
ag4
aaa(lp237
(lp238
g3
ag4
ag4
aa(lp239
g6
ag4
ag4
aa(lp240
S'When'
p241
aS'N'
p242
aS'WRB'
p243
aa(lp244
S'a'
p245
aS'N'
p246
aS'DT'
p247
aa(lp248
S'milk'
p249
aS'N'
p250
aS'NN'
p251
aa(lp252
S'white'
p253
aS'R'
p254
aS'JJ'
p255
aa(lp256
S'suspension'
p257
aS'R'
p258
ag251
aa(lp259
S'formed'
p260
aS'A'
p261
aS'VBD'
p262
aa(lp263
S'via'
p264
aS'N'
p265
aS'IN'
p266
aa(lp267
S'the'
p268
aS'N'
p269
aS'DT'
p270
aa(lp271
S'neutralization'
p272
aS'R'
p273
ag251
aa(lp274
S'reaction'
p275
aS'R'
p276
ag251
aa(lp277
S','
p278
aS'N'
p279
aS','
p280
aa(lp281
S'300'
p282
aS'P'
p283
aS'CD'
p284
aa(lp285
S'ml'
p286
aS'P'
p287
ag251
aa(lp288
S'of'
p289
aS'N'
p290
aS'IN'
p291
aa(lp292
S'0.5'
p293
aS'P'
p294
aS'CD'
p295
aa(lp296
S'mol'
p297
aS'P'
p298
aS'NNS'
p299
aa(lp300
S'L1FeSO4'
p301
aS'R'
p302
aS'NNP'
p303
aa(lp304
S'solution'
p305
aS'R'
p306
ag251
aa(lp307
S'was'
p308
aS'A'
p309
ag262
aa(lp310
S'poured'
p311
aS'A'
p312
aS'VBN'
p313
aa(lp314
S'into'
p315
aS'N'
p316
aS'IN'
p317
aa(lp318
S'the'
p319
aS'N'
p320
ag270
aa(lp321
S'beaker'
p322
aS'R'
p323
ag251
aa(lp324
S','
p325
aS'N'
p326
ag280
aa(lp327
S'generating'
p328
aS'P'
p329
aS'VBG'
p330
aa(lp331
S'a'
p332
aS'N'
p333
ag247
aa(lp334
S'green'
p335
aS'R'
p336
aS'JJ'
p337
aa(lp338
S'colored'
p339
aS'R'
p340
ag313
aa(lp341
S'suspension'
p342
aS'R'
p343
ag251
aa(lp344
S'.'
p345
aS'N'
p346
aS'.'
p347
aa(lp348
g63
ag4
ag4
aa(lp349
g65
ag4
ag4
aaa(lp350
(lp351
g3
ag4
ag4
aa(lp352
g6
ag4
ag4
aa(lp353
S'The'
p354
aS'N'
p355
aS'DT'
p356
aa(lp357
S'mixture'
p358
aS'R'
p359
aS'NN'
p360
aa(lp361
S'was'
p362
aS'A'
p363
aS'VBD'
p364
aa(lp365
S'then'
p366
aS'N'
p367
aS'RB'
p368
aa(lp369
S'transferred'
p370
aS'A'
p371
aS'VBN'
p372
aa(lp373
S'into'
p374
aS'N'
p375
aS'IN'
p376
aa(lp377
S'a'
p378
aS'N'
p379
aS'DT'
p380
aa(lp381
S'2'
p382
aS'R'
p383
aS'CD'
p384
aa(lp385
S'L'
p386
aS'R'
p387
aS'NNP'
p388
aa(lp389
S'magnetic'
p390
aS'R'
p391
aS'JJ'
p392
aa(lp393
S'propelled'
p394
aS'R'
p395
ag364
aa(lp396
S'autoclave'
p397
aS'R'
p398
ag360
aa(lp399
S','
p400
aS'N'
p401
aS','
p402
aa(lp403
S'heated'
p404
aS'A'
p405
ag364
aa(lp406
S'up'
p407
aS'N'
p408
aS'RB'
p409
aa(lp410
S'to'
p411
aS'N'
p412
aS'TO'
p413
aa(lp414
S'180'
p415
aS'P'
p416
aS'CD'
p417
aa(lp418
S'C'
p419
aS'P'
p420
ag388
aa(lp421
S'at'
p422
aS'N'
p423
aS'IN'
p424
aa(lp425
S'a'
p426
aS'N'
p427
ag380
aa(lp428
S'rate'
p429
aS'P'
p430
aS'NN'
p431
aa(lp432
S'of'
p433
aS'P'
p434
aS'IN'
p435
aa(lp436
S'3'
p437
aS'P'
p438
ag417
aa(lp439
S'C'
p440
aS'P'
p441
ag388
aa(lp442
S'min1'
p443
aS'P'
p444
ag360
aa(lp445
S'after'
p446
aS'N'
p447
aS'IN'
p448
aa(lp449
S'sealing'
p450
aS'P'
p451
aS'VBG'
p452
aa(lp453
S','
p454
aS'N'
p455
ag402
aa(lp456
S'and'
p457
aS'N'
p458
aS'CC'
p459
aa(lp460
S'maintained'
p461
aS'A'
p462
ag364
aa(lp463
S'at'
p464
aS'N'
p465
ag424
aa(lp466
S'the'
p467
aS'N'
p468
aS'DT'
p469
aa(lp470
S'same'
p471
aS'P'
p472
aS'JJ'
p473
aa(lp474
S'temperature'
p475
aS'P'
p476
ag360
aa(lp477
S'under'
p478
aS'N'
p479
aS'IN'
p480
aa(lp481
S'mechanical'
p482
aS'N'
p483
ag392
aa(lp484
S'stirring'
p485
aS'P'
p486
ag360
aa(lp487
S'for'
p488
aS'N'
p489
aS'IN'
p490
aa(lp491
S'9'
p492
aS'P'
p493
aS'CD'
p494
aa(lp495
S'h'
p496
aS'P'
p497
ag360
aa(lp498
S'.'
p499
aS'N'
p500
aS'.'
p501
aa(lp502
g63
ag4
ag4
aa(lp503
g65
ag4
ag4
aaa(lp504
(lp505
g3
ag4
ag4
aa(lp506
g6
ag4
ag4
aa(lp507
S'After'
p508
aS'N'
p509
aS'IN'
p510
aa(lp511
S'cooling'
p512
aS'A'
p513
aS'VBG'
p514
aa(lp515
S'down'
p516
aS'N'
p517
aS'RB'
p518
aa(lp519
S'to'
p520
aS'N'
p521
aS'TO'
p522
aa(lp523
S'room'
p524
aS'P'
p525
aS'NN'
p526
aa(lp527
S'temperature'
p528
aS'P'
p529
aS'NN'
p530
aa(lp531
S','
p532
aS'N'
p533
aS','
p534
aa(lp535
S'the'
p536
aS'N'
p537
aS'DT'
p538
aa(lp539
S'off-white'
p540
aS'R'
p541
aS'JJ'
p542
aa(lp543
S'product'
p544
aS'R'
p545
aS'NN'
p546
aa(lp547
S'was'
p548
aS'A'
p549
aS'VBD'
p550
aa(lp551
S'collected'
p552
aS'A'
p553
aS'VBN'
p554
aa(lp555
S'by'
p556
aS'N'
p557
aS'IN'
p558
aa(lp559
S'centrifugation'
p560
aS'R'
p561
ag530
aa(lp562
S'and'
p563
aS'N'
p564
aS'CC'
p565
aa(lp566
S'washed'
p567
aS'A'
p568
ag550
aa(lp569
S'three'
p570
aS'P'
p571
aS'CD'
p572
aa(lp573
S'times'
p574
aS'P'
p575
aS'NNS'
p576
aa(lp577
S'in'
p578
aS'N'
p579
aS'IN'
p580
aa(lp581
S'water'
p582
aS'R'
p583
aS'NN'
p584
aa(lp585
S'.'
p586
aS'N'
p587
aS'.'
p588
aa(lp589
g63
ag4
ag4
aa(lp590
g65
ag4
ag4
aaa(lp591
(lp592
g3
ag4
ag4
aa(lp593
g6
ag4
ag4
aa(lp594
S'Finally'
p595
aS'N'
p596
aS'RB'
p597
aa(lp598
S','
p599
aS'N'
p600
aS','
p601
aa(lp602
S'the'
p603
aS'N'
p604
aS'DT'
p605
aa(lp606
S'resulting'
p607
aS'R'
p608
aS'VBG'
p609
aa(lp610
S'LFP'
p611
aS'R'
p612
aS'NNP'
p613
aa(lp614
S'nanoparticles'
p615
aS'R'
p616
aS'NNS'
p617
aa(lp618
S'were'
p619
aS'A'
p620
aS'VBD'
p621
aa(lp622
S'dispersed'
p623
aS'A'
p624
aS'VBN'
p625
aa(lp626
S'in'
p627
aS'N'
p628
aS'IN'
p629
aa(lp630
S'DI'
p631
aS'R'
p632
ag613
aa(lp633
S'water'
p634
aS'R'
p635
aS'NN'
p636
aa(lp637
S'at'
p638
aS'N'
p639
aS'IN'
p640
aa(lp641
S'a'
p642
aS'N'
p643
aS'DT'
p644
aa(lp645
S'content'
p646
aS'N'
p647
aS'NN'
p648
aa(lp649
S'of'
p650
aS'N'
p651
aS'IN'
p652
aa(lp653
S'50'
p654
aS'P'
p655
aS'CD'
p656
aa(lp657
S'wt%'
p658
aS'P'
p659
ag648
aa(lp660
S'.'
p661
aS'N'
p662
aS'.'
p663
aa(lp664
g63
ag4
ag4
aa(lp665
g65
ag4
ag4
aaa(lp666
(lp667
g3
ag4
ag4
aa(lp668
g6
ag4
ag4
aa(lp669
S'Graphene'
p670
aS'R'
p671
aS'NNP'
p672
aa(lp673
S'oxide'
p674
aS'R'
p675
aS'MD'
p676
aa(lp677
S'(GO)'
p678
aS'R'
p679
aS'VB'
p680
aa(lp681
S'was'
p682
aS'A'
p683
aS'VBD'
p684
aa(lp685
S'prepared'
p686
aS'A'
p687
aS'VBN'
p688
aa(lp689
S'following'
p690
aS'N'
p691
aS'VBG'
p692
aa(lp693
S'the'
p694
aS'N'
p695
aS'DT'
p696
aa(lp697
S'procedure'
p698
aS'R'
p699
aS'NN'
p700
aa(lp701
S'described'
p702
aS'N'
p703
ag688
aa(lp704
S'in'
p705
aS'N'
p706
aS'IN'
p707
aa(lp708
S'our'
p709
aS'N'
p710
aS'PRP$'
p711
aa(lp712
S'previous'
p713
aS'N'
p714
aS'JJ'
p715
aa(lp716
S'report'
p717
aS'N'
p718
ag700
aa(lp719
S'.'
p720
aS'N'
p721
aS'.'
p722
aa(lp723
g63
ag4
ag4
aa(lp724
g65
ag4
ag4
aaa(lp725
(lp726
g3
ag4
ag4
aa(lp727
g6
ag4
ag4
aa(lp728
S'Typically'
p729
aS'N'
p730
aS'RB'
p731
aa(lp732
S','
p733
aS'N'
p734
aS','
p735
aa(lp736
S'6.0'
p737
aS'P'
p738
aS'CD'
p739
aa(lp740
S'g'
p741
aS'P'
p742
aS'NN'
p743
aa(lp744
S'of'
p745
aS'N'
p746
aS'IN'
p747
aa(lp748
S'KNO3'
p749
aS'R'
p750
aS'NNP'
p751
aa(lp752
S'and'
p753
aS'N'
p754
aS'CC'
p755
aa(lp756
S'5.0'
p757
aS'P'
p758
ag739
aa(lp759
S'g'
p760
aS'P'
p761
ag743
aa(lp762
S'of'
p763
aS'N'
p764
ag747
aa(lp765
S'natural'
p766
aS'R'
p767
aS'JJ'
p768
aa(lp769
S'graphite'
p770
aS'R'
p771
ag743
aa(lp772
S'(300'
p773
aS'P'
p774
ag743
aa(lp775
S'mesh)'
p776
aS'P'
p777
ag743
aa(lp778
S'were'
p779
aS'A'
p780
aS'VBD'
p781
aa(lp782
S'added'
p783
aS'A'
p784
aS'VBN'
p785
aa(lp786
S'to'
p787
aS'N'
p788
aS'TO'
p789
aa(lp790
S'230'
p791
aS'P'
p792
ag739
aa(lp793
S'ml'
p794
aS'P'
p795
ag743
aa(lp796
S'of'
p797
aS'N'
p798
ag747
aa(lp799
S'concentrated'
p800
aS'R'
p801
aS'JJ'
p802
aa(lp803
S'H2SO4'
p804
aS'R'
p805
ag751
aa(lp806
S'(98%)'
p807
aS'P'
p808
ag743
aa(lp809
S'at'
p810
aS'N'
p811
aS'IN'
p812
aa(lp813
S'room'
p814
aS'P'
p815
aS'NN'
p816
aa(lp817
S'temperature'
p818
aS'P'
p819
ag743
aa(lp820
S'.'
p821
aS'N'
p822
aS'.'
p823
aa(lp824
g63
ag4
ag4
aa(lp825
g65
ag4
ag4
aaa(lp826
(lp827
g3
ag4
ag4
aa(lp828
g6
ag4
ag4
aa(lp829
S'The'
p830
aS'N'
p831
aS'DT'
p832
aa(lp833
S'mixture'
p834
aS'R'
p835
aS'NN'
p836
aa(lp837
S'was'
p838
aS'A'
p839
aS'VBD'
p840
aa(lp841
S'stirred'
p842
aS'A'
p843
aS'VBN'
p844
aa(lp845
S'for'
p846
aS'N'
p847
aS'IN'
p848
aa(lp849
S'10'
p850
aS'P'
p851
aS'CD'
p852
aa(lp853
S'min'
p854
aS'P'
p855
aS'NNS'
p856
aa(lp857
S'before'
p858
aS'N'
p859
aS'IN'
p860
aa(lp861
S'slow'
p862
aS'A'
p863
aS'JJ'
p864
aa(lp865
S'addition'
p866
aS'A'
p867
aS'NN'
p868
aa(lp869
S'of'
p870
aS'N'
p871
aS'IN'
p872
aa(lp873
S'30'
p874
aS'P'
p875
aS'CD'
p876
aa(lp877
S'g'
p878
aS'P'
p879
ag836
aa(lp880
S'of'
p881
aS'N'
p882
ag872
aa(lp883
S'KMnO4'
p884
aS'R'
p885
aS'NNP'
p886
aa(lp887
S'.'
p888
aS'N'
p889
aS'.'
p890
aa(lp891
g63
ag4
ag4
aa(lp892
g65
ag4
ag4
aaa(lp893
(lp894
g3
ag4
ag4
aa(lp895
g6
ag4
ag4
aa(lp896
S'Then'
p897
aS'N'
p898
aS'RB'
p899
aa(lp900
S','
p901
aS'N'
p902
aS','
p903
aa(lp904
S'the'
p905
aS'N'
p906
aS'DT'
p907
aa(lp908
S'mixture'
p909
aS'R'
p910
aS'NN'
p911
aa(lp912
S'was'
p913
aS'A'
p914
aS'VBD'
p915
aa(lp916
S'heated'
p917
aS'A'
p918
aS'VBN'
p919
aa(lp920
S'to'
p921
aS'N'
p922
aS'TO'
p923
aa(lp924
S'35'
p925
aS'P'
p926
aS'CD'
p927
aa(lp928
S'C'
p929
aS'P'
p930
aS'NNP'
p931
aa(lp932
S'and'
p933
aS'N'
p934
aS'CC'
p935
aa(lp936
S'stirred'
p937
aS'A'
p938
ag915
aa(lp939
S'for'
p940
aS'N'
p941
aS'IN'
p942
aa(lp943
S'6'
p944
aS'P'
p945
aS'CD'
p946
aa(lp947
S'h'
p948
aS'P'
p949
ag911
aa(lp950
S'.'
p951
aS'N'
p952
aS'.'
p953
aa(lp954
g63
ag4
ag4
aa(lp955
g65
ag4
ag4
aaa(lp956
(lp957
g3
ag4
ag4
aa(lp958
g6
ag4
ag4
aa(lp959
S'Subsequently'
p960
aS'N'
p961
aS'RB'
p962
aa(lp963
S','
p964
aS'N'
p965
aS','
p966
aa(lp967
S'80'
p968
aS'P'
p969
aS'CD'
p970
aa(lp971
S'ml'
p972
aS'P'
p973
aS'NN'
p974
aa(lp975
S'of'
p976
aS'N'
p977
aS'IN'
p978
aa(lp979
S'water'
p980
aS'R'
p981
aS'NN'
p982
aa(lp983
S'was'
p984
aS'A'
p985
aS'VBD'
p986
aa(lp987
S'added'
p988
aS'A'
p989
aS'VBN'
p990
aa(lp991
S'dropwise'
p992
aS'P'
p993
ag974
aa(lp994
S'under'
p995
aS'N'
p996
aS'IN'
p997
aa(lp998
S'vigorous'
p999
aS'P'
p1000
aS'JJ'
p1001
aa(lp1002
S'stirring'
p1003
aS'P'
p1004
ag974
aa(lp1005
S','
p1006
aS'N'
p1007
ag966
aa(lp1008
S'causing'
p1009
aS'N'
p1010
aS'VBG'
p1011
aa(lp1012
S'a'
p1013
aS'N'
p1014
aS'DT'
p1015
aa(lp1016
S'quick'
p1017
aS'N'
p1018
ag1001
aa(lp1019
S'rise'
p1020
aS'N'
p1021
ag974
aa(lp1022
S'in'
p1023
aS'N'
p1024
aS'IN'
p1025
aa(lp1026
S'temperature'
p1027
aS'N'
p1028
ag974
aa(lp1029
S'to'
p1030
aS'N'
p1031
aS'TO'
p1032
aa(lp1033
S'90'
p1034
aS'P'
p1035
aS'CD'
p1036
aa(lp1037
S'C'
p1038
aS'P'
p1039
aS'NNP'
p1040
aa(lp1041
S'.'
p1042
aS'N'
p1043
aS'.'
p1044
aa(lp1045
g63
ag4
ag4
aa(lp1046
g65
ag4
ag4
aaa(lp1047
(lp1048
g3
ag4
ag4
aa(lp1049
g6
ag4
ag4
aa(lp1050
S'The'
p1051
aS'N'
p1052
aS'DT'
p1053
aa(lp1054
S'slurry'
p1055
aS'R'
p1056
aS'NN'
p1057
aa(lp1058
S'was'
p1059
aS'A'
p1060
aS'VBD'
p1061
aa(lp1062
S'stirred'
p1063
aS'A'
p1064
aS'VBN'
p1065
aa(lp1066
S'at'
p1067
aS'N'
p1068
aS'IN'
p1069
aa(lp1070
S'this'
p1071
aS'P'
p1072
aS'DT'
p1073
aa(lp1074
S'temperature'
p1075
aS'P'
p1076
ag1057
aa(lp1077
S'for'
p1078
aS'N'
p1079
aS'IN'
p1080
aa(lp1081
S'another'
p1082
aS'N'
p1083
aS'DT'
p1084
aa(lp1085
S'30'
p1086
aS'P'
p1087
aS'CD'
p1088
aa(lp1089
S'min'
p1090
aS'P'
p1091
ag1057
aa(lp1092
S'.'
p1093
aS'N'
p1094
aS'.'
p1095
aa(lp1096
g63
ag4
ag4
aa(lp1097
g65
ag4
ag4
aaa(lp1098
(lp1099
g3
ag4
ag4
aa(lp1100
g6
ag4
ag4
aa(lp1101
S'Afterwards'
p1102
aS'N'
p1103
aS'NNS'
p1104
aa(lp1105
S','
p1106
aS'N'
p1107
aS','
p1108
aa(lp1109
S'200'
p1110
aS'P'
p1111
aS'CD'
p1112
aa(lp1113
S'ml'
p1114
aS'P'
p1115
aS'NN'
p1116
aa(lp1117
S'of'
p1118
aS'N'
p1119
aS'IN'
p1120
aa(lp1121
S'water'
p1122
aS'R'
p1123
aS'NN'
p1124
aa(lp1125
S'and'
p1126
aS'N'
p1127
aS'CC'
p1128
aa(lp1129
S'6'
p1130
aS'P'
p1131
aS'CD'
p1132
aa(lp1133
S'ml'
p1134
aS'P'
p1135
ag1116
aa(lp1136
S'of'
p1137
aS'N'
p1138
ag1120
aa(lp1139
S'H2O2'
p1140
aS'R'
p1141
aS'NNP'
p1142
aa(lp1143
S'solution'
p1144
aS'R'
p1145
ag1116
aa(lp1146
S'(30'
p1147
aS'P'
p1148
ag1142
aa(lp1149
S'wt%)'
p1150
aS'P'
p1151
aS'WDT'
p1152
aa(lp1153
S'were'
p1154
aS'A'
p1155
aS'VBD'
p1156
aa(lp1157
S'added'
p1158
aS'A'
p1159
aS'VBN'
p1160
aa(lp1161
S'sequentially'
p1162
aS'P'
p1163
aS'RB'
p1164
aa(lp1165
S'to'
p1166
aS'N'
p1167
aS'TO'
p1168
aa(lp1169
S'dissolve'
p1170
aS'N'
p1171
aS'VB'
p1172
aa(lp1173
S'insoluble'
p1174
aS'N'
p1175
aS'JJ'
p1176
aa(lp1177
S'manganese'
p1178
aS'N'
p1179
ag1176
aa(lp1180
S'species'
p1181
aS'N'
p1182
ag1104
aa(lp1183
S'.'
p1184
aS'N'
p1185
aS'.'
p1186
aa(lp1187
g63
ag4
ag4
aa(lp1188
g65
ag4
ag4
aaa(lp1189
(lp1190
g3
ag4
ag4
aa(lp1191
g6
ag4
ag4
aa(lp1192
S'The'
p1193
aS'N'
p1194
aS'DT'
p1195
aa(lp1196
S'resulting'
p1197
aS'R'
p1198
aS'VBG'
p1199
aa(lp1200
S'graphite'
p1201
aS'R'
p1202
aS'JJ'
p1203
aa(lp1204
S'oxide'
p1205
aS'R'
p1206
ag1203
aa(lp1207
S'suspension'
p1208
aS'R'
p1209
aS'NN'
p1210
aa(lp1211
S'was'
p1212
aS'A'
p1213
aS'VBD'
p1214
aa(lp1215
S'washed'
p1216
aS'A'
p1217
aS'VBN'
p1218
aa(lp1219
S'repeatedly'
p1220
aS'P'
p1221
aS'RB'
p1222
aa(lp1223
S'in'
p1224
aS'N'
p1225
aS'IN'
p1226
aa(lp1227
S'water'
p1228
aS'R'
p1229
aS'NN'
p1230
aa(lp1231
S'until'
p1232
aS'N'
p1233
aS'IN'
p1234
aa(lp1235
S'the'
p1236
aS'N'
p1237
aS'DT'
p1238
aa(lp1239
S'solution'
p1240
aS'N'
p1241
ag1210
aa(lp1242
S'pH'
p1243
aS'P'
p1244
ag1210
aa(lp1245
S'reached'
p1246
aS'P'
p1247
ag1214
aa(lp1248
S'a'
p1249
aS'P'
p1250
aS'DT'
p1251
aa(lp1252
S'constant'
p1253
aS'P'
p1254
ag1203
aa(lp1255
S'value'
p1256
aS'P'
p1257
aS'NN'
p1258
aa(lp1259
S'of'
p1260
aS'P'
p1261
aS'IN'
p1262
aa(lp1263
S'5.0'
p1264
aS'P'
p1265
aS'CD'
p1266
aa(lp1267
S'.'
p1268
aS'N'
p1269
aS'.'
p1270
aa(lp1271
g63
ag4
ag4
aa(lp1272
g65
ag4
ag4
aaa(lp1273
(lp1274
g3
ag4
ag4
aa(lp1275
g6
ag4
ag4
aa(lp1276
S'The'
p1277
aS'N'
p1278
aS'DT'
p1279
aa(lp1280
S'complete'
p1281
aS'N'
p1282
aS'JJ'
p1283
aa(lp1284
S'delamination'
p1285
aS'N'
p1286
aS'NN'
p1287
aa(lp1288
S'of'
p1289
aS'N'
p1290
aS'IN'
p1291
aa(lp1292
S'graphite'
p1293
aS'R'
p1294
ag1283
aa(lp1295
S'oxide'
p1296
aS'R'
p1297
ag1287
aa(lp1298
S'into'
p1299
aS'N'
p1300
aS'IN'
p1301
aa(lp1302
S'GO'
p1303
aS'R'
p1304
aS'NNP'
p1305
aa(lp1306
S'was'
p1307
aS'A'
p1308
aS'VBD'
p1309
aa(lp1310
S'achieved'
p1311
aS'A'
p1312
aS'VBN'
p1313
aa(lp1314
S'by'
p1315
aS'N'
p1316
aS'IN'
p1317
aa(lp1318
S'ultrasonic'
p1319
aS'R'
p1320
ag1283
aa(lp1321
S'treatment'
p1322
aS'R'
p1323
aS'NN'
p1324
aa(lp1325
S'.'
p1326
aS'N'
p1327
aS'.'
p1328
aa(lp1329
g63
ag4
ag4
aa(lp1330
g65
ag4
ag4
aaa(lp1331
(lp1332
g3
ag4
ag4
aa(lp1333
g6
ag4
ag4
aa(lp1334
S'The'
p1335
aS'N'
p1336
aS'DT'
p1337
aa(lp1338
S'final'
p1339
aS'R'
p1340
aS'JJ'
p1341
aa(lp1342
S'suspension'
p1343
aS'R'
p1344
aS'NN'
p1345
aa(lp1346
S'of'
p1347
aS'R'
p1348
aS'IN'
p1349
aa(lp1350
S'GO'
p1351
aS'R'
p1352
aS'NNP'
p1353
aa(lp1354
S'was'
p1355
aS'A'
p1356
aS'VBD'
p1357
aa(lp1358
S'concentrated'
p1359
aS'A'
p1360
aS'VBN'
p1361
aa(lp1362
S'to'
p1363
aS'N'
p1364
aS'TO'
p1365
aa(lp1366
S'a'
p1367
aS'N'
p1368
aS'DT'
p1369
aa(lp1370
S'content'
p1371
aS'N'
p1372
ag1345
aa(lp1373
S'of'
p1374
aS'N'
p1375
ag1349
aa(lp1376
S'12'
p1377
aS'P'
p1378
aS'CD'
p1379
aa(lp1380
S'wt%'
p1381
aS'P'
p1382
ag1345
aa(lp1383
S'.'
p1384
aS'N'
p1385
aS'.'
p1386
aa(lp1387
g63
ag4
ag4
aa(lp1388
g65
ag4
ag4
aaa(lp1389
(lp1390
g3
ag4
ag4
aa(lp1391
g6
ag4
ag4
aa(lp1392
S'Aqueous'
p1393
aS'R'
p1394
aS'JJ'
p1395
aa(lp1396
S'suspensions'
p1397
aS'R'
p1398
aS'NNS'
p1399
aa(lp1400
S'of'
p1401
aS'R'
p1402
aS'IN'
p1403
aa(lp1404
S'LFP'
p1405
aS'R'
p1406
aS'NNP'
p1407
aa(lp1408
S'and'
p1409
aS'N'
p1410
aS'CC'
p1411
aa(lp1412
S'GO'
p1413
aS'R'
p1414
ag1407
aa(lp1415
S'then'
p1416
aS'N'
p1417
aS'RB'
p1418
aa(lp1419
S'were'
p1420
aS'A'
p1421
aS'VBD'
p1422
aa(lp1423
S'vigorously'
p1424
aS'A'
p1425
aS'RB'
p1426
aa(lp1427
S'stirred'
p1428
aS'A'
p1429
aS'VBN'
p1430
aa(lp1431
S'together'
p1432
aS'R'
p1433
ag1426
aa(lp1434
S'to'
p1435
aS'N'
p1436
aS'TO'
p1437
aa(lp1438
S'form'
p1439
aS'N'
p1440
aS'VB'
p1441
aa(lp1442
S'a'
p1443
aS'N'
p1444
aS'DT'
p1445
aa(lp1446
S'slurry'
p1447
aS'R'
p1448
aS'NN'
p1449
aa(lp1450
S'with'
p1451
aS'N'
p1452
aS'IN'
p1453
aa(lp1454
S'LFP[thin'
p1455
aS'P'
p1456
ag1407
aa(lp1457
S'space'
p1458
aS'P'
p1459
aS'NN'
p1460
aa(lp1461
S'(1/6-em)]:[thin'
p1462
aS'P'
p1463
ag1395
aa(lp1464
S'space'
p1465
aS'P'
p1466
ag1460
aa(lp1467
S'(1/6-em)]GO'
p1468
aS'P'
p1469
ag1407
aa(lp1470
S'='
p1471
aS'P'
p1472
ag1407
aa(lp1473
S'10[thin'
p1474
aS'P'
p1475
aS'CD'
p1476
aa(lp1477
S'space'
p1478
aS'P'
p1479
ag1460
aa(lp1480
S'(1/6-em)]:[thin'
p1481
aS'P'
p1482
ag1395
aa(lp1483
S'space'
p1484
aS'P'
p1485
ag1460
aa(lp1486
S'(1/6-em)]1'
p1487
aS'P'
p1488
ag1395
aa(lp1489
S'(wt.)'
p1490
aS'P'
p1491
ag1449
aa(lp1492
S'.'
p1493
aS'N'
p1494
aS'.'
p1495
aa(lp1496
g63
ag4
ag4
aa(lp1497
g65
ag4
ag4
aaa(lp1498
(lp1499
g3
ag4
ag4
aa(lp1500
g6
ag4
ag4
aa(lp1501
S'DI'
p1502
aS'R'
p1503
aS'NNP'
p1504
aa(lp1505
S'water'
p1506
aS'R'
p1507
aS'NN'
p1508
aa(lp1509
S'was'
p1510
aS'A'
p1511
aS'VBD'
p1512
aa(lp1513
S'added'
p1514
aS'A'
p1515
aS'VBN'
p1516
aa(lp1517
S'to'
p1518
aS'N'
p1519
aS'TO'
p1520
aa(lp1521
S'the'
p1522
aS'N'
p1523
aS'DT'
p1524
aa(lp1525
S'mixture'
p1526
aS'R'
p1527
aS'NN'
p1528
aa(lp1529
S'to'
p1530
aS'N'
p1531
ag1520
aa(lp1532
S'adjust'
p1533
aS'P'
p1534
aS'VB'
p1535
aa(lp1536
S'the'
p1537
aS'N'
p1538
ag1524
aa(lp1539
S'solid'
p1540
aS'N'
p1541
aS'JJ'
p1542
aa(lp1543
S'content'
p1544
aS'N'
p1545
ag1528
aa(lp1546
S'to'
p1547
aS'N'
p1548
ag1520
aa(lp1549
S'10'
p1550
aS'P'
p1551
aS'CD'
p1552
aa(lp1553
S'wt%'
p1554
aS'P'
p1555
ag1528
aa(lp1556
S'.'
p1557
aS'N'
p1558
aS'.'
p1559
aa(lp1560
g63
ag4
ag4
aa(lp1561
g65
ag4
ag4
aaa(lp1562
(lp1563
g3
ag4
ag4
aa(lp1564
g6
ag4
ag4
aa(lp1565
S'Thereafter'
p1566
aS'N'
p1567
aS'RB'
p1568
aa(lp1569
S','
p1570
aS'N'
p1571
aS','
p1572
aa(lp1573
S'the'
p1574
aS'N'
p1575
aS'DT'
p1576
aa(lp1577
S'slurry'
p1578
aS'R'
p1579
aS'NN'
p1580
aa(lp1581
S'was'
p1582
aS'A'
p1583
aS'VBD'
p1584
aa(lp1585
S'stirred'
p1586
aS'A'
p1587
aS'VBN'
p1588
aa(lp1589
S','
p1590
aS'N'
p1591
ag1572
aa(lp1592
S'and'
p1593
aS'N'
p1594
aS'CC'
p1595
aa(lp1596
S'ultrasonically'
p1597
aS'A'
p1598
ag1568
aa(lp1599
S'exposed'
p1600
aS'A'
p1601
ag1588
aa(lp1602
S'for'
p1603
aS'N'
p1604
aS'IN'
p1605
aa(lp1606
S'5'
p1607
aS'P'
p1608
aS'CD'
p1609
aa(lp1610
S'min'
p1611
aS'P'
p1612
ag1580
aa(lp1613
S','
p1614
aS'N'
p1615
ag1572
aa(lp1616
S'and'
p1617
aS'N'
p1618
ag1595
aa(lp1619
S'then'
p1620
aS'N'
p1621
aS'RB'
p1622
aa(lp1623
S'spray'
p1624
aS'A'
p1625
aS'VB'
p1626
aa(lp1627
S'dried'
p1628
aS'A'
p1629
ag1584
aa(lp1630
S'at'
p1631
aS'N'
p1632
aS'IN'
p1633
aa(lp1634
S'200'
p1635
aS'P'
p1636
aS'CD'
p1637
aa(lp1638
S'C'
p1639
aS'P'
p1640
aS'NNP'
p1641
aa(lp1642
S'to'
p1643
aS'N'
p1644
aS'TO'
p1645
aa(lp1646
S'form'
p1647
aS'N'
p1648
ag1626
aa(lp1649
S'a'
p1650
aS'N'
p1651
aS'DT'
p1652
aa(lp1653
S'solid'
p1654
aS'R'
p1655
aS'JJ'
p1656
aa(lp1657
S'LFP/GO'
p1658
aS'R'
p1659
ag1641
aa(lp1660
S'composite'
p1661
aS'R'
p1662
ag1580
aa(lp1663
S'.'
p1664
aS'N'
p1665
aS'.'
p1666
aa(lp1667
g63
ag4
ag4
aa(lp1668
g65
ag4
ag4
aaa(lp1669
(lp1670
g3
ag4
ag4
aa(lp1671
g6
ag4
ag4
aa(lp1672
S'The'
p1673
aS'N'
p1674
aS'DT'
p1675
aa(lp1676
S'composites'
p1677
aS'R'
p1678
aS'NNS'
p1679
aa(lp1680
S'were'
p1681
aS'A'
p1682
aS'VBD'
p1683
aa(lp1684
S'heated'
p1685
aS'A'
p1686
aS'VBN'
p1687
aa(lp1688
S'to'
p1689
aS'N'
p1690
aS'TO'
p1691
aa(lp1692
S'600'
p1693
aS'P'
p1694
aS'CD'
p1695
aa(lp1696
S'C'
p1697
aS'P'
p1698
aS'NNP'
p1699
aa(lp1700
S'at'
p1701
aS'N'
p1702
aS'IN'
p1703
aa(lp1704
S'a'
p1705
aS'N'
p1706
aS'DT'
p1707
aa(lp1708
S'rate'
p1709
aS'P'
p1710
aS'NN'
p1711
aa(lp1712
S'of'
p1713
aS'P'
p1714
aS'IN'
p1715
aa(lp1716
S'5'
p1717
aS'P'
p1718
aS'CD'
p1719
aa(lp1720
S'C'
p1721
aS'P'
p1722
ag1699
aa(lp1723
S'min1'
p1724
aS'P'
p1725
aS'NN'
p1726
aa(lp1727
S'and'
p1728
aS'N'
p1729
aS'CC'
p1730
aa(lp1731
S'annealed'
p1732
aS'A'
p1733
aS'VBD'
p1734
aa(lp1735
S'at'
p1736
aS'N'
p1737
ag1703
aa(lp1738
S'that'
p1739
aS'P'
p1740
aS'DT'
p1741
aa(lp1742
S'temperature'
p1743
aS'P'
p1744
ag1726
aa(lp1745
S'for'
p1746
aS'N'
p1747
aS'IN'
p1748
aa(lp1749
S'5'
p1750
aS'P'
p1751
ag1719
aa(lp1752
S'h'
p1753
aS'P'
p1754
ag1726
aa(lp1755
S'under'
p1756
aS'N'
p1757
aS'IN'
p1758
aa(lp1759
S'Ar'
p1760
aS'P'
p1761
ag1699
aa(lp1762
S'to'
p1763
aS'N'
p1764
ag1691
aa(lp1765
S'form'
p1766
aS'N'
p1767
aS'VB'
p1768
aa(lp1769
S'the'
p1770
aS'N'
p1771
aS'DT'
p1772
aa(lp1773
S'active'
p1774
aS'R'
p1775
aS'JJ'
p1776
aa(lp1777
S'LFP/graphene'
p1778
aS'R'
p1779
ag1699
aa(lp1780
S'(denoted'
p1781
aS'N'
p1782
ag1687
aa(lp1783
S'by'
p1784
aS'N'
p1785
aS'IN'
p1786
aa(lp1787
S'LFP/G)'
p1788
aS'R'
p1789
ag1699
aa(lp1790
S'cathode'
p1791
aS'N'
p1792
ag1726
aa(lp1793
S'materials'
p1794
aS'N'
p1795
aS'NNS'
p1796
aa(lp1797
S'.'
p1798
aS'N'
p1799
aS'.'
p1800
aa(lp1801
g63
ag4
ag4
aa(lp1802
g65
ag4
ag4
aaa(lp1803
(lp1804
g3
ag4
ag4
aa(lp1805
g6
ag4
ag4
aa(lp1806
S'For'
p1807
aS'N'
p1808
aS'IN'
p1809
aa(lp1810
S'the'
p1811
aS'N'
p1812
aS'DT'
p1813
aa(lp1814
S'preparation'
p1815
aS'N'
p1816
aS'NN'
p1817
aa(lp1818
S'of'
p1819
aS'N'
p1820
aS'IN'
p1821
aa(lp1822
S'conventional'
p1823
aS'R'
p1824
aS'JJ'
p1825
aa(lp1826
S'carbon-coated'
p1827
aS'R'
p1828
aS'JJ'
p1829
aa(lp1830
S'LFP'
p1831
aS'R'
p1832
aS'NNP'
p1833
aa(lp1834
S'(denoted'
p1835
aS'N'
p1836
aS'VBN'
p1837
aa(lp1838
S'by'
p1839
aS'N'
p1840
aS'IN'
p1841
aa(lp1842
S'LFP/C)'
p1843
aS'R'
p1844
ag1833
aa(lp1845
S','
p1846
aS'N'
p1847
aS','
p1848
aa(lp1849
S'glucose'
p1850
aS'R'
p1851
ag1829
aa(lp1852
S'monohydrate'
p1853
aS'R'
p1854
ag1817
aa(lp1855
S'was'
p1856
aS'A'
p1857
aS'VBD'
p1858
aa(lp1859
S'used'
p1860
aS'A'
p1861
ag1837
aa(lp1862
S'instead'
p1863
aS'N'
p1864
aS'RB'
p1865
aa(lp1866
S'of'
p1867
aS'N'
p1868
ag1821
aa(lp1869
S'GO'
p1870
aS'N'
p1871
ag1833
aa(lp1872
S'(with'
p1873
aS'N'
p1874
ag1833
aa(lp1875
S'a'
p1876
aS'N'
p1877
aS'DT'
p1878
aa(lp1879
S'5[thin'
p1880
aS'P'
p1881
ag1829
aa(lp1882
S'space'
p1883
aS'P'
p1884
aS'NN'
p1885
aa(lp1886
S'(1/6-em)]:[thin'
p1887
aS'P'
p1888
ag1829
aa(lp1889
S'space'
p1890
aS'P'
p1891
ag1885
aa(lp1892
S'(1/6-em)]1'
p1893
aS'P'
p1894
ag1829
aa(lp1895
S'weight'
p1896
aS'P'
p1897
ag1817
aa(lp1898
S'ratio'
p1899
aS'P'
p1900
ag1817
aa(lp1901
S'of'
p1902
aS'P'
p1903
ag1821
aa(lp1904
S'LFP'
p1905
aS'P'
p1906
ag1833
aa(lp1907
S'to'
p1908
aS'P'
p1909
aS'TO'
p1910
aa(lp1911
S'glucose'
p1912
aS'P'
p1913
ag1829
aa(lp1914
S'monohydrate)'
p1915
aS'P'
p1916
aS'NNS'
p1917
aa(lp1918
S'while'
p1919
aS'N'
p1920
aS'IN'
p1921
aa(lp1922
S'keeping'
p1923
aS'N'
p1924
aS'VBG'
p1925
aa(lp1926
S'other'
p1927
aS'P'
p1928
aS'JJ'
p1929
aa(lp1930
S'conditions'
p1931
aS'P'
p1932
aS'NNS'
p1933
aa(lp1934
S'constant'
p1935
aS'P'
p1936
aS'VBP'
p1937
aa(lp1938
S'.'
p1939
aS'N'
p1940
aS'.'
p1941
aa(lp1942
g63
ag4
ag4
aa(lp1943
g65
ag4
ag4
aaa(lp1944
(lp1945
g3
ag4
ag4
aa(lp1946
g6
ag4
ag4
aa(lp1947
S'Similarly'
p1948
aS'N'
p1949
aS'RB'
p1950
aa(lp1951
S','
p1952
aS'N'
p1953
aS','
p1954
aa(lp1955
S'a'
p1956
aS'N'
p1957
aS'DT'
p1958
aa(lp1959
S'mixture'
p1960
aS'R'
p1961
aS'NN'
p1962
aa(lp1963
S'of'
p1964
aS'R'
p1965
aS'IN'
p1966
aa(lp1967
S'GO'
p1968
aS'R'
p1969
aS'NNP'
p1970
aa(lp1971
S'and'
p1972
aS'R'
p1973
aS'CC'
p1974
aa(lp1975
S'glucose'
p1976
aS'R'
p1977
aS'JJ'
p1978
aa(lp1979
S'monohydrate'
p1980
aS'R'
p1981
ag1962
aa(lp1982
S'(LFP[thin'
p1983
aS'P'
p1984
ag1978
aa(lp1985
S'space'
p1986
aS'P'
p1987
aS'NN'
p1988
aa(lp1989
S'(1/6-em)]:[thin'
p1990
aS'P'
p1991
ag1978
aa(lp1992
S'space'
p1993
aS'P'
p1994
ag1988
aa(lp1995
S'(1/6-em)]GO[thin'
p1996
aS'P'
p1997
ag1978
aa(lp1998
S'space'
p1999
aS'P'
p2000
ag1988
aa(lp2001
S'(1/6-em)]:[thin'
p2002
aS'P'
p2003
ag1978
aa(lp2004
S'space'
p2005
aS'P'
p2006
ag1988
aa(lp2007
S'(1/6-em)]glucose'
p2008
aS'P'
p2009
ag1978
aa(lp2010
S'monohydrate'
p2011
aS'P'
p2012
ag1962
aa(lp2013
S'='
p2014
aS'P'
p2015
aS'VBD'
p2016
aa(lp2017
S'20[thin'
p2018
aS'P'
p2019
aS'CD'
p2020
aa(lp2021
S'space'
p2022
aS'P'
p2023
ag1988
aa(lp2024
S'(1/6-em)]:[thin'
p2025
aS'P'
p2026
ag1978
aa(lp2027
S'space'
p2028
aS'P'
p2029
ag1988
aa(lp2030
S'(1/6-em)]1[thin'
p2031
aS'P'
p2032
ag1978
aa(lp2033
S'space'
p2034
aS'P'
p2035
ag1988
aa(lp2036
S'(1/6-em)]:[thin'
p2037
aS'P'
p2038
ag1978
aa(lp2039
S'space'
p2040
aS'P'
p2041
ag1988
aa(lp2042
S'(1/6-em)]2'
p2043
aS'P'
p2044
ag1978
aa(lp2045
S'(wt.))'
p2046
aS'P'
p2047
ag1962
aa(lp2048
S'was'
p2049
aS'A'
p2050
ag2016
aa(lp2051
S'employed'
p2052
aS'A'
p2053
aS'VBN'
p2054
aa(lp2055
S'to'
p2056
aS'N'
p2057
aS'TO'
p2058
aa(lp2059
S'prepare'
p2060
aS'P'
p2061
aS'VB'
p2062
aa(lp2063
S'LFP'
p2064
aS'R'
p2065
ag1970
aa(lp2066
S'cathode'
p2067
aS'R'
p2068
ag1962
aa(lp2069
S'materials'
p2070
aS'R'
p2071
aS'NNS'
p2072
aa(lp2073
S'with'
p2074
aS'N'
p2075
aS'IN'
p2076
aa(lp2077
S'mixed'
p2078
aS'N'
p2079
ag1978
aa(lp2080
S'carbon'
p2081
aS'R'
p2082
ag1962
aa(lp2083
S'additives'
p2084
aS'R'
p2085
aS'NNS'
p2086
aa(lp2087
S'(denoted'
p2088
aS'N'
p2089
ag2054
aa(lp2090
S'by'
p2091
aS'N'
p2092
aS'IN'
p2093
aa(lp2094
S'LFP/(G'
p2095
aS'R'
p2096
ag1970
aa(lp2097
S'+'
p2098
aS'N'
p2099
ag1970
aa(lp2100
S'C))+PR.'
p2101
aS'N'
p2102
ag1970
aa(lp2103
g63
ag4
ag4
aa(lp2104
g65
ag4
ag4
aaa(lp2105
(lp2106
g3
ag4
ag4
aa(lp2107
g6
ag4
ag4
aa(lp2108
S'In'
p2109
aS'N'
p2110
aS'IN'
p2111
aa(lp2112
S'all'
p2113
aS'N'
p2114
aS'DT'
p2115
aa(lp2116
S'three'
p2117
aS'N'
p2118
aS'CD'
p2119
aa(lp2120
S'cases'
p2121
aS'N'
p2122
aS'NNS'
p2123
aa(lp2124
S','
p2125
aS'N'
p2126
aS','
p2127
aa(lp2128
S'the'
p2129
aS'N'
p2130
aS'DT'
p2131
aa(lp2132
S'carbon'
p2133
aS'N'
p2134
aS'NN'
p2135
aa(lp2136
S'contents'
p2137
aS'N'
p2138
aS'NNS'
p2139
aa(lp2140
S'in'
p2141
aS'N'
p2142
aS'IN'
p2143
aa(lp2144
S'the'
p2145
aS'N'
p2146
ag2131
aa(lp2147
S'final'
p2148
aS'N'
p2149
aS'JJ'
p2150
aa(lp2151
S'cathode'
p2152
aS'N'
p2153
ag2135
aa(lp2154
S'materials'
p2155
aS'N'
p2156
aS'NNS'
p2157
aa(lp2158
S'were'
p2159
aS'N'
p2160
aS'VBD'
p2161
aa(lp2162
S'5'
p2163
aS'N'
p2164
aS'CD'
p2165
aa(lp2166
S'wt%'
p2167
aS'N'
p2168
ag2135
aa(lp2169
S'.'
p2170
aS'N'
p2171
aS'.'
p2172
aa(lp2173
g63
ag4
ag4
aa(lp2174
g65
ag4
ag4
aaa(lp2175
(lp2176
g3
ag4
ag4
aa(lp2177
g6
ag4
ag4
aa(lp2178
S'For'
p2179
aS'N'
p2180
aS'IN'
p2181
aa(lp2182
S'the'
p2183
aS'N'
p2184
aS'DT'
p2185
aa(lp2186
S'preparation'
p2187
aS'N'
p2188
aS'NN'
p2189
aa(lp2190
S'of'
p2191
aS'N'
p2192
aS'IN'
p2193
aa(lp2194
S'the'
p2195
aS'N'
p2196
ag2185
aa(lp2197
S'electrodes'
p2198
aS'R'
p2199
aS'NNS'
p2200
aa(lp2201
S','
p2202
aS'N'
p2203
aS','
p2204
aa(lp2205
S'the'
p2206
aS'N'
p2207
ag2185
aa(lp2208
S'active'
p2209
aS'R'
p2210
aS'JJ'
p2211
aa(lp2212
S'materials'
p2213
aS'R'
p2214
aS'NNS'
p2215
aa(lp2216
S'(80'
p2217
aS'P'
p2218
aS'VBP'
p2219
aa(lp2220
S'wt%)'
p2221
aS'P'
p2222
ag2189
aa(lp2223
S','
p2224
aS'N'
p2225
ag2204
aa(lp2226
S'Super'
p2227
aS'R'
p2228
aS'NNP'
p2229
aa(lp2230
S'P'
p2231
aS'R'
p2232
ag2229
aa(lp2233
S'(15'
p2234
aS'R'
p2235
ag2229
aa(lp2236
S'wt%)'
p2237
aS'R'
p2238
ag2189
aa(lp2239
S'and'
p2240
aS'N'
p2241
aS'CC'
p2242
aa(lp2243
S'poly(vinylidene'
p2244
aS'R'
p2245
ag2189
aa(lp2246
S'fluoride)'
p2247
aS'R'
p2248
ag2219
aa(lp2249
S'(5'
p2250
aS'P'
p2251
aS'JJ'
p2252
aa(lp2253
S'wt%)'
p2254
aS'P'
p2255
ag2189
aa(lp2256
S'were'
p2257
aS'A'
p2258
aS'VBD'
p2259
aa(lp2260
S'mixed'
p2261
aS'A'
p2262
ag2252
aa(lp2263
S'in'
p2264
aS'N'
p2265
aS'IN'
p2266
aa(lp2267
S'N-methyl-2-pyrrolidone'
p2268
aS'R'
p2269
ag2229
aa(lp2270
S'and'
p2271
aS'N'
p2272
ag2242
aa(lp2273
S'stirred'
p2274
aS'P'
p2275
aS'VBD'
p2276
aa(lp2277
S'for'
p2278
aS'N'
p2279
aS'IN'
p2280
aa(lp2281
S'10'
p2282
aS'P'
p2283
aS'CD'
p2284
aa(lp2285
S'h'
p2286
aS'P'
p2287
ag2189
aa(lp2288
S'.'
p2289
aS'N'
p2290
aS'.'
p2291
aa(lp2292
g63
ag4
ag4
aa(lp2293
g65
ag4
ag4
aaa(lp2294
(lp2295
g3
ag4
ag4
aa(lp2296
g6
ag4
ag4
aa(lp2297
S'The'
p2298
aS'N'
p2299
aS'DT'
p2300
aa(lp2301
S'resultant'
p2302
aS'R'
p2303
aS'NN'
p2304
aa(lp2305
S'slurry'
p2306
aS'P'
p2307
ag2304
aa(lp2308
S','
p2309
aS'N'
p2310
aS','
p2311
aa(lp2312
S'pasted'
p2313
aS'A'
p2314
aS'VBN'
p2315
aa(lp2316
S'on'
p2317
aS'N'
p2318
aS'IN'
p2319
aa(lp2320
S'Al'
p2321
aS'R'
p2322
aS'NNP'
p2323
aa(lp2324
S'foil'
p2325
aS'R'
p2326
ag2304
aa(lp2327
S','
p2328
aS'N'
p2329
ag2311
aa(lp2330
S'was'
p2331
aS'A'
p2332
aS'VBD'
p2333
aa(lp2334
S'dried'
p2335
aS'A'
p2336
ag2315
aa(lp2337
S'at'
p2338
aS'N'
p2339
aS'IN'
p2340
aa(lp2341
S'80'
p2342
aS'P'
p2343
aS'CD'
p2344
aa(lp2345
S'C'
p2346
aS'P'
p2347
ag2323
aa(lp2348
S'under'
p2349
aS'N'
p2350
aS'IN'
p2351
aa(lp2352
S'vacuum'
p2353
aS'P'
p2354
ag2304
aa(lp2355
S'for'
p2356
aS'N'
p2357
aS'IN'
p2358
aa(lp2359
S'6'
p2360
aS'P'
p2361
aS'CD'
p2362
aa(lp2363
S'h'
p2364
aS'P'
p2365
ag2304
aa(lp2366
S'.'
p2367
aS'N'
p2368
aS'.'
p2369
aa(lp2370
g63
ag4
ag4
aa(lp2371
g65
ag4
ag4
aaa(lp2372
(lp2373
g3
ag4
ag4
aa(lp2374
g6
ag4
ag4
aa(lp2375
S'The'
p2376
aS'N'
p2377
aS'DT'
p2378
aa(lp2379
S'loading'
p2380
aS'R'
p2381
aS'JJ'
p2382
aa(lp2383
S'density'
p2384
aS'R'
p2385
aS'NN'
p2386
aa(lp2387
S'of'
p2388
aS'N'
p2389
aS'IN'
p2390
aa(lp2391
S'the'
p2392
aS'N'
p2393
aS'DT'
p2394
aa(lp2395
S'electrode'
p2396
aS'N'
p2397
ag2386
aa(lp2398
S'is'
p2399
aS'A'
p2400
aS'VBZ'
p2401
aa(lp2402
S'34'
p2403
aS'P'
p2404
aS'CD'
p2405
aa(lp2406
S'mg'
p2407
aS'P'
p2408
ag2386
aa(lp2409
S'cm2'
p2410
aS'P'
p2411
ag2386
aa(lp2412
S'.'
p2413
aS'N'
p2414
aS'.'
p2415
aa(lp2416
g63
ag4
ag4
aa(lp2417
g65
ag4
ag4
aaa(lp2418
(lp2419
g3
ag4
ag4
aa(lp2420
g6
ag4
ag4
aa(lp2421
S'The'
p2422
aS'N'
p2423
aS'DT'
p2424
aa(lp2425
S'coin'
p2426
aS'R'
p2427
aS'NN'
p2428
aa(lp2429
S'cells'
p2430
aS'R'
p2431
aS'NNS'
p2432
aa(lp2433
S'(2032)'
p2434
aS'N'
p2435
aS'VBP'
p2436
aa(lp2437
S'then'
p2438
aS'N'
p2439
aS'RB'
p2440
aa(lp2441
S'were'
p2442
aS'A'
p2443
aS'VBD'
p2444
aa(lp2445
S'assembled'
p2446
aS'A'
p2447
aS'VBN'
p2448
aa(lp2449
S'in'
p2450
aS'N'
p2451
aS'IN'
p2452
aa(lp2453
S'an'
p2454
aS'N'
p2455
aS'DT'
p2456
aa(lp2457
S'argon-filled'
p2458
aS'R'
p2459
aS'JJ'
p2460
aa(lp2461
S'glove'
p2462
aS'R'
p2463
ag2428
aa(lp2464
S'box'
p2465
aS'R'
p2466
ag2428
aa(lp2467
S'using'
p2468
aS'N'
p2469
aS'VBG'
p2470
aa(lp2471
S'lithium'
p2472
aS'R'
p2473
ag2460
aa(lp2474
S'metal'
p2475
aS'R'
p2476
ag2428
aa(lp2477
S'as'
p2478
aS'N'
p2479
aS'IN'
p2480
aa(lp2481
S'the'
p2482
aS'N'
p2483
aS'DT'
p2484
aa(lp2485
S'anode'
p2486
aS'N'
p2487
ag2428
aa(lp2488
S','
p2489
aS'N'
p2490
aS','
p2491
aa(lp2492
S'Celgard'
p2493
aS'R'
p2494
aS'NNP'
p2495
aa(lp2496
S'2600'
p2497
aS'R'
p2498
aS'CD'
p2499
aa(lp2500
S'as'
p2501
aS'N'
p2502
ag2480
aa(lp2503
S'the'
p2504
aS'N'
p2505
ag2484
aa(lp2506
S'separator'
p2507
aS'N'
p2508
ag2428
aa(lp2509
S','
p2510
aS'N'
p2511
ag2491
aa(lp2512
S'and'
p2513
aS'N'
p2514
aS'CC'
p2515
aa(lp2516
S'1'
p2517
aS'R'
p2518
aS'CD'
p2519
aa(lp2520
S'M'
p2521
aS'R'
p2522
ag2495
aa(lp2523
S'LiPF6'
p2524
aS'R'
p2525
ag2495
aa(lp2526
S'(dissolved'
p2527
aS'N'
p2528
aS'VBD'
p2529
aa(lp2530
S'in'
p2531
aS'R'
p2532
ag2452
aa(lp2533
S'ethylene'
p2534
aS'R'
p2535
ag2460
aa(lp2536
S'carbonate'
p2537
aS'R'
p2538
ag2428
aa(lp2539
S'and'
p2540
aS'R'
p2541
ag2515
aa(lp2542
S'dimethyl'
p2543
aS'R'
p2544
ag2428
aa(lp2545
S'carbonate'
p2546
aS'R'
p2547
ag2428
aa(lp2548
S'with'
p2549
aS'N'
p2550
aS'IN'
p2551
aa(lp2552
S'a'
p2553
aS'N'
p2554
aS'DT'
p2555
aa(lp2556
S'1[thin'
p2557
aS'P'
p2558
ag2460
aa(lp2559
S'space'
p2560
aS'P'
p2561
aS'NN'
p2562
aa(lp2563
S'(1/6-em)]:[thin'
p2564
aS'P'
p2565
ag2460
aa(lp2566
S'space'
p2567
aS'P'
p2568
ag2562
aa(lp2569
S'(1/6-em)]1'
p2570
aS'P'
p2571
ag2460
aa(lp2572
S'volume'
p2573
aS'P'
p2574
aS'NN'
p2575
aa(lp2576
S'ratio)'
p2577
aS'P'
p2578
ag2428
aa(lp2579
S'as'
p2580
aS'N'
p2581
ag2480
aa(lp2582
S'the'
p2583
aS'N'
p2584
ag2484
aa(lp2585
S'electrolyte'
p2586
aS'N'
p2587
ag2428
aa(lp2588
S'.'
p2589
aS'N'
p2590
aS'.'
p2591
aa(lp2592
g63
ag4
ag4
aa(lp2593
g65
ag4
ag4
aaa(lp2594
(lp2595
g3
ag4
ag4
aa(lp2596
g6
ag4
ag4
aa(lp2597
S'Cells'
p2598
aS'R'
p2599
aS'NNS'
p2600
aa(lp2601
S'were'
p2602
aS'A'
p2603
aS'VBD'
p2604
aa(lp2605
S'tested'
p2606
aS'A'
p2607
aS'VBN'
p2608
aa(lp2609
S'at'
p2610
aS'N'
p2611
aS'IN'
p2612
aa(lp2613
S'room'
p2614
aS'P'
p2615
aS'NN'
p2616
aa(lp2617
S'temperature'
p2618
aS'P'
p2619
aS'NN'
p2620
aa(lp2621
S'using'
p2622
aS'N'
p2623
aS'VBG'
p2624
aa(lp2625
S'a'
p2626
aS'N'
p2627
aS'DT'
p2628
aa(lp2629
S'LAND-CT2001A'
p2630
aS'R'
p2631
aS'JJ'
p2632
aa(lp2633
S'battery'
p2634
aS'R'
p2635
ag2620
aa(lp2636
S'cycler'
p2637
aS'R'
p2638
ag2620
aa(lp2639
S'(Wuhan'
p2640
aS'N'
p2641
aS'NNP'
p2642
aa(lp2643
S','
p2644
aS'N'
p2645
aS','
p2646
aa(lp2647
S'China)'
p2648
aS'N'
p2649
ag2642
aa(lp2650
S'within'
p2651
aS'N'
p2652
aS'IN'
p2653
aa(lp2654
S'the'
p2655
aS'N'
p2656
aS'DT'
p2657
aa(lp2658
S'voltage'
p2659
aS'P'
p2660
ag2620
aa(lp2661
S'range'
p2662
aS'P'
p2663
ag2620
aa(lp2664
S'of'
p2665
aS'P'
p2666
aS'IN'
p2667
aa(lp2668
S'2.04.2'
p2669
aS'P'
p2670
aS'CD'
p2671
aa(lp2672
S'V'
p2673
aS'P'
p2674
ag2642
aa(lp2675
S'(vs.Li+/Li)'
p2676
aS'P'
p2677
ag2642
aa(lp2678
S'.'
p2679
aS'N'
p2680
aS'.'
p2681
aa(lp2682
g63
ag4
ag4
aa(lp2683
g65
ag4
ag4
aaa.