(lp0
(lp1
(lp2
S'***START***'
p3
aS'None'
p4
ag4
aa(lp5
S'***START2***'
p6
ag4
ag4
aa(lp7
S'Titanate'
p8
aS'PR'
p9
aS'NN'
p10
aa(lp11
S'nanowires'
p12
aS'PR'
p13
aS'NNS'
p14
aa(lp15
S'were'
p16
aS'A'
p17
aS'VBD'
p18
aa(lp19
S'synthesized'
p20
aS'A'
p21
aS'VBN'
p22
aa(lp23
S'by'
p24
aS'N'
p25
aS'IN'
p26
aa(lp27
S'adding'
p28
aS'P'
p29
aS'VBG'
p30
aa(lp31
S'anatase'
p32
aS'I'
p33
ag10
aa(lp34
S'TiO2'
p35
aS'I'
p36
aS'NNP'
p37
aa(lp38
S'to'
p39
aS'N'
p40
aS'TO'
p41
aa(lp42
S'a'
p43
aS'N'
p44
aS'DT'
p45
aa(lp46
S'***END***'
p47
ag4
ag4
aa(lp48
S'***END2***'
p49
ag4
ag4
aaa(lp50
(lp51
g3
ag4
ag4
aa(lp52
g6
ag4
ag4
aa(lp53
S'15'
p54
aS'P'
p55
aS'CD'
p56
aa(lp57
S'M'
p58
aS'P'
p59
aS'NNP'
p60
aa(lp61
S'aqueous'
p62
aS'I'
p63
aS'JJ'
p64
aa(lp65
S'solution'
p66
aS'I'
p67
aS'NN'
p68
aa(lp69
S'of'
p70
aS'I'
p71
aS'IN'
p72
aa(lp73
S'NaOH'
p74
aS'I'
p75
ag60
aa(lp76
S'.'
p77
aS'N'
p78
aS'.'
p79
aa(lp80
g47
ag4
ag4
aa(lp81
g49
ag4
ag4
aaa(lp82
(lp83
g3
ag4
ag4
aa(lp84
g6
ag4
ag4
aa(lp85
S'After'
p86
aS'N'
p87
aS'IN'
p88
aa(lp89
S'stirring'
p90
aS'A'
p91
aS'VBG'
p92
aa(lp93
S'for'
p94
aS'N'
p95
aS'IN'
p96
aa(lp97
S'1'
p98
aS'P'
p99
aS'CD'
p100
aa(lp101
S'h'
p102
aS'P'
p103
aS'PDT'
p104
aa(lp105
S'the'
p106
aS'N'
p107
aS'DT'
p108
aa(lp109
S'resulting'
p110
aS'R'
p111
ag92
aa(lp112
g47
ag4
ag4
aa(lp113
g49
ag4
ag4
aaa(lp114
(lp115
g3
ag4
ag4
aa(lp116
g6
ag4
ag4
aa(lp117
S'suspension'
p118
aS'R'
p119
aS'NN'
p120
aa(lp121
S'was'
p122
aS'A'
p123
aS'VBD'
p124
aa(lp125
S'transferred'
p126
aS'A'
p127
aS'VBN'
p128
aa(lp129
S'to'
p130
aS'N'
p131
aS'TO'
p132
aa(lp133
S'a'
p134
aS'N'
p135
aS'DT'
p136
aa(lp137
S'Teflon-lined'
p138
aS'E'
p139
aS'JJ'
p140
aa(lp141
S'autoclave'
p142
aS'E'
p143
ag120
aa(lp144
S'and'
p145
aS'N'
p146
aS'CC'
p147
aa(lp148
S'heated'
p149
aS'A'
p150
ag128
aa(lp151
S'to'
p152
aS'N'
p153
ag132
aa(lp154
g47
ag4
ag4
aa(lp155
g49
ag4
ag4
aaa(lp156
(lp157
g3
ag4
ag4
aa(lp158
g6
ag4
ag4
aa(lp159
S'170'
p160
aS'P'
p161
aS'CD'
p162
aa(lp163
S'C'
p164
aS'P'
p165
aS'NNP'
p166
aa(lp167
S'for'
p168
aS'N'
p169
aS'IN'
p170
aa(lp171
S'72'
p172
aS'P'
p173
ag162
aa(lp174
S'h'
p175
aS'P'
p176
aS'NN'
p177
aa(lp178
S'.'
p179
aS'N'
p180
aS'.'
p181
aa(lp182
g47
ag4
ag4
aa(lp183
g49
ag4
ag4
aaa(lp184
(lp185
g3
ag4
ag4
aa(lp186
g6
ag4
ag4
aa(lp187
S'The'
p188
aS'N'
p189
aS'DT'
p190
aa(lp191
S'product'
p192
aS'R'
p193
aS'NN'
p194
aa(lp195
S'was'
p196
aS'A'
p197
aS'VBD'
p198
aa(lp199
S'acid-washed'
p200
aS'A'
p201
aS'JJ'
p202
aa(lp203
S','
p204
aS'N'
p205
aS','
p206
aa(lp207
S'which'
p208
aS'N'
p209
aS'WDT'
p210
aa(lp211
S'involved'
p212
aS'N'
p213
ag198
aa(lp214
S'stirring'
p215
aS'P'
p216
aS'VBG'
p217
aa(lp218
g47
ag4
ag4
aa(lp219
g49
ag4
ag4
aaa(lp220
(lp221
g3
ag4
ag4
aa(lp222
g6
ag4
ag4
aa(lp223
S'the'
p224
aS'N'
p225
aS'DT'
p226
aa(lp227
S'sample'
p228
aS'N'
p229
aS'NN'
p230
aa(lp231
S'in'
p232
aS'N'
p233
aS'IN'
p234
aa(lp235
S'0.05'
p236
aS'P'
p237
aS'CD'
p238
aa(lp239
S'M'
p240
aS'P'
p241
aS'NNP'
p242
aa(lp243
S'HCl'
p244
aS'I'
p245
ag242
aa(lp246
S'solution'
p247
aS'I'
p248
ag230
aa(lp249
S'for'
p250
aS'N'
p251
aS'IN'
p252
aa(lp253
S'2'
p254
aS'P'
p255
aS'CD'
p256
aa(lp257
S'h'
p258
aS'P'
p259
ag230
aa(lp260
S'.'
p261
aS'N'
p262
aS'.'
p263
aa(lp264
g47
ag4
ag4
aa(lp265
g49
ag4
ag4
aaa(lp266
(lp267
g3
ag4
ag4
aa(lp268
g6
ag4
ag4
aa(lp269
S'The'
p270
aS'N'
p271
aS'DT'
p272
aa(lp273
S'material'
p274
aS'R'
p275
aS'NN'
p276
aa(lp277
S'was'
p278
aS'A'
p279
aS'VBD'
p280
aa(lp281
S'then'
p282
aS'N'
p283
aS'RB'
p284
aa(lp285
S'filtered'
p286
aS'A'
p287
aS'VBN'
p288
aa(lp289
S','
p290
aS'N'
p291
aS','
p292
aa(lp293
g47
ag4
ag4
aa(lp294
g49
ag4
ag4
aaa(lp295
(lp296
g3
ag4
ag4
aa(lp297
g6
ag4
ag4
aa(lp298
S'washed'
p299
aS'A'
p300
aS'VBN'
p301
aa(lp302
S'with'
p303
aS'N'
p304
aS'IN'
p305
aa(lp306
S'distilled'
p307
aS'I'
p308
aS'JJ'
p309
aa(lp310
S'water'
p311
aS'I'
p312
aS'NN'
p313
aa(lp314
S','
p315
aS'N'
p316
aS','
p317
aa(lp318
S'and'
p319
aS'N'
p320
aS'CC'
p321
aa(lp322
S'dried'
p323
aS'A'
p324
aS'VBD'
p325
aa(lp326
S'at'
p327
aS'N'
p328
aS'IN'
p329
aa(lp330
S'80'
p331
aS'P'
p332
aS'CD'
p333
aa(lp334
S'C'
p335
aS'P'
p336
aS'NNP'
p337
aa(lp338
S'for'
p339
aS'N'
p340
aS'IN'
p341
aa(lp342
S'15'
p343
aS'P'
p344
aS'CD'
p345
aa(lp346
S'h'
p347
aS'P'
p348
aS'NN'
p349
aa(lp350
S'.'
p351
aS'N'
p352
aS'.'
p353
aa(lp354
g47
ag4
ag4
aa(lp355
g49
ag4
ag4
aaa(lp356
(lp357
g3
ag4
ag4
aa(lp358
g6
ag4
ag4
aa(lp359
S'TiO2(B)'
p360
aS'PR'
p361
aS'NNP'
p362
aa(lp363
S'nanowires'
p364
aS'PR'
p365
aS'NNS'
p366
aa(lp367
S'were'
p368
aS'A'
p369
aS'VBD'
p370
aa(lp371
S'prepared'
p372
aS'A'
p373
aS'VBN'
p374
aa(lp375
S'by'
p376
aS'N'
p377
aS'IN'
p378
aa(lp379
S'heating'
p380
aS'P'
p381
aS'VBG'
p382
aa(lp383
S'the'
p384
aS'N'
p385
aS'DT'
p386
aa(lp387
S'acid-washed'
p388
aS'P'
p389
aS'JJ'
p390
aa(lp391
S'titanate'
p392
aS'R'
p393
aS'NN'
p394
aa(lp395
g47
ag4
ag4
aa(lp396
g49
ag4
ag4
aaa(lp397
(lp398
g3
ag4
ag4
aa(lp399
g6
ag4
ag4
aa(lp400
S'nanowires'
p401
aS'R'
p402
aS'NNS'
p403
aa(lp404
S'at'
p405
aS'N'
p406
aS'IN'
p407
aa(lp408
S'400'
p409
aS'P'
p410
aS'CD'
p411
aa(lp412
S'C'
p413
aS'P'
p414
aS'NNP'
p415
aa(lp416
S'for'
p417
aS'N'
p418
aS'IN'
p419
aa(lp420
S'4'
p421
aS'P'
p422
aS'CD'
p423
aa(lp424
S'h'
p425
aS'P'
p426
aS'NN'
p427
aa(lp428
S'in'
p429
aS'N'
p430
aS'IN'
p431
aa(lp432
S'air'
p433
aS'P'
p434
ag427
aa(lp435
S'.'
p436
aS'N'
p437
aS'.'
p438
aa(lp439
g47
ag4
ag4
aa(lp440
g49
ag4
ag4
aaa(lp441
(lp442
g3
ag4
ag4
aa(lp443
g6
ag4
ag4
aa(lp444
S'The'
p445
aS'N'
p446
aS'DT'
p447
aa(lp448
S'GPE'
p449
aS'PR'
p450
aS'NNP'
p451
aa(lp452
S'was'
p453
aS'A'
p454
aS'VBD'
p455
aa(lp456
S'formed'
p457
aS'A'
p458
aS'VBN'
p459
aa(lp460
S'by'
p461
aS'N'
p462
aS'IN'
p463
aa(lp464
S'trapping'
p465
aS'P'
p466
aS'VBG'
p467
aa(lp468
S'LiPF6'
p469
aS'I'
p470
ag451
aa(lp471
S'dissolved'
p472
aS'N'
p473
ag455
aa(lp474
S'in'
p475
aS'N'
p476
aS'IN'
p477
aa(lp478
S'a'
p479
aS'N'
p480
aS'DT'
p481
aa(lp482
S'mixture'
p483
aS'N'
p484
aS'NN'
p485
aa(lp486
S'of'
p487
aS'N'
p488
aS'IN'
p489
aa(lp490
g47
ag4
ag4
aa(lp491
g49
ag4
ag4
aaa(lp492
(lp493
g3
ag4
ag4
aa(lp494
g6
ag4
ag4
aa(lp495
S'EC'
p496
aS'I'
p497
aS'NNP'
p498
aa(lp499
S'and'
p500
aS'N'
p501
aS'CC'
p502
aa(lp503
S'PC'
p504
aS'I'
p505
aS'NNP'
p506
aa(lp507
S'(20:40:40'
p508
aS'P'
p509
ag506
aa(lp510
S'by'
p511
aS'P'
p512
aS'IN'
p513
aa(lp514
S'weight)'
p515
aS'P'
p516
aS'NN'
p517
aa(lp518
S'in'
p519
aS'N'
p520
aS'IN'
p521
aa(lp522
S'a'
p523
aS'N'
p524
aS'DT'
p525
aa(lp526
S'PVdF'
p527
aS'I'
p528
ag506
aa(lp529
S'matrix'
p530
aS'I'
p531
ag517
aa(lp532
S','
p533
aS'N'
p534
aS','
p535
aa(lp536
S'following'
p537
aS'N'
p538
aS'VBG'
p539
aa(lp540
S'a'
p541
aS'N'
p542
ag525
aa(lp543
S'procedure'
p544
aS'N'
p545
ag517
aa(lp546
g47
ag4
ag4
aa(lp547
g49
ag4
ag4
aaa(lp548
(lp549
g3
ag4
ag4
aa(lp550
g6
ag4
ag4
aa(lp551
S'described'
p552
aS'N'
p553
aS'VBN'
p554
aa(lp555
S'in'
p556
aS'N'
p557
aS'IN'
p558
aa(lp559
S'detail'
p560
aS'N'
p561
aS'NN'
p562
aa(lp563
S'elsewhere'
p564
aS'N'
p565
aS'RB'
p566
aa(lp567
S'.'
p568
aS'N'
p569
aS'.'
p570
aa(lp571
g47
ag4
ag4
aa(lp572
g49
ag4
ag4
aaa(lp573
(lp574
g3
ag4
ag4
aa(lp575
g6
ag4
ag4
aa(lp576
S'LiFePO4'
p577
aS'PR'
p578
aS'NNP'
p579
aa(lp580
S'was'
p581
aS'A'
p582
aS'VBD'
p583
aa(lp584
S'generously'
p585
aS'N'
p586
aS'RB'
p587
aa(lp588
S'provided'
p589
aS'A'
p590
aS'VBN'
p591
aa(lp592
S'by'
p593
aS'N'
p594
aS'IN'
p595
aa(lp596
S'Dr.'
p597
aS'N'
p598
aS'NNP'
p599
aa(lp600
S'Margret'
p601
aS'N'
p602
ag579
aa(lp603
S'WohlfahrtMehrens'
p604
aS'N'
p605
ag579
aa(lp606
g47
ag4
ag4
aa(lp607
g49
ag4
ag4
aaa(lp608
(lp609
g3
ag4
ag4
aa(lp610
g6
ag4
ag4
aa(lp611
S'of'
p612
aS'N'
p613
aS'IN'
p614
aa(lp615
S'ZSW'
p616
aS'N'
p617
aS'NNP'
p618
aa(lp619
S'in'
p620
aS'N'
p621
aS'IN'
p622
aa(lp623
S'Ulm'
p624
aS'N'
p625
ag618
aa(lp626
S','
p627
aS'N'
p628
aS','
p629
aa(lp630
S'Germany'
p631
aS'N'
p632
aS'NNP'
p633
aa(lp634
S'.'
p635
aS'N'
p636
aS'.'
p637
aa(lp638
g47
ag4
ag4
aa(lp639
g49
ag4
ag4
aaa(lp640
(lp641
g3
ag4
ag4
aa(lp642
g6
ag4
ag4
aa(lp643
S'The'
p644
aS'N'
p645
aS'DT'
p646
aa(lp647
S'nickel'
p648
aS'PR'
p649
aS'JJ'
p650
aa(lp651
S'manganese'
p652
aS'PR'
p653
ag650
aa(lp654
S'spinel'
p655
aS'PR'
p656
aS'NNS'
p657
aa(lp658
S','
p659
aS'N'
p660
aS','
p661
aa(lp662
g47
ag4
ag4
aa(lp663
g49
ag4
ag4
aaa(lp664
(lp665
g3
ag4
ag4
aa(lp666
g6
ag4
ag4
aa(lp667
S'LiNi0.5Mn1.5O4'
p668
aS'PR'
p669
aS'NNP'
p670
aa(lp671
S','
p672
aS'N'
p673
aS','
p674
aa(lp675
S'was'
p676
aS'A'
p677
aS'VBD'
p678
aa(lp679
S'obtained'
p680
aS'A'
p681
aS'VBN'
p682
aa(lp683
S'by'
p684
aS'N'
p685
aS'IN'
p686
aa(lp687
S'a'
p688
aS'E'
p689
aS'DT'
p690
aa(lp691
S'wet-chemistry'
p692
aS'E'
p693
aS'JJ'
p694
aa(lp695
S'route'
p696
aS'E'
p697
aS'NN'
p698
aa(lp699
S'starting'
p700
aS'N'
p701
aS'VBG'
p702
aa(lp703
S'from'
p704
aS'N'
p705
aS'IN'
p706
aa(lp707
g47
ag4
ag4
aa(lp708
g49
ag4
ag4
aaa(lp709
(lp710
g3
ag4
ag4
aa(lp711
g6
ag4
ag4
aa(lp712
S'LiNO3'
p713
aS'I'
p714
aS'NNP'
p715
aa(lp716
S','
p717
aS'N'
p718
aS','
p719
aa(lp720
S'Ni(NO3)2H2O'
p721
aS'I'
p722
ag715
aa(lp723
S'and'
p724
aS'I'
p725
aS'CC'
p726
aa(lp727
S'Mn(NO3)2H2O'
p728
aS'I'
p729
ag715
aa(lp730
S'.'
p731
aS'N'
p732
aS'.'
p733
aa(lp734
g47
ag4
ag4
aa(lp735
g49
ag4
ag4
aaa(lp736
(lp737
g3
ag4
ag4
aa(lp738
g6
ag4
ag4
aa(lp739
S'The'
p740
aS'N'
p741
aS'DT'
p742
aa(lp743
S'synthesis'
p744
aS'N'
p745
aS'NN'
p746
aa(lp747
S'procedures'
p748
aS'N'
p749
aS'NNS'
p750
aa(lp751
g47
ag4
ag4
aa(lp752
g49
ag4
ag4
aaa(lp753
(lp754
g3
ag4
ag4
aa(lp755
g6
ag4
ag4
aa(lp756
S'and'
p757
aS'N'
p758
aS'CC'
p759
aa(lp760
S'characterization'
p761
aS'N'
p762
aS'NN'
p763
aa(lp764
S'of'
p765
aS'N'
p766
aS'IN'
p767
aa(lp768
S'both'
p769
aS'N'
p770
aS'DT'
p771
aa(lp772
S'cathode'
p773
aS'N'
p774
ag763
aa(lp775
S'materials'
p776
aS'N'
p777
aS'NNS'
p778
aa(lp779
S'have'
p780
aS'N'
p781
aS'VBP'
p782
aa(lp783
S'been'
p784
aS'N'
p785
aS'VBN'
p786
aa(lp787
S'described'
p788
aS'N'
p789
aS'VBN'
p790
aa(lp791
g47
ag4
ag4
aa(lp792
g49
ag4
ag4
aaa(lp793
(lp794
g3
ag4
ag4
aa(lp795
g6
ag4
ag4
aa(lp796
S'previously'
p797
aS'N'
p798
aS'RB'
p799
aa(lp800
S'.'
p801
aS'N'
p802
aS'.'
p803
aa(lp804
g47
ag4
ag4
aa(lp805
g49
ag4
ag4
aaa(lp806
(lp807
g3
ag4
ag4
aa(lp808
g6
ag4
ag4
aa(lp809
S'Composite'
p810
aS'PR'
p811
aS'NNP'
p812
aa(lp813
S'electrodes'
p814
aS'PR'
p815
aS'NNS'
p816
aa(lp817
S'were'
p818
aS'A'
p819
aS'VBD'
p820
aa(lp821
S'fabricated'
p822
aS'A'
p823
aS'VBN'
p824
aa(lp825
S'in'
p826
aS'N'
p827
aS'IN'
p828
aa(lp829
S'the'
p830
aS'N'
p831
aS'DT'
p832
aa(lp833
S'form'
p834
aS'P'
p835
aS'NN'
p836
aa(lp837
S'of'
p838
aS'P'
p839
aS'IN'
p840
aa(lp841
S'films'
p842
aS'P'
p843
ag816
aa(lp844
S'by'
p845
aS'N'
p846
aS'IN'
p847
aa(lp848
g47
ag4
ag4
aa(lp849
g49
ag4
ag4
aaa(lp850
(lp851
g3
ag4
ag4
aa(lp852
g6
ag4
ag4
aa(lp853
S'dispersing'
p854
aS'P'
p855
aS'VBG'
p856
aa(lp857
S'the'
p858
aS'N'
p859
aS'DT'
p860
aa(lp861
S'active'
p862
aS'R'
p863
aS'JJ'
p864
aa(lp865
S'materials'
p866
aS'R'
p867
aS'NNS'
p868
aa(lp869
S'(i.e.'
p870
aS'N'
p871
aS'VBP'
p872
aa(lp873
S','
p874
aS'N'
p875
aS','
p876
aa(lp877
S'TiO2(B)'
p878
aS'I'
p879
aS'NNP'
p880
aa(lp881
S','
p882
aS'N'
p883
ag876
aa(lp884
S'LiFePO4'
p885
aS'I'
p886
ag880
aa(lp887
S','
p888
aS'N'
p889
ag876
aa(lp890
S'or'
p891
aS'N'
p892
aS'CC'
p893
aa(lp894
S'LiNi0.5-'
p895
aS'I'
p896
aS'JJ'
p897
aa(lp898
g47
ag4
ag4
aa(lp899
g49
ag4
ag4
aaa(lp900
(lp901
g3
ag4
ag4
aa(lp902
g6
ag4
ag4
aa(lp903
S'Mn1.5O4)'
p904
aS'I'
p905
aS'NNP'
p906
aa(lp907
S'in'
p908
aS'N'
p909
aS'IN'
p910
aa(lp911
S'N-methylpyrrolidinone'
p912
aS'I'
p913
ag906
aa(lp914
S'(NMP)'
p915
aS'I'
p916
ag906
aa(lp917
S'with'
p918
aS'N'
p919
aS'IN'
p920
aa(lp921
S'8'
p922
aS'P'
p923
aS'CD'
p924
aa(lp925
S'or'
p926
aS'P'
p927
aS'CC'
p928
aa(lp929
S'10'
p930
aS'P'
p931
aS'CD'
p932
aa(lp933
S'wt%'
p934
aS'P'
p935
aS'NN'
p936
aa(lp937
S'of'
p938
aS'N'
p939
aS'IN'
p940
aa(lp941
g47
ag4
ag4
aa(lp942
g49
ag4
ag4
aaa(lp943
(lp944
g3
ag4
ag4
aa(lp945
g6
ag4
ag4
aa(lp946
S'Super'
p947
aS'I'
p948
aS'NNP'
p949
aa(lp950
S'P'
p951
aS'I'
p952
ag949
aa(lp953
S'(M.M.M.'
p954
aS'N'
p955
ag949
aa(lp956
S'Carbon'
p957
aS'N'
p958
ag949
aa(lp959
S'Belgium)'
p960
aS'N'
p961
ag949
aa(lp962
S'and'
p963
aS'N'
p964
aS'CC'
p965
aa(lp966
S'10'
p967
aS'P'
p968
aS'CD'
p969
aa(lp970
S'wt%'
p971
aS'P'
p972
aS'NN'
p973
aa(lp974
S'PVdF'
p975
aS'I'
p976
ag949
aa(lp977
S'(Solvay'
p978
aS'N'
p979
ag949
aa(lp980
S'Solef'
p981
aS'N'
p982
ag949
aa(lp983
g47
ag4
ag4
aa(lp984
g49
ag4
ag4
aaa(lp985
(lp986
g3
ag4
ag4
aa(lp987
g6
ag4
ag4
aa(lp988
S'UHMW'
p989
aS'N'
p990
aS'$'
p991
aa(lp992
S'6020)'
p993
aS'N'
p994
aS'CD'
p995
aa(lp996
S'.'
p997
aS'N'
p998
aS'.'
p999
aa(lp1000
g47
ag4
ag4
aa(lp1001
g49
ag4
ag4
aaa(lp1002
(lp1003
g3
ag4
ag4
aa(lp1004
g6
ag4
ag4
aa(lp1005
S'This'
p1006
aS'N'
p1007
aS'DT'
p1008
aa(lp1009
S'slurry'
p1010
aS'R'
p1011
aS'NN'
p1012
aa(lp1013
S'was'
p1014
aS'A'
p1015
aS'VBD'
p1016
aa(lp1017
S'then'
p1018
aS'N'
p1019
aS'RB'
p1020
aa(lp1021
S'cast'
p1022
aS'A'
p1023
aS'VBN'
p1024
aa(lp1025
S'onto'
p1026
aS'N'
p1027
aS'IN'
p1028
aa(lp1029
S'aluminum'
p1030
aS'I'
p1031
ag1012
aa(lp1032
S'(LiFePO4'
p1033
aS'R'
p1034
ag1012
aa(lp1035
S'or'
p1036
aS'N'
p1037
aS'CC'
p1038
aa(lp1039
g47
ag4
ag4
aa(lp1040
g49
ag4
ag4
aaa(lp1041
(lp1042
g3
ag4
ag4
aa(lp1043
g6
ag4
ag4
aa(lp1044
S'LiNi0.5Mn1.5O4)'
p1045
aS'R'
p1046
aS'NNP'
p1047
aa(lp1048
S'or'
p1049
aS'N'
p1050
aS'CC'
p1051
aa(lp1052
S'copper'
p1053
aS'I'
p1054
aS'NN'
p1055
aa(lp1056
S'(TiO2(B))'
p1057
aS'R'
p1058
ag1055
aa(lp1059
S'foils'
p1060
aS'N'
p1061
aS'NNS'
p1062
aa(lp1063
S'.'
p1064
aS'N'
p1065
aS'.'
p1066
aa(lp1067
g47
ag4
ag4
aa(lp1068
g49
ag4
ag4
aaa(lp1069
(lp1070
g3
ag4
ag4
aa(lp1071
g6
ag4
ag4
aa(lp1072
S'Disks'
p1073
aS'PR'
p1074
aS'NNS'
p1075
aa(lp1076
S'of'
p1077
aS'N'
p1078
aS'IN'
p1079
aa(lp1080
S'10'
p1081
aS'P'
p1082
aS'CD'
p1083
aa(lp1084
S'mm'
p1085
aS'P'
p1086
ag1075
aa(lp1087
S'diameter'
p1088
aS'P'
p1089
aS'NN'
p1090
aa(lp1091
g47
ag4
ag4
aa(lp1092
g49
ag4
ag4
aaa(lp1093
(lp1094
g3
ag4
ag4
aa(lp1095
g6
ag4
ag4
aa(lp1096
S'were'
p1097
aS'A'
p1098
aS'VBD'
p1099
aa(lp1100
S'cut'
p1101
aS'A'
p1102
aS'VBN'
p1103
aa(lp1104
S'and'
p1105
aS'N'
p1106
aS'CC'
p1107
aa(lp1108
S'vacuum-dried'
p1109
aS'A'
p1110
aS'JJ'
p1111
aa(lp1112
S'for'
p1113
aS'N'
p1114
aS'IN'
p1115
aa(lp1116
S'5'
p1117
aS'P'
p1118
aS'CD'
p1119
aa(lp1120
S'h'
p1121
aS'P'
p1122
aS'NN'
p1123
aa(lp1124
S'at'
p1125
aS'N'
p1126
aS'IN'
p1127
aa(lp1128
S'110'
p1129
aS'P'
p1130
aS'CD'
p1131
aa(lp1132
S'C'
p1133
aS'P'
p1134
aS'NNP'
p1135
aa(lp1136
S'to'
p1137
aS'N'
p1138
aS'TO'
p1139
aa(lp1140
S'completely'
p1141
aS'N'
p1142
aS'RB'
p1143
aa(lp1144
S'eliminate'
p1145
aS'N'
p1146
aS'VB'
p1147
aa(lp1148
g47
ag4
ag4
aa(lp1149
g49
ag4
ag4
aaa(lp1150
(lp1151
g3
ag4
ag4
aa(lp1152
g6
ag4
ag4
aa(lp1153
S'traces'
p1154
aS'N'
p1155
aS'NNS'
p1156
aa(lp1157
S'of'
p1158
aS'N'
p1159
aS'IN'
p1160
aa(lp1161
S'moisture'
p1162
aS'N'
p1163
aS'NN'
p1164
aa(lp1165
S'and'
p1166
aS'N'
p1167
aS'CC'
p1168
aa(lp1169
S'NMP'
p1170
aS'N'
p1171
aS'NNP'
p1172
aa(lp1173
S'.'
p1174
aS'N'
p1175
aS'.'
p1176
aa(lp1177
g47
ag4
ag4
aa(lp1178
g49
ag4
ag4
aaa(lp1179
(lp1180
g3
ag4
ag4
aa(lp1181
g6
ag4
ag4
aa(lp1182
S'The'
p1183
aS'N'
p1184
aS'DT'
p1185
aa(lp1186
S'complete'
p1187
aS'N'
p1188
aS'JJ'
p1189
aa(lp1190
S'lithium-ion'
p1191
aS'PR'
p1192
aS'NN'
p1193
aa(lp1194
S'cell'
p1195
aS'PR'
p1196
ag1193
aa(lp1197
S'was'
p1198
aS'A'
p1199
aS'VBD'
p1200
aa(lp1201
S'assembled'
p1202
aS'A'
p1203
aS'VBN'
p1204
aa(lp1205
g47
ag4
ag4
aa(lp1206
g49
ag4
ag4
aaa(lp1207
(lp1208
g3
ag4
ag4
aa(lp1209
g6
ag4
ag4
aa(lp1210
S'by'
p1211
aS'N'
p1212
aS'IN'
p1213
aa(lp1214
S'sandwiching'
p1215
aS'P'
p1216
aS'VBG'
p1217
aa(lp1218
S'a'
p1219
aS'N'
p1220
aS'DT'
p1221
aa(lp1222
S'GPE'
p1223
aS'I'
p1224
aS'NNP'
p1225
aa(lp1226
S'membrane'
p1227
aS'I'
p1228
aS'NN'
p1229
aa(lp1230
S'between'
p1231
aS'N'
p1232
aS'IN'
p1233
aa(lp1234
S'a'
p1235
aS'N'
p1236
ag1221
aa(lp1237
S'TiO2(B)'
p1238
aS'R'
p1239
ag1225
aa(lp1240
S'electrode'
p1241
aS'R'
p1242
ag1229
aa(lp1243
S'and'
p1244
aS'N'
p1245
aS'CC'
p1246
aa(lp1247
S'either'
p1248
aS'N'
p1249
aS'CC'
p1250
aa(lp1251
S'a'
p1252
aS'N'
p1253
ag1221
aa(lp1254
S'LiFePO4'
p1255
aS'R'
p1256
ag1225
aa(lp1257
S'or'
p1258
aS'N'
p1259
aS'CC'
p1260
aa(lp1261
S'LiNi0.5Mn1.5O4'
p1262
aS'R'
p1263
ag1225
aa(lp1264
S'disk'
p1265
aS'R'
p1266
ag1229
aa(lp1267
S'.'
p1268
aS'N'
p1269
aS'.'
p1270
aa(lp1271
g47
ag4
ag4
aa(lp1272
g49
ag4
ag4
aaa(lp1273
(lp1274
g3
ag4
ag4
aa(lp1275
g6
ag4
ag4
aa(lp1276
S'The'
p1277
aS'N'
p1278
aS'DT'
p1279
aa(lp1280
S'batteries'
p1281
aS'R'
p1282
aS'NNS'
p1283
aa(lp1284
g47
ag4
ag4
aa(lp1285
g49
ag4
ag4
aaa(lp1286
(lp1287
g3
ag4
ag4
aa(lp1288
g6
ag4
ag4
aa(lp1289
S'were'
p1290
aS'A'
p1291
aS'VBD'
p1292
aa(lp1293
S'anode'
p1294
aS'P'
p1295
aS'RB'
p1296
aa(lp1297
S'limited'
p1298
aS'P'
p1299
aS'VBN'
p1300
aa(lp1301
S'and'
p1302
aS'N'
p1303
aS'CC'
p1304
aa(lp1305
S'the'
p1306
aS'N'
p1307
aS'DT'
p1308
aa(lp1309
S'specific'
p1310
aS'P'
p1311
aS'JJ'
p1312
aa(lp1313
S'capacity'
p1314
aS'P'
p1315
aS'NN'
p1316
aa(lp1317
S'and'
p1318
aS'N'
p1319
ag1304
aa(lp1320
S'rate'
p1321
aS'P'
p1322
aS'NN'
p1323
aa(lp1324
S'of'
p1325
aS'P'
p1326
aS'IN'
p1327
aa(lp1328
S'the'
p1329
aS'P'
p1330
ag1308
aa(lp1331
S'batteries'
p1332
aS'P'
p1333
aS'NNS'
p1334
aa(lp1335
g47
ag4
ag4
aa(lp1336
g49
ag4
ag4
aaa(lp1337
(lp1338
g3
ag4
ag4
aa(lp1339
g6
ag4
ag4
aa(lp1340
S'referred'
p1341
aS'N'
p1342
aS'VBN'
p1343
aa(lp1344
S'to'
p1345
aS'N'
p1346
aS'TO'
p1347
aa(lp1348
S'the'
p1349
aS'N'
p1350
aS'DT'
p1351
aa(lp1352
S'mass'
p1353
aS'P'
p1354
aS'NN'
p1355
aa(lp1356
S'of'
p1357
aS'P'
p1358
aS'IN'
p1359
aa(lp1360
S'the'
p1361
aS'N'
p1362
ag1351
aa(lp1363
S'negative'
p1364
aS'N'
p1365
aS'JJ'
p1366
aa(lp1367
S'TiO2(B)'
p1368
aS'R'
p1369
aS'NNP'
p1370
aa(lp1371
S'electrode'
p1372
aS'R'
p1373
ag1355
aa(lp1374
S'.'
p1375
aS'N'
p1376
aS'.'
p1377
aa(lp1378
g47
ag4
ag4
aa(lp1379
g49
ag4
ag4
aaa(lp1380
(lp1381
g3
ag4
ag4
aa(lp1382
g6
ag4
ag4
aa(lp1383
S'All'
p1384
aS'N'
p1385
aS'DT'
p1386
aa(lp1387
S'manipulations'
p1388
aS'N'
p1389
aS'NNS'
p1390
aa(lp1391
g47
ag4
ag4
aa(lp1392
g49
ag4
ag4
aaa(lp1393
(lp1394
g3
ag4
ag4
aa(lp1395
g6
ag4
ag4
aa(lp1396
S'were'
p1397
aS'N'
p1398
aS'VBD'
p1399
aa(lp1400
S'carried'
p1401
aS'N'
p1402
aS'VBN'
p1403
aa(lp1404
S'out'
p1405
aS'N'
p1406
aS'RP'
p1407
aa(lp1408
S'in'
p1409
aS'N'
p1410
aS'IN'
p1411
aa(lp1412
S'a'
p1413
aS'N'
p1414
aS'DT'
p1415
aa(lp1416
S'MBraun'
p1417
aS'N'
p1418
aS'NNP'
p1419
aa(lp1420
S'drybox'
p1421
aS'N'
p1422
aS'NN'
p1423
aa(lp1424
S'with'
p1425
aS'N'
p1426
aS'IN'
p1427
aa(lp1428
S'moisture'
p1429
aS'N'
p1430
ag1423
aa(lp1431
S'and'
p1432
aS'N'
p1433
aS'CC'
p1434
aa(lp1435
S'oxygen'
p1436
aS'N'
p1437
ag1423
aa(lp1438
g47
ag4
ag4
aa(lp1439
g49
ag4
ag4
aaa(lp1440
(lp1441
g3
ag4
ag4
aa(lp1442
g6
ag4
ag4
aa(lp1443
S'levels'
p1444
aS'N'
p1445
aS'NNS'
p1446
aa(lp1447
S'below'
p1448
aS'N'
p1449
aS'IN'
p1450
aa(lp1451
S'1'
p1452
aS'N'
p1453
aS'CD'
p1454
aa(lp1455
S'ppm'
p1456
aS'N'
p1457
aS'NN'
p1458
aa(lp1459
S'.'
p1460
aS'N'
p1461
aS'.'
p1462
aa(lp1463
S'The'
p1464
aS'N'
p1465
aS'DT'
p1466
aa(lp1467
S'galvanostatic'
p1468
aS'E'
p1469
aS'JJ'
p1470
aa(lp1471
S'cycling'
p1472
aS'E'
p1473
ag1458
aa(lp1474
S'tests'
p1475
aS'E'
p1476
aS'NNS'
p1477
aa(lp1478
S'were'
p1479
aS'A'
p1480
aS'VBD'
p1481
aa(lp1482
S'performed'
p1483
aS'A'
p1484
aS'VBN'
p1485
aa(lp1486
g47
ag4
ag4
aa(lp1487
g49
ag4
ag4
aaa(lp1488
(lp1489
g3
ag4
ag4
aa(lp1490
g6
ag4
ag4
aa(lp1491
S'using'
p1492
aS'N'
p1493
aS'VBG'
p1494
aa(lp1495
S'a'
p1496
aS'N'
p1497
aS'DT'
p1498
aa(lp1499
S'Maccor'
p1500
aS'E'
p1501
aS'NNP'
p1502
aa(lp1503
S'automated'
p1504
aS'E'
p1505
aS'VBN'
p1506
aa(lp1507
S'battery'
p1508
aS'E'
p1509
aS'NN'
p1510
aa(lp1511
S'cycler'
p1512
aS'E'
p1513
ag1510
aa(lp1514
S'.'
p1515
aS'N'
p1516
aS'.'
p1517
aa(lp1518
g47
ag4
ag4
aa(lp1519
g49
ag4
ag4
aaa(lp1520
(lp1521
g3
ag4
ag4
aa(lp1522
g6
ag4
ag4
aa(lp1523
S'All'
p1524
aS'N'
p1525
aS'DT'
p1526
aa(lp1527
S'measurements'
p1528
aS'E'
p1529
aS'NNS'
p1530
aa(lp1531
S'were'
p1532
aS'A'
p1533
aS'VBD'
p1534
aa(lp1535
S'performed'
p1536
aS'A'
p1537
aS'VBN'
p1538
aa(lp1539
g47
ag4
ag4
aa(lp1540
g49
ag4
ag4
aaa(lp1541
(lp1542
g3
ag4
ag4
aa(lp1543
g6
ag4
ag4
aa(lp1544
S'at'
p1545
aS'N'
p1546
aS'IN'
p1547
aa(lp1548
S'room'
p1549
aS'P'
p1550
aS'NN'
p1551
aa(lp1552
S'temperature'
p1553
aS'P'
p1554
aS'NN'
p1555
aa(lp1556
S'.'
p1557
aS'N'
p1558
aS'.'
p1559
aa(lp1560
g47
ag4
ag4
aa(lp1561
g49
ag4
ag4
aaa.