(lp0
(lp1
(lp2
S'***START***'
p3
aS'None'
p4
ag4
aa(lp5
S'***START2***'
p6
ag4
ag4
aa(lp7
S'The'
p8
aS'N'
p9
aS'DT'
p10
aa(lp11
S'pristine'
p12
aS'PR'
p13
aS'NN'
p14
aa(lp15
S'Ni0.8Co0.15Al0.05(OH)2'
p16
aS'PR'
p17
aS'NNP'
p18
aa(lp19
S'precursor'
p20
aS'PR'
p21
ag14
aa(lp22
S'was'
p23
aS'A'
p24
aS'VBD'
p25
aa(lp26
S'obtained'
p27
aS'A'
p28
aS'VBN'
p29
aa(lp30
S'by'
p31
aS'N'
p32
aS'IN'
p33
aa(lp34
S'commercial'
p35
aS'N'
p36
aS'JJ'
p37
aa(lp38
S'supply'
p39
aS'N'
p40
ag14
aa(lp41
S'.'
p42
aS'N'
p43
aS'.'
p44
aa(lp45
S'***END***'
p46
ag4
ag4
aa(lp47
S'***END2***'
p48
ag4
ag4
aaa(lp49
(lp50
g3
ag4
ag4
aa(lp51
g6
ag4
ag4
aa(lp52
S'The'
p53
aS'N'
p54
aS'DT'
p55
aa(lp56
S'in'
p57
aS'E'
p58
aS'IN'
p59
aa(lp60
S'situ'
p61
aS'E'
p62
aS'JJ'
p63
aa(lp64
S'oxidizing-coating'
p65
aS'E'
p66
ag63
aa(lp67
S'process'
p68
aS'E'
p69
aS'NN'
p70
aa(lp71
S'was'
p72
aS'A'
p73
aS'VBD'
p74
aa(lp75
S'implemented'
p76
aS'A'
p77
aS'VBN'
p78
aa(lp79
S'as'
p80
aS'N'
p81
aS'IN'
p82
aa(lp83
S'below'
p84
aS'N'
p85
ag70
aa(lp86
S'.'
p87
aS'N'
p88
aS'.'
p89
aa(lp90
g46
ag4
ag4
aa(lp91
g48
ag4
ag4
aaa(lp92
(lp93
g3
ag4
ag4
aa(lp94
g6
ag4
ag4
aa(lp95
S'KMnO4'
p96
aS'I'
p97
aS'NNP'
p98
aa(lp99
S'powder'
p100
aS'I'
p101
aS'NN'
p102
aa(lp103
S'was'
p104
aS'A'
p105
aS'VBD'
p106
aa(lp107
S'dissolved'
p108
aS'A'
p109
aS'VBN'
p110
aa(lp111
S'in'
p112
aS'N'
p113
aS'IN'
p114
aa(lp115
S'deionized'
p116
aS'I'
p117
aS'JJ'
p118
aa(lp119
S'water'
p120
aS'I'
p121
aS'NN'
p122
aa(lp123
S'to'
p124
aS'N'
p125
aS'TO'
p126
aa(lp127
S'form'
p128
aS'N'
p129
aS'VB'
p130
aa(lp131
S'a'
p132
aS'N'
p133
aS'DT'
p134
aa(lp135
S'0.1'
p136
aS'P'
p137
aS'CD'
p138
aa(lp139
S'mol'
p140
aS'P'
p141
ag102
aa(lp142
S'L1'
p143
aS'P'
p144
ag98
aa(lp145
S'solution'
p146
aS'PR'
p147
ag102
aa(lp148
S'.'
p149
aS'N'
p150
aS'.'
p151
aa(lp152
g46
ag4
ag4
aa(lp153
g48
ag4
ag4
aaa(lp154
(lp155
g3
ag4
ag4
aa(lp156
g6
ag4
ag4
aa(lp157
S'Subsequently,'
p158
aS'N'
p159
aS'NNP'
p160
aa(lp161
S'10'
p162
aS'P'
p163
aS'CD'
p164
aa(lp165
S'g'
p166
aS'P'
p167
aS'NN'
p168
aa(lp169
S'Ni0.8Co0.15Al0.05(OH)2'
p170
aS'R'
p171
ag160
aa(lp172
S'precursor'
p173
aS'R'
p174
ag168
aa(lp175
S'was'
p176
aS'A'
p177
aS'VBD'
p178
aa(lp179
S'dispersed'
p180
aS'A'
p181
aS'VBN'
p182
aa(lp183
S'in'
p184
aS'N'
p185
aS'IN'
p186
aa(lp187
S'deionized'
p188
aS'I'
p189
aS'JJ'
p190
aa(lp191
S'water'
p192
aS'I'
p193
aS'NN'
p194
aa(lp195
S','
p196
aS'N'
p197
aS','
p198
aa(lp199
S'followed'
p200
aS'N'
p201
ag182
aa(lp202
S'by'
p203
aS'N'
p204
aS'IN'
p205
aa(lp206
S'dripping'
p207
aS'A'
p208
aS'VBG'
p209
aa(lp210
S'20'
p211
aS'P'
p212
aS'CD'
p213
aa(lp214
S'mL'
p215
aS'P'
p216
aS'IN'
p217
aa(lp218
S'the'
p219
aS'N'
p220
aS'DT'
p221
aa(lp222
S'as-prepared'
p223
aS'R'
p224
ag190
aa(lp225
S'KMnO4'
p226
aS'R'
p227
ag160
aa(lp228
S'solution'
p229
aS'R'
p230
ag168
aa(lp231
S'with'
p232
aS'N'
p233
aS'IN'
p234
aa(lp235
S'magnetic'
p236
aS'P'
p237
ag190
aa(lp238
S'stirring'
p239
aS'P'
p240
ag168
aa(lp241
S'.'
p242
aS'N'
p243
aS'.'
p244
aa(lp245
g46
ag4
ag4
aa(lp246
g48
ag4
ag4
aaa(lp247
(lp248
g3
ag4
ag4
aa(lp249
g6
ag4
ag4
aa(lp250
S'On'
p251
aS'N'
p252
aS'IN'
p253
aa(lp254
S'the'
p255
aS'N'
p256
aS'DT'
p257
aa(lp258
S'surface'
p259
aS'N'
p260
aS'NN'
p261
aa(lp262
S'of'
p263
aS'N'
p264
aS'IN'
p265
aa(lp266
S'the'
p267
aS'N'
p268
ag257
aa(lp269
S'precursor,'
p270
aS'N'
p271
ag261
aa(lp272
S'Ni2+'
p273
aS'N'
p274
aS'NNP'
p275
aa(lp276
S'was'
p277
aS'N'
p278
aS'VBD'
p279
aa(lp280
S'immediately'
p281
aS'N'
p282
aS'RB'
p283
aa(lp284
S'oxidized'
p285
aS'N'
p286
aS'VBN'
p287
aa(lp288
S'into'
p289
aS'N'
p290
aS'IN'
p291
aa(lp292
S'Ni3+,'
p293
aS'N'
p294
ag275
aa(lp295
S'accompanied'
p296
aS'N'
p297
ag287
aa(lp298
S'by'
p299
aS'N'
p300
aS'IN'
p301
aa(lp302
S'the'
p303
aS'N'
p304
ag257
aa(lp305
S'precipitation'
p306
aS'N'
p307
ag261
aa(lp308
S'of'
p309
aS'N'
p310
ag265
aa(lp311
S'MnO2'
p312
aS'N'
p313
ag275
aa(lp314
S'.'
p315
aS'N'
p316
aS'.'
p317
aa(lp318
g46
ag4
ag4
aa(lp319
g48
ag4
ag4
aaa(lp320
(lp321
g3
ag4
ag4
aa(lp322
g6
ag4
ag4
aa(lp323
S'As'
p324
aS'N'
p325
aS'IN'
p326
aa(lp327
S'a'
p328
aS'N'
p329
aS'DT'
p330
aa(lp331
S'result,'
p332
aS'N'
p333
aS'NN'
p334
aa(lp335
S'the'
p336
aS'N'
p337
aS'DT'
p338
aa(lp339
S'dark'
p340
aS'N'
p341
ag334
aa(lp342
S'green'
p343
aS'N'
p344
aS'JJ'
p345
aa(lp346
S'solid'
p347
aS'N'
p348
ag345
aa(lp349
S'powder'
p350
aS'N'
p351
ag334
aa(lp352
S'was'
p353
aS'N'
p354
aS'VBD'
p355
aa(lp356
S'changed'
p357
aS'N'
p358
aS'VBN'
p359
aa(lp360
S'into'
p361
aS'N'
p362
aS'IN'
p363
aa(lp364
S'dark'
p365
aS'N'
p366
ag334
aa(lp367
S'brown,'
p368
aS'N'
p369
ag334
aa(lp370
S'and'
p371
aS'N'
p372
aS'CC'
p373
aa(lp374
S'the'
p375
aS'N'
p376
ag338
aa(lp377
S'dripped'
p378
aS'N'
p379
ag345
aa(lp380
S'violet'
p381
aS'N'
p382
ag334
aa(lp383
S'liquid'
p384
aS'N'
p385
aS'RBR'
p386
aa(lp387
S'immediately'
p388
aS'N'
p389
aS'RB'
p390
aa(lp391
S'became'
p392
aS'N'
p393
aS'VBD'
p394
aa(lp395
S'clear'
p396
aS'N'
p397
ag345
aa(lp398
S'.'
p399
aS'N'
p400
aS'.'
p401
aa(lp402
g46
ag4
ag4
aa(lp403
g48
ag4
ag4
aaa(lp404
(lp405
g3
ag4
ag4
aa(lp406
g6
ag4
ag4
aa(lp407
S'But'
p408
aS'N'
p409
aS'CC'
p410
aa(lp411
S'the'
p412
aS'N'
p413
aS'DT'
p414
aa(lp415
S'violet'
p416
aS'N'
p417
aS'NN'
p418
aa(lp419
S'could'
p420
aS'N'
p421
aS'MD'
p422
aa(lp423
S'no'
p424
aS'N'
p425
aS'RB'
p426
aa(lp427
S'longer'
p428
aS'N'
p429
ag426
aa(lp430
S'fade'
p431
aS'N'
p432
aS'VB'
p433
aa(lp434
S'within'
p435
aS'N'
p436
aS'IN'
p437
aa(lp438
S'1'
p439
aS'N'
p440
aS'CD'
p441
aa(lp442
S'h'
p443
aS'N'
p444
ag418
aa(lp445
S'when'
p446
aS'N'
p447
aS'WRB'
p448
aa(lp449
S'about'
p450
aS'N'
p451
aS'IN'
p452
aa(lp453
S'15'
p454
aS'N'
p455
aS'CD'
p456
aa(lp457
S'mL'
p458
aS'N'
p459
aS'NNS'
p460
aa(lp461
S'KMnO4'
p462
aS'N'
p463
aS'NNP'
p464
aa(lp465
S'solution'
p466
aS'N'
p467
ag418
aa(lp468
S'was'
p469
aS'N'
p470
aS'VBD'
p471
aa(lp472
S'dripped'
p473
aS'N'
p474
aS'VBN'
p475
aa(lp476
S'in'
p477
aS'N'
p478
aS'IN'
p479
aa(lp480
S'.'
p481
aS'N'
p482
aS'.'
p483
aa(lp484
g46
ag4
ag4
aa(lp485
g48
ag4
ag4
aaa(lp486
(lp487
g3
ag4
ag4
aa(lp488
g6
ag4
ag4
aa(lp489
S'Then'
p490
aS'N'
p491
aS'RB'
p492
aa(lp493
S'excess'
p494
aS'N'
p495
aS'JJ'
p496
aa(lp497
S'5'
p498
aS'N'
p499
aS'CD'
p500
aa(lp501
S'mL'
p502
aS'N'
p503
aS'NN'
p504
aa(lp505
S'was'
p506
aS'N'
p507
aS'VBD'
p508
aa(lp509
S'added'
p510
aS'N'
p511
aS'VBN'
p512
aa(lp513
S'with'
p514
aS'N'
p515
aS'IN'
p516
aa(lp517
S'stirring'
p518
aS'N'
p519
aS'VBG'
p520
aa(lp521
S'for'
p522
aS'N'
p523
aS'IN'
p524
aa(lp525
S'0.5'
p526
aS'N'
p527
aS'CD'
p528
aa(lp529
S'h'
p530
aS'N'
p531
ag504
aa(lp532
S'.'
p533
aS'N'
p534
aS'.'
p535
aa(lp536
g46
ag4
ag4
aa(lp537
g48
ag4
ag4
aaa(lp538
(lp539
g3
ag4
ag4
aa(lp540
g6
ag4
ag4
aa(lp541
S'After'
p542
aS'N'
p543
aS'IN'
p544
aa(lp545
S'reaction,'
p546
aS'N'
p547
aS'PDT'
p548
aa(lp549
S'the'
p550
aS'N'
p551
aS'DT'
p552
aa(lp553
S'dark'
p554
aS'PR'
p555
aS'JJ'
p556
aa(lp557
S'brown'
p558
aS'PR'
p559
ag556
aa(lp560
S'powder'
p561
aS'PR'
p562
aS'NN'
p563
aa(lp564
S'was'
p565
aS'A'
p566
aS'VBD'
p567
aa(lp568
S'recovered'
p569
aS'A'
p570
aS'VBN'
p571
aa(lp572
S'by'
p573
aS'N'
p574
aS'IN'
p575
aa(lp576
S'filtration'
p577
aS'E'
p578
ag563
aa(lp579
S','
p580
aS'N'
p581
aS','
p582
aa(lp583
S'washed'
p584
aS'A'
p585
ag567
aa(lp586
S'three'
p587
aS'P'
p588
aS'CD'
p589
aa(lp590
S'times'
p591
aS'P'
p592
aS'NNS'
p593
aa(lp594
S'with'
p595
aS'N'
p596
aS'IN'
p597
aa(lp598
S'deionized'
p599
aS'I'
p600
ag556
aa(lp601
S'water'
p602
aS'I'
p603
aS'NN'
p604
aa(lp605
S'and'
p606
aS'N'
p607
aS'CC'
p608
aa(lp609
S'dried'
p610
aS'A'
p611
ag567
aa(lp612
S'at'
p613
aS'N'
p614
aS'IN'
p615
aa(lp616
S'110'
p617
aS'P'
p618
aS'CD'
p619
aa(lp620
S'C'
p621
aS'P'
p622
aS'NNP'
p623
aa(lp624
S'overnight'
p625
aS'P'
p626
ag563
aa(lp627
S'.'
p628
aS'N'
p629
aS'.'
p630
aa(lp631
g46
ag4
ag4
aa(lp632
g48
ag4
ag4
aaa(lp633
(lp634
g3
ag4
ag4
aa(lp635
g6
ag4
ag4
aa(lp636
S'Finally,'
p637
aS'N'
p638
aS'IN'
p639
aa(lp640
S'the'
p641
aS'N'
p642
aS'DT'
p643
aa(lp644
S'MnO2-coated'
p645
aS'R'
p646
aS'JJ'
p647
aa(lp648
S'Ni0.8Co0.15Al0.05(OH)2'
p649
aS'R'
p650
aS'NNP'
p651
aa(lp652
S'and'
p653
aS'N'
p654
aS'CC'
p655
aa(lp656
S'LiOHH2O'
p657
aS'I'
p658
ag651
aa(lp659
S'were'
p660
aS'A'
p661
aS'VBD'
p662
aa(lp663
S'thoroughly'
p664
aS'A'
p665
aS'RB'
p666
aa(lp667
S'mixed'
p668
aS'A'
p669
ag647
aa(lp670
S'with'
p671
aS'A'
p672
aS'IN'
p673
aa(lp674
S'a'
p675
aS'N'
p676
aS'DT'
p677
aa(lp678
S'molar'
p679
aS'N'
p680
ag647
aa(lp681
S'ratio'
p682
aS'P'
p683
aS'NN'
p684
aa(lp685
S'of'
p686
aS'P'
p687
aS'IN'
p688
aa(lp689
S'1:1.05'
p690
aS'P'
p691
aS'CD'
p692
aa(lp693
S'before'
p694
aS'N'
p695
ag639
aa(lp696
S'being'
p697
aS'N'
p698
aS'VBG'
p699
aa(lp700
S'sintered'
p701
aS'A'
p702
aS'VBN'
p703
aa(lp704
S'at'
p705
aS'N'
p706
aS'IN'
p707
aa(lp708
S'750'
p709
aS'P'
p710
ag692
aa(lp711
S'C'
p712
aS'P'
p713
ag651
aa(lp714
S'for'
p715
aS'N'
p716
aS'IN'
p717
aa(lp718
S'15'
p719
aS'P'
p720
aS'CD'
p721
aa(lp722
S'h'
p723
aS'P'
p724
aS'NNS'
p725
aa(lp726
S'under'
p727
aS'N'
p728
aS'IN'
p729
aa(lp730
S'flowing'
p731
aS'P'
p732
aS'VBG'
p733
aa(lp734
S'oxygen'
p735
aS'P'
p736
ag684
aa(lp737
S'.'
p738
aS'N'
p739
aS'.'
p740
aa(lp741
g46
ag4
ag4
aa(lp742
g48
ag4
ag4
aaa(lp743
(lp744
g3
ag4
ag4
aa(lp745
g6
ag4
ag4
aa(lp746
S'For'
p747
aS'N'
p748
aS'IN'
p749
aa(lp750
S'comparison'
p751
aS'N'
p752
aS'NN'
p753
aa(lp754
S','
p755
aS'N'
p756
aS','
p757
aa(lp758
S'a'
p759
aS'N'
p760
aS'DT'
p761
aa(lp762
S'pristine'
p763
aS'PR'
p764
ag753
aa(lp765
S'sample'
p766
aS'PR'
p767
ag753
aa(lp768
S'was'
p769
aS'A'
p770
aS'VBD'
p771
aa(lp772
S'obtained'
p773
aS'A'
p774
aS'VBN'
p775
aa(lp776
S'by'
p777
aS'N'
p778
aS'IN'
p779
aa(lp780
S'annealing'
p781
aS'P'
p782
aS'VBG'
p783
aa(lp784
S'pristine'
p785
aS'I'
p786
ag753
aa(lp787
S'Ni0.8Co0.15Al0.05(OH)2'
p788
aS'I'
p789
aS'NNP'
p790
aa(lp791
S'and'
p792
aS'N'
p793
aS'CC'
p794
aa(lp795
S'LiOHH2O'
p796
aS'I'
p797
ag790
aa(lp798
S'with'
p799
aS'N'
p800
aS'IN'
p801
aa(lp802
S'the'
p803
aS'N'
p804
aS'DT'
p805
aa(lp806
S'same'
p807
aS'P'
p808
aS'JJ'
p809
aa(lp810
S'molar'
p811
aS'P'
p812
aS'JJ'
p813
aa(lp814
S'ratio'
p815
aS'P'
p816
ag753
aa(lp817
S'and'
p818
aS'N'
p819
ag794
aa(lp820
S'sintering'
p821
aS'P'
p822
ag783
aa(lp823
S'process'
p824
aS'P'
p825
ag753
aa(lp826
S'.'
p827
aS'N'
p828
aS'.'
p829
aa(lp830
g46
ag4
ag4
aa(lp831
g48
ag4
ag4
aaa(lp832
(lp833
g3
ag4
ag4
aa(lp834
g6
ag4
ag4
aa(lp835
S'For'
p836
aS'N'
p837
aS'IN'
p838
aa(lp839
S'convenience'
p840
aS'N'
p841
aS'NN'
p842
aa(lp843
S','
p844
aS'N'
p845
aS','
p846
aa(lp847
S'the'
p848
aS'N'
p849
aS'DT'
p850
aa(lp851
S'KMnO4'
p852
aS'N'
p853
aS'NNP'
p854
aa(lp855
S'treated'
p856
aS'N'
p857
aS'VBD'
p858
aa(lp859
S'Ni0.8Co0.25Al0.05(OH)2'
p860
aS'N'
p861
ag854
aa(lp862
S'precursor'
p863
aS'N'
p864
ag842
aa(lp865
S'and'
p866
aS'N'
p867
aS'CC'
p868
aa(lp869
S'the'
p870
aS'N'
p871
ag850
aa(lp872
S'pristine'
p873
aS'N'
p874
ag842
aa(lp875
S'one'
p876
aS'N'
p877
aS'CD'
p878
aa(lp879
S'are'
p880
aS'N'
p881
aS'VBP'
p882
aa(lp883
S'labeled'
p884
aS'N'
p885
aS'VBN'
p886
aa(lp887
S'as'
p888
aS'N'
p889
aS'IN'
p890
aa(lp891
S'T-precursor'
p892
aS'N'
p893
ag854
aa(lp894
S'and'
p895
aS'N'
p896
ag868
aa(lp897
S'U-precursor;'
p898
aS'N'
p899
ag854
aa(lp900
S'and'
p901
aS'N'
p902
ag868
aa(lp903
S'the'
p904
aS'N'
p905
ag850
aa(lp906
S'materials'
p907
aS'N'
p908
aS'NNS'
p909
aa(lp910
S'synthesized'
p911
aS'N'
p912
ag886
aa(lp913
S'from'
p914
aS'N'
p915
aS'IN'
p916
aa(lp917
S'them'
p918
aS'N'
p919
aS'PRP'
p920
aa(lp921
S'are'
p922
aS'N'
p923
ag882
aa(lp924
S'labeled'
p925
aS'N'
p926
ag886
aa(lp927
S'as'
p928
aS'N'
p929
ag890
aa(lp930
S'T-NCA'
p931
aS'N'
p932
ag854
aa(lp933
S'and'
p934
aS'N'
p935
ag868
aa(lp936
S'U-NCA'
p937
aS'N'
p938
ag854
aa(lp939
S'respectively'
p940
aS'N'
p941
aS'RB'
p942
aa(lp943
S'.'
p944
aS'N'
p945
aS'.'
p946
aa(lp947
g46
ag4
ag4
aa(lp948
g48
ag4
ag4
aaa(lp949
(lp950
g3
ag4
ag4
aa(lp951
g6
ag4
ag4
aa(lp952
S'X-ray'
p953
aS'PR'
p954
aS'JJ'
p955
aa(lp956
S'diffraction'
p957
aS'PR'
p958
aS'NN'
p959
aa(lp960
S'(XRD)'
p961
aS'PR'
p962
ag959
aa(lp963
S'patterns'
p964
aS'PR'
p965
aS'NNS'
p966
aa(lp967
S'were'
p968
aS'A'
p969
aS'VBD'
p970
aa(lp971
S'measured'
p972
aS'A'
p973
aS'VBN'
p974
aa(lp975
S'using'
p976
aS'N'
p977
aS'VBG'
p978
aa(lp979
S'a'
p980
aS'N'
p981
aS'DT'
p982
aa(lp983
S'Rigaku'
p984
aS'E'
p985
aS'NNP'
p986
aa(lp987
S'Rint-2000'
p988
aS'E'
p989
ag986
aa(lp990
S'diffractometer'
p991
aS'E'
p992
ag959
aa(lp993
S'with'
p994
aS'N'
p995
aS'IN'
p996
aa(lp997
S'Cu-K'
p998
aS'P'
p999
ag986
aa(lp1000
S'radiation'
p1001
aS'P'
p1002
ag959
aa(lp1003
S'(1.54056'
p1004
aS'P'
p1005
ag959
aa(lp1006
S')'
p1007
aS'P'
p1008
aS')'
p1009
aa(lp1010
S'.'
p1011
aS'N'
p1012
aS'.'
p1013
aa(lp1014
g46
ag4
ag4
aa(lp1015
g48
ag4
ag4
aaa(lp1016
(lp1017
g3
ag4
ag4
aa(lp1018
g6
ag4
ag4
aa(lp1019
S'The'
p1020
aS'N'
p1021
aS'DT'
p1022
aa(lp1023
S'morphologies'
p1024
aS'PR'
p1025
aS'NNS'
p1026
aa(lp1027
S'of'
p1028
aS'N'
p1029
aS'IN'
p1030
aa(lp1031
S'the'
p1032
aS'N'
p1033
aS'DT'
p1034
aa(lp1035
S'as-prepared'
p1036
aS'R'
p1037
aS'JJ'
p1038
aa(lp1039
S'samples'
p1040
aS'R'
p1041
ag1026
aa(lp1042
S'were'
p1043
aS'A'
p1044
aS'VBD'
p1045
aa(lp1046
S'observed'
p1047
aS'A'
p1048
aS'VBN'
p1049
aa(lp1050
S'by'
p1051
aS'N'
p1052
aS'IN'
p1053
aa(lp1054
S'a'
p1055
aS'N'
p1056
aS'DT'
p1057
aa(lp1058
S'scanning'
p1059
aS'E'
p1060
aS'VBG'
p1061
aa(lp1062
S'electron'
p1063
aS'E'
p1064
aS'NN'
p1065
aa(lp1066
S'microscope'
p1067
aS'E'
p1068
ag1065
aa(lp1069
S'(SEM'
p1070
aS'E'
p1071
aS'NNP'
p1072
aa(lp1073
S','
p1074
aS'N'
p1075
aS','
p1076
aa(lp1077
S'JEOL'
p1078
aS'N'
p1079
ag1072
aa(lp1080
S','
p1081
aS'N'
p1082
ag1076
aa(lp1083
S'JSM-5612LV)'
p1084
aS'E'
p1085
ag1072
aa(lp1086
S'.'
p1087
aS'N'
p1088
aS'.'
p1089
aa(lp1090
g46
ag4
ag4
aa(lp1091
g48
ag4
ag4
aaa(lp1092
(lp1093
g3
ag4
ag4
aa(lp1094
g6
ag4
ag4
aa(lp1095
S'The'
p1096
aS'N'
p1097
aS'DT'
p1098
aa(lp1099
S'amount'
p1100
aS'PR'
p1101
aS'NN'
p1102
aa(lp1103
S'of'
p1104
aS'PR'
p1105
aS'IN'
p1106
aa(lp1107
S'Mn'
p1108
aS'PR'
p1109
aS'NNP'
p1110
aa(lp1111
S'attached'
p1112
aS'PR'
p1113
aS'VBD'
p1114
aa(lp1115
S'onto'
p1116
aS'N'
p1117
aS'IN'
p1118
aa(lp1119
S'the'
p1120
aS'N'
p1121
aS'DT'
p1122
aa(lp1123
S'material'
p1124
aS'R'
p1125
ag1102
aa(lp1126
S'particles'
p1127
aS'R'
p1128
aS'NNS'
p1129
aa(lp1130
S'is'
p1131
aS'A'
p1132
aS'VBZ'
p1133
aa(lp1134
S'detected'
p1135
aS'A'
p1136
aS'VBN'
p1137
aa(lp1138
S'by'
p1139
aS'N'
p1140
aS'IN'
p1141
aa(lp1142
S'an'
p1143
aS'N'
p1144
aS'DT'
p1145
aa(lp1146
S'inductively'
p1147
aS'E'
p1148
aS'RB'
p1149
aa(lp1150
S'coupled'
p1151
aS'E'
p1152
ag1137
aa(lp1153
S'plasma'
p1154
aS'E'
p1155
aS'JJ'
p1156
aa(lp1157
S'optical'
p1158
aS'E'
p1159
ag1156
aa(lp1160
S'emission'
p1161
aS'E'
p1162
ag1102
aa(lp1163
S'spectrometer'
p1164
aS'E'
p1165
aS'RBR'
p1166
aa(lp1167
S'(ICP-OES'
p1168
aS'E'
p1169
ag1156
aa(lp1170
S','
p1171
aS'N'
p1172
aS','
p1173
aa(lp1174
S'IRIS'
p1175
aS'N'
p1176
ag1110
aa(lp1177
S'Intrepid'
p1178
aS'N'
p1179
ag1110
aa(lp1180
S'II'
p1181
aS'N'
p1182
ag1110
aa(lp1183
S'XSP)'
p1184
aS'N'
p1185
ag1110
aa(lp1186
S'.'
p1187
aS'N'
p1188
aS'.'
p1189
aa(lp1190
g46
ag4
ag4
aa(lp1191
g48
ag4
ag4
aaa(lp1192
(lp1193
g3
ag4
ag4
aa(lp1194
g6
ag4
ag4
aa(lp1195
S'Moreover,'
p1196
aS'N'
p1197
aS'NNP'
p1198
aa(lp1199
S'X-ray'
p1200
aS'E'
p1201
aS'JJ'
p1202
aa(lp1203
S'photoelectron'
p1204
aS'E'
p1205
aS'NN'
p1206
aa(lp1207
S'spectroscopy'
p1208
aS'E'
p1209
ag1206
aa(lp1210
S'(XPS'
p1211
aS'E'
p1212
ag1198
aa(lp1213
S','
p1214
aS'N'
p1215
aS','
p1216
aa(lp1217
S'PHI'
p1218
aS'N'
p1219
ag1198
aa(lp1220
S'5600,'
p1221
aS'N'
p1222
aS'CD'
p1223
aa(lp1224
S'PerkinElmer)'
p1225
aS'N'
p1226
ag1198
aa(lp1227
S'measurements'
p1228
aS'E'
p1229
aS'NNS'
p1230
aa(lp1231
S'were'
p1232
aS'A'
p1233
aS'VBD'
p1234
aa(lp1235
S'performed'
p1236
aS'A'
p1237
aS'VBN'
p1238
aa(lp1239
S'to'
p1240
aS'N'
p1241
aS'TO'
p1242
aa(lp1243
S'get'
p1244
aS'N'
p1245
aS'VB'
p1246
aa(lp1247
S'information'
p1248
aS'PR'
p1249
aS'NN'
p1250
aa(lp1251
S'on'
p1252
aS'PR'
p1253
aS'IN'
p1254
aa(lp1255
S'the'
p1256
aS'PR'
p1257
aS'DT'
p1258
aa(lp1259
S'surface'
p1260
aS'PR'
p1261
ag1206
aa(lp1262
S'of'
p1263
aS'N'
p1264
aS'IN'
p1265
aa(lp1266
S'the'
p1267
aS'N'
p1268
ag1258
aa(lp1269
S'materials'
p1270
aS'R'
p1271
aS'NNS'
p1272
aa(lp1273
S'.'
p1274
aS'N'
p1275
aS'.'
p1276
aa(lp1277
g46
ag4
ag4
aa(lp1278
g48
ag4
ag4
aaa(lp1279
(lp1280
g3
ag4
ag4
aa(lp1281
g6
ag4
ag4
aa(lp1282
S'CR'
p1283
aS'E'
p1284
aS'JJ'
p1285
aa(lp1286
S'2025'
p1287
aS'E'
p1288
aS'CD'
p1289
aa(lp1290
S'coin-type'
p1291
aS'E'
p1292
ag1285
aa(lp1293
S'cells'
p1294
aS'PR'
p1295
aS'NNS'
p1296
aa(lp1297
S'were'
p1298
aS'A'
p1299
aS'VBD'
p1300
aa(lp1301
S'assembled'
p1302
aS'A'
p1303
aS'VBN'
p1304
aa(lp1305
S'with'
p1306
aS'N'
p1307
aS'IN'
p1308
aa(lp1309
S'metallic'
p1310
aS'N'
p1311
ag1285
aa(lp1312
S'lithium'
p1313
aS'I'
p1314
aS'NN'
p1315
aa(lp1316
S'anodes'
p1317
aS'I'
p1318
aS'NNS'
p1319
aa(lp1320
S'for'
p1321
aS'N'
p1322
aS'IN'
p1323
aa(lp1324
S'electrochemistry'
p1325
aS'E'
p1326
ag1315
aa(lp1327
S'studies'
p1328
aS'E'
p1329
aS'NNS'
p1330
aa(lp1331
S'.'
p1332
aS'N'
p1333
aS'.'
p1334
aa(lp1335
g46
ag4
ag4
aa(lp1336
g48
ag4
ag4
aaa(lp1337
(lp1338
g3
ag4
ag4
aa(lp1339
g6
ag4
ag4
aa(lp1340
S'The'
p1341
aS'N'
p1342
aS'DT'
p1343
aa(lp1344
S'positive'
p1345
aS'PR'
p1346
aS'JJ'
p1347
aa(lp1348
S'electrodes'
p1349
aS'PR'
p1350
aS'NNS'
p1351
aa(lp1352
S'were'
p1353
aS'A'
p1354
aS'VBD'
p1355
aa(lp1356
S'fabricated'
p1357
aS'A'
p1358
aS'VBN'
p1359
aa(lp1360
S'by'
p1361
aS'N'
p1362
aS'IN'
p1363
aa(lp1364
S'casting'
p1365
aS'P'
p1366
aS'VBG'
p1367
aa(lp1368
S'a'
p1369
aS'N'
p1370
aS'DT'
p1371
aa(lp1372
S'slurry'
p1373
aS'P'
p1374
aS'NN'
p1375
aa(lp1376
S'consisting'
p1377
aS'N'
p1378
ag1367
aa(lp1379
S'of'
p1380
aS'N'
p1381
aS'IN'
p1382
aa(lp1383
S'as-prepared'
p1384
aS'R'
p1385
aS'JJ'
p1386
aa(lp1387
S'sample'
p1388
aS'R'
p1389
ag1375
aa(lp1390
S'(80'
p1391
aS'P'
p1392
aS'NNP'
p1393
aa(lp1394
S'wt%)'
p1395
aS'P'
p1396
ag1375
aa(lp1397
S','
p1398
aS'N'
p1399
aS','
p1400
aa(lp1401
S'Super'
p1402
aS'I'
p1403
ag1393
aa(lp1404
S'P'
p1405
aS'I'
p1406
ag1393
aa(lp1407
S'carbon'
p1408
aS'I'
p1409
ag1375
aa(lp1410
S'black'
p1411
aS'I'
p1412
aS'JJ'
p1413
aa(lp1414
S'(10'
p1415
aS'P'
p1416
ag1393
aa(lp1417
S'wt%)'
p1418
aS'P'
p1419
ag1375
aa(lp1420
S'and'
p1421
aS'N'
p1422
aS'CC'
p1423
aa(lp1424
S'poly(vinylidene'
p1425
aS'I'
p1426
ag1375
aa(lp1427
S'fluoride)'
p1428
aS'I'
p1429
aS'VBP'
p1430
aa(lp1431
S'(PVDF)'
p1432
aS'I'
p1433
ag1393
aa(lp1434
S'(10'
p1435
aS'P'
p1436
ag1393
aa(lp1437
S'wt%)'
p1438
aS'P'
p1439
ag1375
aa(lp1440
S'dispersed'
p1441
aS'N'
p1442
aS'VBD'
p1443
aa(lp1444
S'in'
p1445
aS'N'
p1446
aS'IN'
p1447
aa(lp1448
S'N-methyl-2-pyrrolidone'
p1449
aS'I'
p1450
ag1393
aa(lp1451
S'(NMP)'
p1452
aS'I'
p1453
ag1393
aa(lp1454
S'onto'
p1455
aS'N'
p1456
aS'IN'
p1457
aa(lp1458
S'an'
p1459
aS'N'
p1460
aS'DT'
p1461
aa(lp1462
S'aluminum'
p1463
aS'I'
p1464
ag1375
aa(lp1465
S'foil'
p1466
aS'I'
p1467
ag1375
aa(lp1468
S'with'
p1469
aS'N'
p1470
aS'IN'
p1471
aa(lp1472
S'a'
p1473
aS'N'
p1474
ag1371
aa(lp1475
S'doctor'
p1476
aS'E'
p1477
ag1375
aa(lp1478
S'blade'
p1479
aS'E'
p1480
ag1375
aa(lp1481
S','
p1482
aS'N'
p1483
ag1400
aa(lp1484
S'followed'
p1485
aS'A'
p1486
ag1359
aa(lp1487
S'by'
p1488
aS'N'
p1489
ag1363
aa(lp1490
S'drying'
p1491
aS'P'
p1492
ag1367
aa(lp1493
S'at'
p1494
aS'N'
p1495
aS'IN'
p1496
aa(lp1497
S'120'
p1498
aS'P'
p1499
aS'CD'
p1500
aa(lp1501
S'C'
p1502
aS'P'
p1503
ag1393
aa(lp1504
S'under'
p1505
aS'N'
p1506
aS'IN'
p1507
aa(lp1508
S'vacuum'
p1509
aS'P'
p1510
ag1375
aa(lp1511
S'for'
p1512
aS'N'
p1513
aS'IN'
p1514
aa(lp1515
S'12'
p1516
aS'P'
p1517
aS'CD'
p1518
aa(lp1519
S'h'
p1520
aS'P'
p1521
ag1375
aa(lp1522
S'.'
p1523
aS'N'
p1524
aS'.'
p1525
aa(lp1526
g46
ag4
ag4
aa(lp1527
g48
ag4
ag4
aaa(lp1528
(lp1529
g3
ag4
ag4
aa(lp1530
g6
ag4
ag4
aa(lp1531
S'1'
p1532
aS'P'
p1533
aS'CD'
p1534
aa(lp1535
S'M'
p1536
aS'P'
p1537
aS'NNP'
p1538
aa(lp1539
S'LiPF6'
p1540
aS'I'
p1541
ag1538
aa(lp1542
S'in'
p1543
aS'N'
p1544
aS'IN'
p1545
aa(lp1546
S'1:1:1'
p1547
aS'P'
p1548
aS'CD'
p1549
aa(lp1550
S'ethylene'
p1551
aS'I'
p1552
aS'NN'
p1553
aa(lp1554
S'carbonate/ethyl'
p1555
aS'I'
p1556
ag1553
aa(lp1557
S'methyl'
p1558
aS'I'
p1559
ag1553
aa(lp1560
S'carbonate/dimethyl'
p1561
aS'I'
p1562
ag1553
aa(lp1563
S'carbonate'
p1564
aS'I'
p1565
ag1553
aa(lp1566
S'was'
p1567
aS'A'
p1568
aS'VBD'
p1569
aa(lp1570
S'used'
p1571
aS'A'
p1572
aS'VBN'
p1573
aa(lp1574
S'as'
p1575
aS'N'
p1576
aS'IN'
p1577
aa(lp1578
S'electrolyte'
p1579
aS'N'
p1580
ag1553
aa(lp1581
S'.'
p1582
aS'N'
p1583
aS'.'
p1584
aa(lp1585
g46
ag4
ag4
aa(lp1586
g48
ag4
ag4
aaa(lp1587
(lp1588
g3
ag4
ag4
aa(lp1589
g6
ag4
ag4
aa(lp1590
S'The'
p1591
aS'N'
p1592
aS'DT'
p1593
aa(lp1594
S'cells'
p1595
aS'R'
p1596
aS'NNS'
p1597
aa(lp1598
S'were'
p1599
aS'A'
p1600
aS'VBD'
p1601
aa(lp1602
S'assembled'
p1603
aS'A'
p1604
aS'VBN'
p1605
aa(lp1606
S'in'
p1607
aS'N'
p1608
aS'IN'
p1609
aa(lp1610
S'an'
p1611
aS'N'
p1612
aS'DT'
p1613
aa(lp1614
S'Ar-filled'
p1615
aS'E'
p1616
aS'JJ'
p1617
aa(lp1618
S'glove'
p1619
aS'E'
p1620
aS'NN'
p1621
aa(lp1622
S'box'
p1623
aS'E'
p1624
ag1621
aa(lp1625
S'(Mikrouna)'
p1626
aS'N'
p1627
ag1621
aa(lp1628
S'with'
p1629
aS'N'
p1630
aS'IN'
p1631
aa(lp1632
S'O2'
p1633
aS'P'
p1634
aS'NNP'
p1635
aa(lp1636
S'and'
p1637
aS'P'
p1638
aS'CC'
p1639
aa(lp1640
S'H2O'
p1641
aS'P'
p1642
ag1635
aa(lp1643
S'lower'
p1644
aS'P'
p1645
aS'JJR'
p1646
aa(lp1647
S'than'
p1648
aS'P'
p1649
aS'IN'
p1650
aa(lp1651
S'0.5'
p1652
aS'P'
p1653
aS'CD'
p1654
aa(lp1655
S'ppm'
p1656
aS'P'
p1657
ag1621
aa(lp1658
S','
p1659
aS'N'
p1660
aS','
p1661
aa(lp1662
S'and'
p1663
aS'N'
p1664
ag1639
aa(lp1665
S'cycled'
p1666
aS'A'
p1667
aS'VBD'
p1668
aa(lp1669
S'galvanostatically'
p1670
aS'P'
p1671
aS'RB'
p1672
aa(lp1673
S'between'
p1674
aS'P'
p1675
aS'IN'
p1676
aa(lp1677
S'2.8'
p1678
aS'P'
p1679
ag1654
aa(lp1680
S'and'
p1681
aS'P'
p1682
ag1639
aa(lp1683
S'4.3'
p1684
aS'P'
p1685
ag1654
aa(lp1686
S'V'
p1687
aS'P'
p1688
ag1635
aa(lp1689
S'(vs.'
p1690
aS'P'
p1691
ag1635
aa(lp1692
S'Li/Li+)'
p1693
aS'P'
p1694
ag1635
aa(lp1695
S'(or'
p1696
aS'N'
p1697
ag1635
aa(lp1698
S'between'
p1699
aS'P'
p1700
ag1676
aa(lp1701
S'2.8'
p1702
aS'P'
p1703
ag1654
aa(lp1704
S'and'
p1705
aS'P'
p1706
ag1639
aa(lp1707
S'4.5'
p1708
aS'P'
p1709
aS'CD'
p1710
aa(lp1711
S'V'
p1712
aS'P'
p1713
ag1635
aa(lp1714
S'for'
p1715
aS'N'
p1716
aS'IN'
p1717
aa(lp1718
S'overcharge'
p1719
aS'N'
p1720
ag1621
aa(lp1721
S'behaviors'
p1722
aS'N'
p1723
aS'NNS'
p1724
aa(lp1725
S'study)'
p1726
aS'N'
p1727
aS'VBP'
p1728
aa(lp1729
S'at'
p1730
aS'N'
p1731
aS'IN'
p1732
aa(lp1733
S'a'
p1734
aS'N'
p1735
aS'DT'
p1736
aa(lp1737
S'desired'
p1738
aS'P'
p1739
ag1617
aa(lp1740
S'current'
p1741
aS'P'
p1742
aS'JJ'
p1743
aa(lp1744
S'density'
p1745
aS'P'
p1746
ag1621
aa(lp1747
S'.'
p1748
aS'N'
p1749
aS'.'
p1750
aa(lp1751
g46
ag4
ag4
aa(lp1752
g48
ag4
ag4
aaa.