(lp0
(lp1
(lp2
S'***START***'
p3
aS'None'
p4
ag4
aa(lp5
S'***START2***'
p6
ag4
ag4
aa(lp7
S'Li2S'
p8
aS'PR'
p9
aS'JJ'
p10
aa(lp11
S'particles'
p12
aS'PR'
p13
aS'NNS'
p14
aa(lp15
S'were'
p16
aS'A'
p17
aS'VBD'
p18
aa(lp19
S'purchased'
p20
aS'A'
p21
aS'VBN'
p22
aa(lp23
S'from'
p24
aS'N'
p25
aS'IN'
p26
aa(lp27
S'Alfa'
p28
aS'E'
p29
aS'NNP'
p30
aa(lp31
S'Aesar'
p32
aS'E'
p33
ag30
aa(lp34
S'.'
p35
aS'N'
p36
aS'.'
p37
aa(lp38
S'***END***'
p39
ag4
ag4
aa(lp40
S'***END2***'
p41
ag4
ag4
aaa(lp42
(lp43
g3
ag4
ag4
aa(lp44
g6
ag4
ag4
aa(lp45
S'Sample'
p46
aS'N'
p47
aS'NN'
p48
aa(lp49
S'without'
p50
aS'N'
p51
aS'IN'
p52
aa(lp53
S'further'
p54
aS'N'
p55
aS'JJ'
p56
aa(lp57
S'modification'
p58
aS'N'
p59
ag48
aa(lp60
S'is'
p61
aS'N'
p62
aS'VBZ'
p63
aa(lp64
S'denoted'
p65
aS'N'
p66
aS'VBN'
p67
aa(lp68
S'as'
p69
aS'N'
p70
aS'IN'
p71
aa(lp72
S'pristine'
p73
aS'N'
p74
ag48
aa(lp75
S'.'
p76
aS'N'
p77
aS'.'
p78
aa(lp79
g39
ag4
ag4
aa(lp80
g41
ag4
ag4
aaa(lp81
(lp82
g3
ag4
ag4
aa(lp83
g6
ag4
ag4
aa(lp84
S'Ball-milled'
p85
aS'PR'
p86
aS'JJ'
p87
aa(lp88
S'Li2S'
p89
aS'PR'
p90
aS'NNP'
p91
aa(lp92
S'particles'
p93
aS'PR'
p94
aS'NNS'
p95
aa(lp96
S'were'
p97
aS'A'
p98
aS'VBD'
p99
aa(lp100
S'prepared'
p101
aS'A'
p102
aS'VBN'
p103
aa(lp104
S'by'
p105
aS'N'
p106
aS'IN'
p107
aa(lp108
S'mixing'
p109
aS'P'
p110
aS'VBG'
p111
aa(lp112
S'pristine'
p113
aS'I'
p114
aS'NN'
p115
aa(lp116
S'Li2S'
p117
aS'I'
p118
ag91
aa(lp119
S'and'
p120
aS'N'
p121
aS'CC'
p122
aa(lp123
S'Al2O3'
p124
aS'I'
p125
ag91
aa(lp126
S'(Sigma'
p127
aS'N'
p128
ag91
aa(lp129
S'Aldrich)'
p130
aS'N'
p131
ag91
aa(lp132
S'with'
p133
aS'N'
p134
aS'IN'
p135
aa(lp136
S'a'
p137
aS'N'
p138
aS'DT'
p139
aa(lp140
S'weight'
p141
aS'P'
p142
ag115
aa(lp143
S'ratio'
p144
aS'P'
p145
ag115
aa(lp146
S'of'
p147
aS'P'
p148
aS'IN'
p149
aa(lp150
S'95:5'
p151
aS'P'
p152
aS'CD'
p153
aa(lp154
S'and'
p155
aS'N'
p156
ag122
aa(lp157
S'ball'
p158
aS'A'
p159
aS'VB'
p160
aa(lp161
S'milled'
p162
aS'A'
p163
ag103
aa(lp164
S'for'
p165
aS'N'
p166
aS'IN'
p167
aa(lp168
S'6'
p169
aS'P'
p170
aS'CD'
p171
aa(lp172
S'h'
p173
aS'P'
p174
ag115
aa(lp175
S'(SPEX'
p176
aS'E'
p177
aS'$'
p178
aa(lp179
S'8000D'
p180
aS'E'
p181
ag153
aa(lp182
S'miller)'
p183
aS'E'
p184
ag115
aa(lp185
S'.'
p186
aS'N'
p187
aS'.'
p188
aa(lp189
g39
ag4
ag4
aa(lp190
g41
ag4
ag4
aaa(lp191
(lp192
g3
ag4
ag4
aa(lp193
g6
ag4
ag4
aa(lp194
S'Lithium'
p195
aS'PR'
p196
aS'NN'
p197
aa(lp198
S'nitrate'
p199
aS'PR'
p200
ag197
aa(lp201
S'was'
p202
aS'A'
p203
aS'VBD'
p204
aa(lp205
S'also'
p206
aS'N'
p207
aS'RB'
p208
aa(lp209
S'purchased'
p210
aS'A'
p211
aS'VBN'
p212
aa(lp213
S'from'
p214
aS'N'
p215
aS'IN'
p216
aa(lp217
S'Sigma'
p218
aS'E'
p219
aS'NNP'
p220
aa(lp221
S'Aldrich'
p222
aS'E'
p223
ag220
aa(lp224
S'.'
p225
aS'N'
p226
aS'.'
p227
aa(lp228
g39
ag4
ag4
aa(lp229
g41
ag4
ag4
aaa(lp230
(lp231
g3
ag4
ag4
aa(lp232
g6
ag4
ag4
aa(lp233
S'Polysulfide'
p234
aS'PR'
p235
aS'NNP'
p236
aa(lp237
S'solution'
p238
aS'PR'
p239
aS'NN'
p240
aa(lp241
S'was'
p242
aS'A'
p243
aS'VBD'
p244
aa(lp245
S'prepared'
p246
aS'A'
p247
aS'VBN'
p248
aa(lp249
S'by'
p250
aS'N'
p251
aS'IN'
p252
aa(lp253
S'stirring'
p254
aS'P'
p255
aS'VBG'
p256
aa(lp257
S'pristine'
p258
aS'I'
p259
ag240
aa(lp260
S'Li2S'
p261
aS'I'
p262
ag236
aa(lp263
S'and'
p264
aS'N'
p265
aS'CC'
p266
aa(lp267
S'sulfur'
p268
aS'I'
p269
ag240
aa(lp270
S'in'
p271
aS'N'
p272
aS'IN'
p273
aa(lp274
S'1,3-'
p275
aS'I'
p276
aS'JJ'
p277
aa(lp278
S'dioxolane'
p279
aS'I'
p280
ag240
aa(lp281
S'overnight'
p282
aS'P'
p283
ag244
aa(lp284
S'at'
p285
aS'N'
p286
aS'IN'
p287
aa(lp288
S'60'
p289
aS'P'
p290
aS'CD'
p291
aa(lp292
S'C'
p293
aS'P'
p294
ag236
aa(lp295
S'.'
p296
aS'N'
p297
aS'.'
p298
aa(lp299
g39
ag4
ag4
aa(lp300
g41
ag4
ag4
aaa(lp301
(lp302
g3
ag4
ag4
aa(lp303
g6
ag4
ag4
aa(lp304
S'The'
p305
aS'N'
p306
aS'DT'
p307
aa(lp308
S'as-synthesized'
p309
aS'N'
p310
aS'JJ'
p311
aa(lp312
S'solution'
p313
aS'N'
p314
aS'NN'
p315
aa(lp316
S'has'
p317
aS'N'
p318
aS'VBZ'
p319
aa(lp320
S'a'
p321
aS'N'
p322
aS'DT'
p323
aa(lp324
S'nominal'
p325
aS'N'
p326
ag311
aa(lp327
S'molecular'
p328
aS'N'
p329
ag311
aa(lp330
S'formula'
p331
aS'N'
p332
ag315
aa(lp333
S'of'
p334
aS'N'
p335
aS'IN'
p336
aa(lp337
S'Li2S8'
p338
aS'N'
p339
aS'NNP'
p340
aa(lp341
S','
p342
aS'N'
p343
aS','
p344
aa(lp345
S'and'
p346
aS'N'
p347
aS'CC'
p348
aa(lp349
S'the'
p350
aS'N'
p351
aS'DT'
p352
aa(lp353
S'concentration'
p354
aS'N'
p355
ag315
aa(lp356
S'of'
p357
aS'N'
p358
ag336
aa(lp359
S'sulfur'
p360
aS'N'
p361
ag315
aa(lp362
S'is'
p363
aS'N'
p364
aS'VBZ'
p365
aa(lp366
S'0.2'
p367
aS'N'
p368
aS'CD'
p369
aa(lp370
S'M'
p371
aS'N'
p372
ag340
aa(lp373
S'.'
p374
aS'N'
p375
aS'.'
p376
aa(lp377
g39
ag4
ag4
aa(lp378
g41
ag4
ag4
aaa(lp379
(lp380
g3
ag4
ag4
aa(lp381
g6
ag4
ag4
aa(lp382
S'To'
p383
aS'N'
p384
aS'TO'
p385
aa(lp386
S'form'
p387
aS'N'
p388
aS'VB'
p389
aa(lp390
S'electrode'
p391
aS'PR'
p392
aS'NN'
p393
aa(lp394
S'for'
p395
aS'N'
p396
aS'IN'
p397
aa(lp398
S'electrochemical'
p399
aS'N'
p400
aS'JJ'
p401
aa(lp402
S'testing'
p403
aS'N'
p404
ag393
aa(lp405
S','
p406
aS'N'
p407
aS','
p408
aa(lp409
S'Li2S'
p410
aS'I'
p411
aS'NNP'
p412
aa(lp413
S'particles'
p414
aS'I'
p415
aS'VBZ'
p416
aa(lp417
S','
p418
aS'N'
p419
ag408
aa(lp420
S'Super'
p421
aS'I'
p422
ag412
aa(lp423
S'P'
p424
aS'I'
p425
ag412
aa(lp426
S'carbon'
p427
aS'I'
p428
ag393
aa(lp429
S'black'
p430
aS'I'
p431
aS'JJ'
p432
aa(lp433
S','
p434
aS'N'
p435
ag408
aa(lp436
S'and'
p437
aS'N'
p438
aS'CC'
p439
aa(lp440
S'polyvinylidene'
p441
aS'I'
p442
ag401
aa(lp443
S'fluoride'
p444
aS'I'
p445
ag393
aa(lp446
S'(Kynar)'
p447
aS'N'
p448
ag393
aa(lp449
S'were'
p450
aS'A'
p451
aS'VBD'
p452
aa(lp453
S'ground'
p454
aS'A'
p455
aS'VBN'
p456
aa(lp457
S'together'
p458
aS'N'
p459
aS'RB'
p460
aa(lp461
S'at'
p462
aS'N'
p463
aS'IN'
p464
aa(lp465
S'a'
p466
aS'N'
p467
aS'DT'
p468
aa(lp469
S'weight'
p470
aS'P'
p471
ag393
aa(lp472
S'ratio'
p473
aS'P'
p474
ag393
aa(lp475
S'of'
p476
aS'P'
p477
aS'IN'
p478
aa(lp479
S'40:45:15'
p480
aS'P'
p481
aS'CD'
p482
aa(lp483
S'in'
p484
aS'N'
p485
aS'IN'
p486
aa(lp487
S'a'
p488
aS'N'
p489
ag468
aa(lp490
S'mortar'
p491
aS'E'
p492
ag393
aa(lp493
S'for'
p494
aS'N'
p495
ag397
aa(lp496
S'10'
p497
aS'P'
p498
aS'CD'
p499
aa(lp500
S'min'
p501
aS'P'
p502
aS'NNS'
p503
aa(lp504
S'and'
p505
aS'N'
p506
ag439
aa(lp507
S'then'
p508
aS'N'
p509
aS'RB'
p510
aa(lp511
S'stirred'
p512
aS'A'
p513
aS'VBD'
p514
aa(lp515
S'in'
p516
aS'N'
p517
ag486
aa(lp518
S'N-methyl-2-pyrrolidone'
p519
aS'I'
p520
ag412
aa(lp521
S'(NMP)'
p522
aS'I'
p523
ag412
aa(lp524
S'for'
p525
aS'N'
p526
ag397
aa(lp527
S'12'
p528
aS'P'
p529
aS'CD'
p530
aa(lp531
S'h'
p532
aS'P'
p533
ag503
aa(lp534
S'so'
p535
aS'N'
p536
ag460
aa(lp537
S'that'
p538
aS'N'
p539
aS'IN'
p540
aa(lp541
S'the'
p542
aS'N'
p543
aS'DT'
p544
aa(lp545
S'content'
p546
aS'N'
p547
ag393
aa(lp548
S'of'
p549
aS'N'
p550
ag478
aa(lp551
S'Li2S'
p552
aS'N'
p553
ag412
aa(lp554
S'in'
p555
aS'N'
p556
ag486
aa(lp557
S'pristine'
p558
aS'N'
p559
ag393
aa(lp560
S'and'
p561
aS'N'
p562
ag439
aa(lp563
S'ball-milled'
p564
aS'N'
p565
ag401
aa(lp566
S'samples'
p567
aS'N'
p568
ag503
aa(lp569
S'is'
p570
aS'N'
p571
aS'VBZ'
p572
aa(lp573
S'40%'
p574
aS'N'
p575
ag482
aa(lp576
S'and'
p577
aS'N'
p578
ag439
aa(lp579
S'38%'
p580
aS'N'
p581
ag482
aa(lp582
S'in'
p583
aS'N'
p584
ag486
aa(lp585
S'weight'
p586
aS'N'
p587
ag393
aa(lp588
S','
p589
aS'N'
p590
ag408
aa(lp591
S'respectively'
p592
aS'N'
p593
ag460
aa(lp594
S'.'
p595
aS'N'
p596
aS'.'
p597
aa(lp598
g39
ag4
ag4
aa(lp599
g41
ag4
ag4
aaa(lp600
(lp601
g3
ag4
ag4
aa(lp602
g6
ag4
ag4
aa(lp603
S'Next'
p604
aS'N'
p605
aS'RB'
p606
aa(lp607
S','
p608
aS'N'
p609
aS','
p610
aa(lp611
S'the'
p612
aS'N'
p613
aS'DT'
p614
aa(lp615
S'slurry'
p616
aS'R'
p617
aS'NN'
p618
aa(lp619
S'was'
p620
aS'A'
p621
aS'VBD'
p622
aa(lp623
S'drop'
p624
aS'A'
p625
aS'JJ'
p626
aa(lp627
S'cast'
p628
aS'A'
p629
ag618
aa(lp630
S'onto'
p631
aS'N'
p632
aS'IN'
p633
aa(lp634
S'carbon'
p635
aS'I'
p636
ag618
aa(lp637
S'paper'
p638
aS'I'
p639
aS'NN'
p640
aa(lp641
S'(AvCarb'
p642
aS'N'
p643
aS'NNP'
p644
aa(lp645
S'P50T)'
p646
aS'N'
p647
ag644
aa(lp648
S'and'
p649
aS'N'
p650
aS'CC'
p651
aa(lp652
S'heated'
p653
aS'A'
p654
aS'VBN'
p655
aa(lp656
S'at'
p657
aS'N'
p658
aS'IN'
p659
aa(lp660
S'110'
p661
aS'P'
p662
aS'CD'
p663
aa(lp664
S'C'
p665
aS'P'
p666
ag644
aa(lp667
S'for'
p668
aS'N'
p669
aS'IN'
p670
aa(lp671
S'1'
p672
aS'P'
p673
aS'CD'
p674
aa(lp675
S'h'
p676
aS'P'
p677
aS'NNS'
p678
aa(lp679
S'inside'
p680
aS'N'
p681
ag633
aa(lp682
S'a'
p683
aS'N'
p684
aS'DT'
p685
aa(lp686
S'glovebox'
p687
aS'N'
p688
ag618
aa(lp689
S'.'
p690
aS'N'
p691
aS'.'
p692
aa(lp693
g39
ag4
ag4
aa(lp694
g41
ag4
ag4
aaa(lp695
(lp696
g3
ag4
ag4
aa(lp697
g6
ag4
ag4
aa(lp698
S'The'
p699
aS'N'
p700
aS'DT'
p701
aa(lp702
S'mass'
p703
aS'N'
p704
aS'NN'
p705
aa(lp706
S'loading'
p707
aS'N'
p708
ag705
aa(lp709
S'of'
p710
aS'N'
p711
aS'IN'
p712
aa(lp713
S'the'
p714
aS'N'
p715
aS'DT'
p716
aa(lp717
S'electrode'
p718
aS'R'
p719
ag705
aa(lp720
S'is'
p721
aS'N'
p722
aS'VBZ'
p723
aa(lp724
S'11.5'
p725
aS'P'
p726
aS'CD'
p727
aa(lp728
S'mg'
p729
aS'P'
p730
ag705
aa(lp731
S'Li2S/cm2'
p732
aS'P'
p733
aS'NNP'
p734
aa(lp735
S'.'
p736
aS'N'
p737
aS'.'
p738
aa(lp739
g39
ag4
ag4
aa(lp740
g41
ag4
ag4
aaa(lp741
(lp742
g3
ag4
ag4
aa(lp743
g6
ag4
ag4
aa(lp744
S'2032-type'
p745
aS'E'
p746
aS'JJ'
p747
aa(lp748
S'coin'
p749
aS'E'
p750
aS'NN'
p751
aa(lp752
S'cells'
p753
aS'E'
p754
aS'NNS'
p755
aa(lp756
S'(MTI'
p757
aS'N'
p758
ag747
aa(lp759
S'Corp.)'
p760
aS'N'
p761
aS'NNP'
p762
aa(lp763
S'were'
p764
aS'A'
p765
aS'VBD'
p766
aa(lp767
S'used'
p768
aS'A'
p769
aS'VBN'
p770
aa(lp771
S'for'
p772
aS'N'
p773
aS'IN'
p774
aa(lp775
S'two-electrode'
p776
aS'E'
p777
ag747
aa(lp778
S'testing'
p779
aS'E'
p780
aS'VBG'
p781
aa(lp782
S'with'
p783
aS'N'
p784
aS'IN'
p785
aa(lp786
S'lithium'
p787
aS'I'
p788
ag751
aa(lp789
S'metal'
p790
aS'I'
p791
ag751
aa(lp792
S'as'
p793
aS'N'
p794
aS'IN'
p795
aa(lp796
S'the'
p797
aS'N'
p798
aS'DT'
p799
aa(lp800
S'counter'
p801
aS'N'
p802
ag751
aa(lp803
S'electrode'
p804
aS'N'
p805
ag751
aa(lp806
S'.'
p807
aS'N'
p808
aS'.'
p809
aa(lp810
g39
ag4
ag4
aa(lp811
g41
ag4
ag4
aaa(lp812
(lp813
g3
ag4
ag4
aa(lp814
g6
ag4
ag4
aa(lp815
S'Cyclic'
p816
aS'E'
p817
aS'JJ'
p818
aa(lp819
S'voltammetry'
p820
aS'E'
p821
aS'NN'
p822
aa(lp823
S'and'
p824
aS'N'
p825
aS'CC'
p826
aa(lp827
S'impedance'
p828
aS'E'
p829
ag822
aa(lp830
S'measurements'
p831
aS'E'
p832
aS'NNS'
p833
aa(lp834
S'were'
p835
aS'A'
p836
aS'VBD'
p837
aa(lp838
S'performed'
p839
aS'A'
p840
aS'VBN'
p841
aa(lp842
S'under'
p843
aS'N'
p844
aS'IN'
p845
aa(lp846
S'a'
p847
aS'N'
p848
aS'DT'
p849
aa(lp850
S'three-electrode'
p851
aS'E'
p852
ag818
aa(lp853
S'configuration'
p854
aS'E'
p855
ag822
aa(lp856
S'in'
p857
aS'N'
p858
aS'IN'
p859
aa(lp860
S'pouch'
p861
aS'E'
p862
ag818
aa(lp863
S'cells'
p864
aS'E'
p865
aS'NNS'
p866
aa(lp867
S'.'
p868
aS'N'
p869
aS'.'
p870
aa(lp871
g39
ag4
ag4
aa(lp872
g41
ag4
ag4
aaa(lp873
(lp874
g3
ag4
ag4
aa(lp875
g6
ag4
ag4
aa(lp876
S'A'
p877
aS'N'
p878
aS'DT'
p879
aa(lp880
S'small'
p881
aS'N'
p882
aS'JJ'
p883
aa(lp884
S'piece'
p885
aS'N'
p886
aS'NN'
p887
aa(lp888
S'of'
p889
aS'N'
p890
aS'IN'
p891
aa(lp892
S'lithium'
p893
aS'I'
p894
ag887
aa(lp895
S'was'
p896
aS'A'
p897
aS'VBD'
p898
aa(lp899
S'used'
p900
aS'A'
p901
aS'VBN'
p902
aa(lp903
S'as'
p904
aS'N'
p905
aS'IN'
p906
aa(lp907
S'reference'
p908
aS'N'
p909
ag887
aa(lp910
S'electrode'
p911
aS'N'
p912
ag887
aa(lp913
S'and'
p914
aS'N'
p915
aS'CC'
p916
aa(lp917
S'placed'
p918
aS'N'
p919
ag898
aa(lp920
S'between'
p921
aS'N'
p922
aS'IN'
p923
aa(lp924
S'Li2S'
p925
aS'I'
p926
aS'NNP'
p927
aa(lp928
S'and'
p929
aS'N'
p930
ag916
aa(lp931
S'lithium'
p932
aS'I'
p933
ag887
aa(lp934
S'electrodes'
p935
aS'I'
p936
aS'NNS'
p937
aa(lp938
S'.'
p939
aS'N'
p940
aS'.'
p941
aa(lp942
g39
ag4
ag4
aa(lp943
g41
ag4
ag4
aaa(lp944
(lp945
g3
ag4
ag4
aa(lp946
g6
ag4
ag4
aa(lp947
S'All'
p948
aS'N'
p949
aS'DT'
p950
aa(lp951
S'electrodes'
p952
aS'R'
p953
aS'NNS'
p954
aa(lp955
S'are'
p956
aS'A'
p957
aS'VBP'
p958
aa(lp959
S'separated'
p960
aS'A'
p961
aS'VBN'
p962
aa(lp963
S'by'
p964
aS'N'
p965
aS'IN'
p966
aa(lp967
S'polymer'
p968
aS'I'
p969
aS'NN'
p970
aa(lp971
S'separators'
p972
aS'I'
p973
ag954
aa(lp974
S'.'
p975
aS'N'
p976
aS'.'
p977
aa(lp978
g39
ag4
ag4
aa(lp979
g41
ag4
ag4
aaa(lp980
(lp981
g3
ag4
ag4
aa(lp982
g6
ag4
ag4
aa(lp983
S'Electrolyte'
p984
aS'R'
p985
aS'NNP'
p986
aa(lp987
S'is'
p988
aS'A'
p989
aS'VBZ'
p990
aa(lp991
S'1.0'
p992
aS'P'
p993
aS'CD'
p994
aa(lp995
S'M'
p996
aS'P'
p997
ag986
aa(lp998
S'lithium'
p999
aS'I'
p1000
aS'NN'
p1001
aa(lp1002
S'bis(trifluoromethanesulfonyl)imide'
p1003
aS'I'
p1004
ag1001
aa(lp1005
S'(LiTFSI'
p1006
aS'I'
p1007
ag986
aa(lp1008
S','
p1009
aS'N'
p1010
aS','
p1011
aa(lp1012
S'Sigma'
p1013
aS'N'
p1014
ag986
aa(lp1015
S'Aldrich)'
p1016
aS'N'
p1017
ag986
aa(lp1018
S'in'
p1019
aS'N'
p1020
aS'IN'
p1021
aa(lp1022
S'1,3-dioxolane'
p1023
aS'I'
p1024
aS'JJ'
p1025
aa(lp1026
S'and'
p1027
aS'N'
p1028
aS'CC'
p1029
aa(lp1030
S'1,2-dimethoxyethane'
p1031
aS'I'
p1032
ag1025
aa(lp1033
S'(v:v'
p1034
aS'P'
p1035
ag986
aa(lp1036
S'='
p1037
aS'P'
p1038
ag986
aa(lp1039
S'1:1)'
p1040
aS'P'
p1041
ag994
aa(lp1042
S'.'
p1043
aS'N'
p1044
aS'.'
p1045
aa(lp1046
g39
ag4
ag4
aa(lp1047
g41
ag4
ag4
aaa(lp1048
(lp1049
g3
ag4
ag4
aa(lp1050
g6
ag4
ag4
aa(lp1051
S'Electrode'
p1052
aS'E'
p1053
aS'NNP'
p1054
aa(lp1055
S'preparation'
p1056
aS'E'
p1057
aS'NN'
p1058
aa(lp1059
S'and'
p1060
aS'N'
p1061
aS'CC'
p1062
aa(lp1063
S'cell'
p1064
aS'E'
p1065
ag1058
aa(lp1066
S'assembly'
p1067
aS'E'
p1068
aS'RB'
p1069
aa(lp1070
S'were'
p1071
aS'A'
p1072
aS'VBD'
p1073
aa(lp1074
S'done'
p1075
aS'A'
p1076
aS'VBN'
p1077
aa(lp1078
S'in'
p1079
aS'N'
p1080
aS'IN'
p1081
aa(lp1082
S'a'
p1083
aS'N'
p1084
aS'DT'
p1085
aa(lp1086
S'glovebox'
p1087
aS'E'
p1088
ag1058
aa(lp1089
S'with'
p1090
aS'N'
p1091
aS'IN'
p1092
aa(lp1093
S'O2'
p1094
aS'P'
p1095
ag1054
aa(lp1096
S'and'
p1097
aS'P'
p1098
ag1062
aa(lp1099
S'H2O'
p1100
aS'P'
p1101
ag1054
aa(lp1102
S'less'
p1103
aS'P'
p1104
aS'JJR'
p1105
aa(lp1106
S'than'
p1107
aS'P'
p1108
aS'IN'
p1109
aa(lp1110
S'2'
p1111
aS'P'
p1112
aS'CD'
p1113
aa(lp1114
S'and'
p1115
aS'P'
p1116
ag1062
aa(lp1117
S'0.1'
p1118
aS'P'
p1119
aS'CD'
p1120
aa(lp1121
S'ppm'
p1122
aS'P'
p1123
ag1058
aa(lp1124
S','
p1125
aS'N'
p1126
aS','
p1127
aa(lp1128
S'respectively'
p1129
aS'N'
p1130
ag1069
aa(lp1131
S'.'
p1132
aS'N'
p1133
aS'.'
p1134
aa(lp1135
g39
ag4
ag4
aa(lp1136
g41
ag4
ag4
aaa(lp1137
(lp1138
g3
ag4
ag4
aa(lp1139
g6
ag4
ag4
aa(lp1140
S'All'
p1141
aS'N'
p1142
aS'DT'
p1143
aa(lp1144
S'C'
p1145
aS'E'
p1146
aS'NNP'
p1147
aa(lp1148
S'rates'
p1149
aS'E'
p1150
aS'NNS'
p1151
aa(lp1152
S'are'
p1153
aS'A'
p1154
aS'VBP'
p1155
aa(lp1156
S'based'
p1157
aS'A'
p1158
aS'VBN'
p1159
aa(lp1160
S'on'
p1161
aS'N'
p1162
aS'IN'
p1163
aa(lp1164
S'the'
p1165
aS'N'
p1166
aS'DT'
p1167
aa(lp1168
S'theoretical'
p1169
aS'P'
p1170
aS'JJ'
p1171
aa(lp1172
S'capacity'
p1173
aS'P'
p1174
aS'NN'
p1175
aa(lp1176
S'of'
p1177
aS'P'
p1178
aS'IN'
p1179
aa(lp1180
S'Li2S'
p1181
aS'P'
p1182
ag1147
aa(lp1183
S'(1C'
p1184
aS'P'
p1185
ag1147
aa(lp1186
S'='
p1187
aS'P'
p1188
ag1147
aa(lp1189
S'1166'
p1190
aS'P'
p1191
aS'CD'
p1192
aa(lp1193
S'mA/g)'
p1194
aS'P'
p1195
aS'NN'
p1196
aa(lp1197
S'.'
p1198
aS'N'
p1199
aS'.'
p1200
aa(lp1201
g39
ag4
ag4
aa(lp1202
g41
ag4
ag4
aaa(lp1203
(lp1204
g3
ag4
ag4
aa(lp1205
g6
ag4
ag4
aa(lp1206
S'The'
p1207
aS'N'
p1208
aS'DT'
p1209
aa(lp1210
S'frequency'
p1211
aS'P'
p1212
aS'NN'
p1213
aa(lp1214
S'range'
p1215
aS'P'
p1216
ag1213
aa(lp1217
S'for'
p1218
aS'N'
p1219
aS'IN'
p1220
aa(lp1221
S'the'
p1222
aS'N'
p1223
aS'DT'
p1224
aa(lp1225
S'impedance'
p1226
aS'E'
p1227
ag1213
aa(lp1228
S'measurement'
p1229
aS'E'
p1230
ag1213
aa(lp1231
S'is'
p1232
aS'A'
p1233
aS'VBZ'
p1234
aa(lp1235
S'from'
p1236
aS'P'
p1237
aS'IN'
p1238
aa(lp1239
S'200'
p1240
aS'P'
p1241
aS'CD'
p1242
aa(lp1243
S'kHz'
p1244
aS'P'
p1245
aS'NNS'
p1246
aa(lp1247
S'to'
p1248
aS'P'
p1249
aS'TO'
p1250
aa(lp1251
S'0.01'
p1252
aS'P'
p1253
aS'CD'
p1254
aa(lp1255
S'Hz'
p1256
aS'P'
p1257
aS'NNP'
p1258
aa(lp1259
S'.'
p1260
aS'N'
p1261
aS'.'
p1262
aa(lp1263
g39
ag4
ag4
aa(lp1264
g41
ag4
ag4
aaa(lp1265
(lp1266
g3
ag4
ag4
aa(lp1267
g6
ag4
ag4
aa(lp1268
S'In-situ'
p1269
aS'E'
p1270
aS'NNP'
p1271
aa(lp1272
S'synchrotron'
p1273
aS'E'
p1274
aS'NN'
p1275
aa(lp1276
S'diffraction'
p1277
aS'E'
p1278
ag1275
aa(lp1279
S'was'
p1280
aS'A'
p1281
aS'VBD'
p1282
aa(lp1283
S'performed'
p1284
aS'A'
p1285
aS'VBN'
p1286
aa(lp1287
S'at'
p1288
aS'N'
p1289
aS'IN'
p1290
aa(lp1291
S'Stanford'
p1292
aS'E'
p1293
ag1271
aa(lp1294
S'Synchrotron'
p1295
aS'E'
p1296
ag1271
aa(lp1297
S'Radiation'
p1298
aS'E'
p1299
ag1271
aa(lp1300
S'Lightsource'
p1301
aS'E'
p1302
ag1271
aa(lp1303
S'beamline'
p1304
aS'E'
p1305
ag1282
aa(lp1306
S'11-3'
p1307
aS'E'
p1308
aS'JJ'
p1309
aa(lp1310
S'with'
p1311
aS'N'
p1312
aS'IN'
p1313
aa(lp1314
S'an'
p1315
aS'P'
p1316
aS'DT'
p1317
aa(lp1318
S'X-ray'
p1319
aS'P'
p1320
ag1309
aa(lp1321
S'energy'
p1322
aS'P'
p1323
aS'NN'
p1324
aa(lp1325
S'of'
p1326
aS'P'
p1327
aS'IN'
p1328
aa(lp1329
S'12.74'
p1330
aS'P'
p1331
aS'CD'
p1332
aa(lp1333
S'keV'
p1334
aS'P'
p1335
aS'NNS'
p1336
aa(lp1337
S'.'
p1338
aS'N'
p1339
aS'.'
p1340
aa(lp1341
g39
ag4
ag4
aa(lp1342
g41
ag4
ag4
aaa(lp1343
(lp1344
g3
ag4
ag4
aa(lp1345
g6
ag4
ag4
aa(lp1346
S'Experimental'
p1347
aS'N'
p1348
aS'JJ'
p1349
aa(lp1350
S'details'
p1351
aS'N'
p1352
aS'NNS'
p1353
aa(lp1354
S'were'
p1355
aS'N'
p1356
aS'VBD'
p1357
aa(lp1358
S'described'
p1359
aS'N'
p1360
aS'VBN'
p1361
aa(lp1362
S'in'
p1363
aS'N'
p1364
aS'IN'
p1365
aa(lp1366
S'our'
p1367
aS'N'
p1368
aS'PRP$'
p1369
aa(lp1370
S'previous'
p1371
aS'N'
p1372
aS'JJ'
p1373
aa(lp1374
S'work'
p1375
aS'N'
p1376
aS'NN'
p1377
aa(lp1378
S'.'
p1379
aS'N'
p1380
aS'.'
p1381
aa(lp1382
g39
ag4
ag4
aa(lp1383
g41
ag4
ag4
aaa(lp1384
(lp1385
g3
ag4
ag4
aa(lp1386
g6
ag4
ag4
aa(lp1387
S'COMSOL'
p1388
aS'E'
p1389
aS'NNP'
p1390
aa(lp1391
S'3.4'
p1392
aS'E'
p1393
aS'CD'
p1394
aa(lp1395
S'was'
p1396
aS'A'
p1397
aS'VBD'
p1398
aa(lp1399
S'used'
p1400
aS'A'
p1401
aS'VBN'
p1402
aa(lp1403
S'for'
p1404
aS'N'
p1405
aS'IN'
p1406
aa(lp1407
S'simulation'
p1408
aS'N'
p1409
aS'NN'
p1410
aa(lp1411
S'.'
p1412
aS'N'
p1413
aS'.'
p1414
aa(lp1415
g39
ag4
ag4
aa(lp1416
g41
ag4
ag4
aaa.