(lp0
(lp1
(lp2
S'***START***'
p3
aS'None'
p4
ag4
aa(lp5
S'***START2***'
p6
ag4
ag4
aa(lp7
S'Li2S'
p8
aS'PR'
p9
aS'JJ'
p10
aa(lp11
S'particles'
p12
aS'PR'
p13
aS'NNS'
p14
aa(lp15
S'were'
p16
aS'A'
p17
aS'VBD'
p18
aa(lp19
S'purchased'
p20
aS'A'
p21
aS'VBN'
p22
aa(lp23
S'from'
p24
aS'N'
p25
aS'IN'
p26
aa(lp27
S'Alfa'
p28
aS'E'
p29
aS'NNP'
p30
aa(lp31
S'Aesar'
p32
aS'E'
p33
ag30
aa(lp34
S'.'
p35
aS'N'
p36
aS'.'
p37
aa(lp38
S'***END***'
p39
ag4
ag4
aa(lp40
S'***END2***'
p41
ag4
ag4
aaa(lp42
(lp43
g3
ag4
ag4
aa(lp44
g6
ag4
ag4
aa(lp45
S'Sample'
p46
aS'N'
p47
aS'NN'
p48
aa(lp49
S'without'
p50
aS'N'
p51
aS'IN'
p52
aa(lp53
S'further'
p54
aS'N'
p55
aS'JJ'
p56
aa(lp57
S'modification'
p58
aS'N'
p59
ag48
aa(lp60
S'is'
p61
aS'N'
p62
aS'VBZ'
p63
aa(lp64
S'denoted'
p65
aS'N'
p66
aS'VBN'
p67
aa(lp68
S'as'
p69
aS'N'
p70
aS'IN'
p71
aa(lp72
S'pristine'
p73
aS'N'
p74
ag48
aa(lp75
S'.'
p76
aS'N'
p77
aS'.'
p78
aa(lp79
g39
ag4
ag4
aa(lp80
g41
ag4
ag4
aaa(lp81
(lp82
g3
ag4
ag4
aa(lp83
g6
ag4
ag4
aa(lp84
S'Ball-milled'
p85
aS'PR'
p86
aS'JJ'
p87
aa(lp88
S'Li2S'
p89
aS'PR'
p90
aS'NNP'
p91
aa(lp92
S'particles'
p93
aS'PR'
p94
aS'NNS'
p95
aa(lp96
S'were'
p97
aS'A'
p98
aS'VBD'
p99
aa(lp100
S'prepared'
p101
aS'A'
p102
aS'VBN'
p103
aa(lp104
S'by'
p105
aS'N'
p106
aS'IN'
p107
aa(lp108
S'mixing'
p109
aS'P'
p110
aS'VBG'
p111
aa(lp112
S'pristine'
p113
aS'I'
p114
aS'NN'
p115
aa(lp116
S'Li2S'
p117
aS'I'
p118
ag91
aa(lp119
S'and'
p120
aS'N'
p121
aS'CC'
p122
aa(lp123
S'Al2O3'
p124
aS'I'
p125
ag91
aa(lp126
S'(Sigma'
p127
aS'N'
p128
ag91
aa(lp129
S'Aldrich)'
p130
aS'N'
p131
ag91
aa(lp132
S'with'
p133
aS'N'
p134
aS'IN'
p135
aa(lp136
S'a'
p137
aS'N'
p138
aS'DT'
p139
aa(lp140
S'weight'
p141
aS'P'
p142
ag115
aa(lp143
S'ratio'
p144
aS'P'
p145
ag115
aa(lp146
S'of'
p147
aS'P'
p148
aS'IN'
p149
aa(lp150
S'95:5'
p151
aS'P'
p152
aS'CD'
p153
aa(lp154
S'and'
p155
aS'N'
p156
ag122
aa(lp157
S'ball'
p158
aS'A'
p159
aS'VB'
p160
aa(lp161
S'milled'
p162
aS'A'
p163
ag103
aa(lp164
S'for'
p165
aS'N'
p166
aS'IN'
p167
aa(lp168
S'6'
p169
aS'P'
p170
aS'CD'
p171
aa(lp172
S'h'
p173
aS'P'
p174
ag115
aa(lp175
S'(SPEX'
p176
aS'E'
p177
aS'$'
p178
aa(lp179
S'8000D'
p180
aS'E'
p181
ag153
aa(lp182
S'miller)'
p183
aS'E'
p184
ag115
aa(lp185
S'.'
p186
aS'N'
p187
aS'.'
p188
aa(lp189
g39
ag4
ag4
aa(lp190
g41
ag4
ag4
aaa(lp191
(lp192
g3
ag4
ag4
aa(lp193
g6
ag4
ag4
aa(lp194
S'Lithium'
p195
aS'PR'
p196
aS'NN'
p197
aa(lp198
S'nitrate'
p199
aS'PR'
p200
ag197
aa(lp201
S'was'
p202
aS'A'
p203
aS'VBD'
p204
aa(lp205
S'also'
p206
aS'N'
p207
aS'RB'
p208
aa(lp209
S'purchased'
p210
aS'A'
p211
aS'VBN'
p212
aa(lp213
S'from'
p214
aS'N'
p215
aS'IN'
p216
aa(lp217
S'Sigma'
p218
aS'E'
p219
aS'NNP'
p220
aa(lp221
S'Aldrich'
p222
aS'E'
p223
ag220
aa(lp224
S'.'
p225
aS'N'
p226
aS'.'
p227
aa(lp228
g39
ag4
ag4
aa(lp229
g41
ag4
ag4
aaa(lp230
(lp231
g3
ag4
ag4
aa(lp232
g6
ag4
ag4
aa(lp233
S'Polysulfide'
p234
aS'PR'
p235
aS'NNP'
p236
aa(lp237
S'solution'
p238
aS'PR'
p239
aS'NN'
p240
aa(lp241
S'was'
p242
aS'A'
p243
aS'VBD'
p244
aa(lp245
S'prepared'
p246
aS'A'
p247
aS'VBN'
p248
aa(lp249
S'by'
p250
aS'N'
p251
aS'IN'
p252
aa(lp253
S'stirring'
p254
aS'P'
p255
aS'VBG'
p256
aa(lp257
S'pristine'
p258
aS'I'
p259
ag240
aa(lp260
S'Li2S'
p261
aS'I'
p262
ag236
aa(lp263
S'and'
p264
aS'N'
p265
aS'CC'
p266
aa(lp267
S'sulfur'
p268
aS'I'
p269
ag240
aa(lp270
S'in'
p271
aS'N'
p272
aS'IN'
p273
aa(lp274
S'1,3-'
p275
aS'I'
p276
aS'JJ'
p277
aa(lp278
S'dioxolane'
p279
aS'I'
p280
ag240
aa(lp281
S'overnight'
p282
aS'P'
p283
ag244
aa(lp284
S'at'
p285
aS'N'
p286
aS'IN'
p287
aa(lp288
S'60'
p289
aS'P'
p290
aS'CD'
p291
aa(lp292
S'C'
p293
aS'P'
p294
ag236
aa(lp295
S'.'
p296
aS'N'
p297
aS'.'
p298
aa(lp299
S'The'
p300
aS'N'
p301
aS'DT'
p302
aa(lp303
S'as-synthesized'
p304
aS'N'
p305
ag277
aa(lp306
S'solution'
p307
aS'N'
p308
ag240
aa(lp309
S'has'
p310
aS'N'
p311
aS'VBZ'
p312
aa(lp313
S'a'
p314
aS'N'
p315
aS'DT'
p316
aa(lp317
S'nominal'
p318
aS'N'
p319
ag277
aa(lp320
S'molecular'
p321
aS'N'
p322
ag277
aa(lp323
S'formula'
p324
aS'N'
p325
ag240
aa(lp326
S'of'
p327
aS'N'
p328
aS'IN'
p329
aa(lp330
S'Li2S8'
p331
aS'N'
p332
ag236
aa(lp333
S'and'
p334
aS'N'
p335
ag266
aa(lp336
S'the'
p337
aS'N'
p338
aS'DT'
p339
aa(lp340
S'concentration'
p341
aS'N'
p342
ag240
aa(lp343
S'of'
p344
aS'N'
p345
ag329
aa(lp346
S'sulfur'
p347
aS'N'
p348
ag240
aa(lp349
S'is'
p350
aS'N'
p351
aS'VBZ'
p352
aa(lp353
S'0.2'
p354
aS'N'
p355
aS'CD'
p356
aa(lp357
S'M'
p358
aS'N'
p359
ag236
aa(lp360
S'.'
p361
aS'N'
p362
ag298
aa(lp363
g39
ag4
ag4
aa(lp364
g41
ag4
ag4
aaa(lp365
(lp366
g3
ag4
ag4
aa(lp367
g6
ag4
ag4
aa(lp368
S'To'
p369
aS'N'
p370
aS'TO'
p371
aa(lp372
S'form'
p373
aS'N'
p374
aS'VB'
p375
aa(lp376
S'electrodes'
p377
aS'PR'
p378
aS'NNS'
p379
aa(lp380
S'for'
p381
aS'N'
p382
aS'IN'
p383
aa(lp384
S'electrochemical'
p385
aS'N'
p386
aS'JJ'
p387
aa(lp388
S'testing'
p389
aS'N'
p390
aS'VBG'
p391
aa(lp392
S'Li2S'
p393
aS'I'
p394
aS'NNP'
p395
aa(lp396
S'particles'
p397
aS'I'
p398
ag379
aa(lp399
S','
p400
aS'N'
p401
aS','
p402
aa(lp403
S'Super'
p404
aS'I'
p405
ag395
aa(lp406
S'P'
p407
aS'I'
p408
ag395
aa(lp409
S'carbon'
p410
aS'I'
p411
aS'NN'
p412
aa(lp413
S'black'
p414
aS'I'
p415
aS'JJ'
p416
aa(lp417
S','
p418
aS'N'
p419
ag402
aa(lp420
S'and'
p421
aS'N'
p422
aS'CC'
p423
aa(lp424
S'polyvinylidene'
p425
aS'I'
p426
ag387
aa(lp427
S'fluoride'
p428
aS'I'
p429
ag412
aa(lp430
S'(Kynar)'
p431
aS'N'
p432
ag412
aa(lp433
S'were'
p434
aS'A'
p435
aS'VBD'
p436
aa(lp437
S'ground'
p438
aS'A'
p439
aS'VBN'
p440
aa(lp441
S'together'
p442
aS'N'
p443
aS'RB'
p444
aa(lp445
S'at'
p446
aS'N'
p447
aS'IN'
p448
aa(lp449
S'a'
p450
aS'N'
p451
aS'DT'
p452
aa(lp453
S'weight'
p454
aS'P'
p455
ag412
aa(lp456
S'ratio'
p457
aS'P'
p458
ag412
aa(lp459
S'of'
p460
aS'P'
p461
aS'IN'
p462
aa(lp463
S'40:45:15'
p464
aS'P'
p465
aS'CD'
p466
aa(lp467
S'in'
p468
aS'N'
p469
aS'IN'
p470
aa(lp471
S'a'
p472
aS'N'
p473
ag452
aa(lp474
S'mortar'
p475
aS'E'
p476
ag412
aa(lp477
S'for'
p478
aS'N'
p479
ag383
aa(lp480
S'10'
p481
aS'P'
p482
aS'CD'
p483
aa(lp484
S'min'
p485
aS'P'
p486
ag379
aa(lp487
S'and'
p488
aS'N'
p489
ag423
aa(lp490
S'then'
p491
aS'N'
p492
aS'RB'
p493
aa(lp494
S'stirred'
p495
aS'A'
p496
aS'VBD'
p497
aa(lp498
S'in'
p499
aS'N'
p500
ag470
aa(lp501
S'N-methyl-2-pyrrolidone'
p502
aS'I'
p503
ag395
aa(lp504
S'(NMP)'
p505
aS'I'
p506
ag395
aa(lp507
S'for'
p508
aS'N'
p509
ag383
aa(lp510
S'12'
p511
aS'P'
p512
aS'CD'
p513
aa(lp514
S'h'
p515
aS'P'
p516
ag379
aa(lp517
S'so'
p518
aS'N'
p519
ag444
aa(lp520
S'that'
p521
aS'N'
p522
aS'IN'
p523
aa(lp524
S'the'
p525
aS'N'
p526
aS'DT'
p527
aa(lp528
S'content'
p529
aS'N'
p530
ag412
aa(lp531
S'of'
p532
aS'N'
p533
ag462
aa(lp534
S'Li2S'
p535
aS'N'
p536
ag395
aa(lp537
S'in'
p538
aS'N'
p539
ag470
aa(lp540
S'pristine'
p541
aS'N'
p542
ag412
aa(lp543
S'and'
p544
aS'N'
p545
ag423
aa(lp546
S'ball-milled'
p547
aS'N'
p548
ag387
aa(lp549
S'samples'
p550
aS'N'
p551
ag379
aa(lp552
S'is'
p553
aS'N'
p554
aS'VBZ'
p555
aa(lp556
S'40%'
p557
aS'N'
p558
ag466
aa(lp559
S'and'
p560
aS'N'
p561
ag423
aa(lp562
S'38%'
p563
aS'N'
p564
ag466
aa(lp565
S'in'
p566
aS'N'
p567
ag470
aa(lp568
S'weight'
p569
aS'N'
p570
ag412
aa(lp571
S','
p572
aS'N'
p573
ag402
aa(lp574
S'respectively'
p575
aS'N'
p576
ag444
aa(lp577
S'.'
p578
aS'N'
p579
aS'.'
p580
aa(lp581
g39
ag4
ag4
aa(lp582
g41
ag4
ag4
aaa(lp583
(lp584
g3
ag4
ag4
aa(lp585
g6
ag4
ag4
aa(lp586
S'Next'
p587
aS'N'
p588
aS'RB'
p589
aa(lp590
S','
p591
aS'N'
p592
aS','
p593
aa(lp594
S'the'
p595
aS'N'
p596
aS'DT'
p597
aa(lp598
S'slurry'
p599
aS'R'
p600
aS'NN'
p601
aa(lp602
S'was'
p603
aS'A'
p604
aS'VBD'
p605
aa(lp606
S'drop'
p607
aS'A'
p608
aS'JJ'
p609
aa(lp610
S'cast'
p611
aS'A'
p612
ag601
aa(lp613
S'onto'
p614
aS'N'
p615
aS'IN'
p616
aa(lp617
S'carbon'
p618
aS'I'
p619
ag601
aa(lp620
S'paper'
p621
aS'I'
p622
aS'NN'
p623
aa(lp624
S'P50T)'
p625
aS'I'
p626
aS'NNP'
p627
aa(lp628
S'and'
p629
aS'N'
p630
aS'CC'
p631
aa(lp632
S'heated'
p633
aS'A'
p634
aS'VBN'
p635
aa(lp636
S'at'
p637
aS'N'
p638
aS'IN'
p639
aa(lp640
S'110'
p641
aS'P'
p642
aS'CD'
p643
aa(lp644
S'C'
p645
aS'P'
p646
ag627
aa(lp647
S'for'
p648
aS'N'
p649
aS'IN'
p650
aa(lp651
S'1'
p652
aS'P'
p653
aS'CD'
p654
aa(lp655
S'h'
p656
aS'P'
p657
aS'NNS'
p658
aa(lp659
S'inside'
p660
aS'N'
p661
ag616
aa(lp662
S'a'
p663
aS'N'
p664
aS'DT'
p665
aa(lp666
S'glovebox'
p667
aS'E'
p668
ag601
aa(lp669
S'.'
p670
aS'N'
p671
aS'.'
p672
aa(lp673
g39
ag4
ag4
aa(lp674
g41
ag4
ag4
aaa(lp675
(lp676
g3
ag4
ag4
aa(lp677
g6
ag4
ag4
aa(lp678
S'The'
p679
aS'N'
p680
aS'DT'
p681
aa(lp682
S'mass'
p683
aS'N'
p684
aS'NN'
p685
aa(lp686
S'loading'
p687
aS'N'
p688
ag685
aa(lp689
S'of'
p690
aS'N'
p691
aS'IN'
p692
aa(lp693
S'the'
p694
aS'N'
p695
aS'DT'
p696
aa(lp697
S'electrode'
p698
aS'I'
p699
ag685
aa(lp700
S'is'
p701
aS'N'
p702
aS'VBZ'
p703
aa(lp704
S'11.5'
p705
aS'P'
p706
aS'CD'
p707
aa(lp708
S'mg'
p709
aS'P'
p710
ag685
aa(lp711
S'Li2S/cm2'
p712
aS'P'
p713
aS'NNP'
p714
aa(lp715
S'.'
p716
aS'N'
p717
aS'.'
p718
aa(lp719
S'2032-type'
p720
aS'E'
p721
aS'JJ'
p722
aa(lp723
S'coin'
p724
aS'E'
p725
ag685
aa(lp726
S'cells'
p727
aS'E'
p728
aS'NNS'
p729
aa(lp730
S'Corp.)'
p731
aS'N'
p732
ag714
aa(lp733
S'were'
p734
aS'A'
p735
aS'VBD'
p736
aa(lp737
S'used'
p738
aS'A'
p739
aS'VBN'
p740
aa(lp741
S'for'
p742
aS'N'
p743
aS'IN'
p744
aa(lp745
S'two-electrode'
p746
aS'E'
p747
ag722
aa(lp748
S'testing'
p749
aS'E'
p750
aS'VBG'
p751
aa(lp752
S'with'
p753
aS'N'
p754
aS'IN'
p755
aa(lp756
S'lithium'
p757
aS'I'
p758
ag685
aa(lp759
S'metal'
p760
aS'I'
p761
ag685
aa(lp762
S'as'
p763
aS'N'
p764
aS'IN'
p765
aa(lp766
S'the'
p767
aS'N'
p768
ag696
aa(lp769
S'counter'
p770
aS'N'
p771
ag685
aa(lp772
S'electrode'
p773
aS'N'
p774
ag685
aa(lp775
S'.'
p776
aS'N'
p777
ag718
aa(lp778
g39
ag4
ag4
aa(lp779
g41
ag4
ag4
aaa(lp780
(lp781
g3
ag4
ag4
aa(lp782
g6
ag4
ag4
aa(lp783
S'Cyclic'
p784
aS'E'
p785
aS'JJ'
p786
aa(lp787
S'voltammetry'
p788
aS'E'
p789
aS'NN'
p790
aa(lp791
S'and'
p792
aS'N'
p793
aS'CC'
p794
aa(lp795
S'impedance'
p796
aS'E'
p797
ag790
aa(lp798
S'measurements'
p799
aS'E'
p800
aS'NNS'
p801
aa(lp802
S'were'
p803
aS'A'
p804
aS'VBD'
p805
aa(lp806
S'performed'
p807
aS'A'
p808
aS'VBN'
p809
aa(lp810
S'under'
p811
aS'N'
p812
aS'IN'
p813
aa(lp814
S'a'
p815
aS'N'
p816
aS'DT'
p817
aa(lp818
S'three-electrode'
p819
aS'E'
p820
ag786
aa(lp821
S'configuration'
p822
aS'E'
p823
ag790
aa(lp824
S'in'
p825
aS'N'
p826
aS'IN'
p827
aa(lp828
S'pouch'
p829
aS'E'
p830
ag786
aa(lp831
S'cells'
p832
aS'E'
p833
aS'NNS'
p834
aa(lp835
S'.'
p836
aS'N'
p837
aS'.'
p838
aa(lp839
g39
ag4
ag4
aa(lp840
g41
ag4
ag4
aaa(lp841
(lp842
g3
ag4
ag4
aa(lp843
g6
ag4
ag4
aa(lp844
S'A'
p845
aS'N'
p846
aS'DT'
p847
aa(lp848
S'small'
p849
aS'N'
p850
aS'JJ'
p851
aa(lp852
S'piece'
p853
aS'N'
p854
aS'NN'
p855
aa(lp856
S'of'
p857
aS'N'
p858
aS'IN'
p859
aa(lp860
S'lithium'
p861
aS'I'
p862
ag855
aa(lp863
S'was'
p864
aS'A'
p865
aS'VBD'
p866
aa(lp867
S'used'
p868
aS'A'
p869
aS'VBN'
p870
aa(lp871
S'as'
p872
aS'N'
p873
aS'IN'
p874
aa(lp875
S'reference'
p876
aS'N'
p877
ag855
aa(lp878
S'electrode'
p879
aS'N'
p880
ag855
aa(lp881
S'and'
p882
aS'N'
p883
aS'CC'
p884
aa(lp885
S'placed'
p886
aS'N'
p887
ag866
aa(lp888
S'between'
p889
aS'N'
p890
aS'IN'
p891
aa(lp892
S'Li2S'
p893
aS'I'
p894
aS'NNP'
p895
aa(lp896
S'and'
p897
aS'N'
p898
ag884
aa(lp899
S'lithium'
p900
aS'I'
p901
ag855
aa(lp902
S'.'
p903
aS'N'
p904
aS'.'
p905
aa(lp906
g39
ag4
ag4
aa(lp907
g41
ag4
ag4
aaa(lp908
(lp909
g3
ag4
ag4
aa(lp910
g6
ag4
ag4
aa(lp911
S'All'
p912
aS'N'
p913
aS'DT'
p914
aa(lp915
S'electrodes'
p916
aS'N'
p917
aS'NNS'
p918
aa(lp919
S'are'
p920
aS'A'
p921
aS'VBP'
p922
aa(lp923
S'separated'
p924
aS'A'
p925
aS'VBN'
p926
aa(lp927
S'by'
p928
aS'N'
p929
aS'IN'
p930
aa(lp931
S'polymer'
p932
aS'I'
p933
aS'NN'
p934
aa(lp935
S'separators'
p936
aS'I'
p937
ag918
aa(lp938
S'.'
p939
aS'N'
p940
aS'.'
p941
aa(lp942
g39
ag4
ag4
aa(lp943
g41
ag4
ag4
aaa(lp944
(lp945
g3
ag4
ag4
aa(lp946
g6
ag4
ag4
aa(lp947
S'Electrolyte'
p948
aS'R'
p949
aS'NNP'
p950
aa(lp951
S'is'
p952
aS'A'
p953
aS'VBZ'
p954
aa(lp955
S'1.0'
p956
aS'P'
p957
aS'CD'
p958
aa(lp959
S'M'
p960
aS'P'
p961
ag950
aa(lp962
S'lithium'
p963
aS'I'
p964
aS'NN'
p965
aa(lp966
S'bis(trifluoromethanesulfonyl)imide'
p967
aS'I'
p968
ag965
aa(lp969
S'(LiTFSI'
p970
aS'I'
p971
ag950
aa(lp972
S','
p973
aS'N'
p974
aS','
p975
aa(lp976
S'Sigma'
p977
aS'N'
p978
ag950
aa(lp979
S'Aldrich)'
p980
aS'N'
p981
ag950
aa(lp982
S'in'
p983
aS'N'
p984
aS'IN'
p985
aa(lp986
S'1,3-dioxolane'
p987
aS'I'
p988
aS'JJ'
p989
aa(lp990
S'and'
p991
aS'N'
p992
aS'CC'
p993
aa(lp994
S'1,2-dimethoxyethane'
p995
aS'I'
p996
ag989
aa(lp997
S'(v:v'
p998
aS'P'
p999
ag950
aa(lp1000
S'='
p1001
aS'P'
p1002
ag950
aa(lp1003
S'1:1)'
p1004
aS'P'
p1005
ag958
aa(lp1006
S'.'
p1007
aS'N'
p1008
aS'.'
p1009
aa(lp1010
g39
ag4
ag4
aa(lp1011
g41
ag4
ag4
aaa(lp1012
(lp1013
g3
ag4
ag4
aa(lp1014
g6
ag4
ag4
aa(lp1015
S'Electrode'
p1016
aS'E'
p1017
aS'NNP'
p1018
aa(lp1019
S'preparation'
p1020
aS'E'
p1021
aS'NN'
p1022
aa(lp1023
S'and'
p1024
aS'N'
p1025
aS'CC'
p1026
aa(lp1027
S'cell'
p1028
aS'E'
p1029
ag1022
aa(lp1030
S'assembly'
p1031
aS'E'
p1032
aS'RB'
p1033
aa(lp1034
S'were'
p1035
aS'A'
p1036
aS'VBD'
p1037
aa(lp1038
S'done'
p1039
aS'A'
p1040
aS'VBN'
p1041
aa(lp1042
S'in'
p1043
aS'N'
p1044
aS'IN'
p1045
aa(lp1046
S'a'
p1047
aS'N'
p1048
aS'DT'
p1049
aa(lp1050
S'glovebox'
p1051
aS'E'
p1052
ag1022
aa(lp1053
S'with'
p1054
aS'N'
p1055
aS'IN'
p1056
aa(lp1057
S'O2'
p1058
aS'P'
p1059
ag1018
aa(lp1060
S'and'
p1061
aS'P'
p1062
ag1026
aa(lp1063
S'H2O'
p1064
aS'P'
p1065
ag1018
aa(lp1066
S'less'
p1067
aS'P'
p1068
aS'JJR'
p1069
aa(lp1070
S'than'
p1071
aS'P'
p1072
aS'IN'
p1073
aa(lp1074
S'2'
p1075
aS'P'
p1076
aS'CD'
p1077
aa(lp1078
S'and'
p1079
aS'P'
p1080
ag1026
aa(lp1081
S'0.1'
p1082
aS'P'
p1083
aS'CD'
p1084
aa(lp1085
S'ppm'
p1086
aS'P'
p1087
ag1022
aa(lp1088
S','
p1089
aS'N'
p1090
aS','
p1091
aa(lp1092
S'respectively'
p1093
aS'N'
p1094
ag1033
aa(lp1095
S'.'
p1096
aS'N'
p1097
aS'.'
p1098
aa(lp1099
g39
ag4
ag4
aa(lp1100
g41
ag4
ag4
aaa(lp1101
(lp1102
g3
ag4
ag4
aa(lp1103
g6
ag4
ag4
aa(lp1104
S'All'
p1105
aS'N'
p1106
aS'DT'
p1107
aa(lp1108
S'C'
p1109
aS'E'
p1110
aS'NNP'
p1111
aa(lp1112
S'rates'
p1113
aS'E'
p1114
aS'NNS'
p1115
aa(lp1116
S'are'
p1117
aS'A'
p1118
aS'VBP'
p1119
aa(lp1120
S'based'
p1121
aS'A'
p1122
aS'VBN'
p1123
aa(lp1124
S'on'
p1125
aS'N'
p1126
aS'IN'
p1127
aa(lp1128
S'the'
p1129
aS'N'
p1130
aS'DT'
p1131
aa(lp1132
S'theoretical'
p1133
aS'P'
p1134
aS'JJ'
p1135
aa(lp1136
S'capacity'
p1137
aS'P'
p1138
aS'NN'
p1139
aa(lp1140
S'of'
p1141
aS'P'
p1142
aS'IN'
p1143
aa(lp1144
S'Li2S'
p1145
aS'P'
p1146
ag1111
aa(lp1147
S'(1C'
p1148
aS'P'
p1149
ag1111
aa(lp1150
S'='
p1151
aS'P'
p1152
ag1111
aa(lp1153
S'1166'
p1154
aS'P'
p1155
aS'CD'
p1156
aa(lp1157
S'mA/g)'
p1158
aS'P'
p1159
aS'NN'
p1160
aa(lp1161
S'.'
p1162
aS'N'
p1163
aS'.'
p1164
aa(lp1165
g39
ag4
ag4
aa(lp1166
g41
ag4
ag4
aaa(lp1167
(lp1168
g3
ag4
ag4
aa(lp1169
g6
ag4
ag4
aa(lp1170
S'The'
p1171
aS'N'
p1172
aS'DT'
p1173
aa(lp1174
S'frequency'
p1175
aS'P'
p1176
aS'NN'
p1177
aa(lp1178
S'range'
p1179
aS'P'
p1180
ag1177
aa(lp1181
S'for'
p1182
aS'N'
p1183
aS'IN'
p1184
aa(lp1185
S'the'
p1186
aS'N'
p1187
aS'DT'
p1188
aa(lp1189
S'impedance'
p1190
aS'E'
p1191
ag1177
aa(lp1192
S'measurement'
p1193
aS'E'
p1194
ag1177
aa(lp1195
S'is'
p1196
aS'A'
p1197
aS'VBZ'
p1198
aa(lp1199
S'from'
p1200
aS'P'
p1201
aS'IN'
p1202
aa(lp1203
S'200'
p1204
aS'P'
p1205
aS'CD'
p1206
aa(lp1207
S'kHz'
p1208
aS'P'
p1209
aS'NNS'
p1210
aa(lp1211
S'to'
p1212
aS'P'
p1213
aS'TO'
p1214
aa(lp1215
S'0.01'
p1216
aS'P'
p1217
aS'CD'
p1218
aa(lp1219
S'Hz'
p1220
aS'P'
p1221
aS'NNP'
p1222
aa(lp1223
S'.'
p1224
aS'N'
p1225
aS'.'
p1226
aa(lp1227
g39
ag4
ag4
aa(lp1228
g41
ag4
ag4
aaa(lp1229
(lp1230
g3
ag4
ag4
aa(lp1231
g6
ag4
ag4
aa(lp1232
S'In-situ'
p1233
aS'E'
p1234
aS'NNP'
p1235
aa(lp1236
S'synchrotron'
p1237
aS'E'
p1238
aS'NN'
p1239
aa(lp1240
S'diffraction'
p1241
aS'E'
p1242
ag1239
aa(lp1243
S'was'
p1244
aS'A'
p1245
aS'VBD'
p1246
aa(lp1247
S'performed'
p1248
aS'A'
p1249
aS'VBN'
p1250
aa(lp1251
S'at'
p1252
aS'N'
p1253
aS'IN'
p1254
aa(lp1255
S'Stanford'
p1256
aS'P'
p1257
ag1235
aa(lp1258
S'Synchrotron'
p1259
aS'P'
p1260
ag1235
aa(lp1261
S'Radiation'
p1262
aS'P'
p1263
ag1235
aa(lp1264
S'Lightsource'
p1265
aS'P'
p1266
ag1235
aa(lp1267
S'beamline'
p1268
aS'P'
p1269
ag1246
aa(lp1270
S'11-3'
p1271
aS'P'
p1272
aS'JJ'
p1273
aa(lp1274
S'with'
p1275
aS'P'
p1276
aS'IN'
p1277
aa(lp1278
S'an'
p1279
aS'P'
p1280
aS'DT'
p1281
aa(lp1282
S'X-ray'
p1283
aS'P'
p1284
ag1273
aa(lp1285
S'energy'
p1286
aS'P'
p1287
aS'NN'
p1288
aa(lp1289
S'of'
p1290
aS'P'
p1291
aS'IN'
p1292
aa(lp1293
S'12.74'
p1294
aS'P'
p1295
aS'CD'
p1296
aa(lp1297
S'keV'
p1298
aS'P'
p1299
aS'NNS'
p1300
aa(lp1301
S'.'
p1302
aS'N'
p1303
aS'.'
p1304
aa(lp1305
g39
ag4
ag4
aa(lp1306
g41
ag4
ag4
aaa(lp1307
(lp1308
g3
ag4
ag4
aa(lp1309
g6
ag4
ag4
aa(lp1310
S'Experimental'
p1311
aS'N'
p1312
aS'JJ'
p1313
aa(lp1314
S'details'
p1315
aS'N'
p1316
aS'NNS'
p1317
aa(lp1318
S'were'
p1319
aS'N'
p1320
aS'VBD'
p1321
aa(lp1322
S'described'
p1323
aS'N'
p1324
aS'VBN'
p1325
aa(lp1326
S'in'
p1327
aS'N'
p1328
aS'IN'
p1329
aa(lp1330
S'our'
p1331
aS'N'
p1332
aS'PRP$'
p1333
aa(lp1334
S'previous'
p1335
aS'N'
p1336
aS'JJ'
p1337
aa(lp1338
S'work'
p1339
aS'N'
p1340
aS'NN'
p1341
aa(lp1342
S'.'
p1343
aS'N'
p1344
aS'.'
p1345
aa(lp1346
g39
ag4
ag4
aa(lp1347
g41
ag4
ag4
aaa(lp1348
(lp1349
g3
ag4
ag4
aa(lp1350
g6
ag4
ag4
aa(lp1351
S'COMSOL'
p1352
aS'E'
p1353
aS'NNP'
p1354
aa(lp1355
S'3.4'
p1356
aS'E'
p1357
aS'CD'
p1358
aa(lp1359
S'was'
p1360
aS'A'
p1361
aS'VBD'
p1362
aa(lp1363
S'used'
p1364
aS'A'
p1365
aS'VBN'
p1366
aa(lp1367
S'for'
p1368
aS'N'
p1369
aS'IN'
p1370
aa(lp1371
S'simulation'
p1372
aS'N'
p1373
aS'NN'
p1374
aa(lp1375
S'.'
p1376
aS'N'
p1377
aS'.'
p1378
aa(lp1379
g39
ag4
ag4
aa(lp1380
g41
ag4
ag4
aaa.