(lp0
(lp1
(lp2
S'***START***'
p3
aS'None'
p4
ag4
aa(lp5
S'***START2***'
p6
ag4
ag4
aa(lp7
S'Powder'
p8
aS'PR'
p9
aS'NNP'
p10
aa(lp11
S'LTAP'
p12
aS'PR'
p13
ag10
aa(lp14
S'was'
p15
aS'A'
p16
aS'VBD'
p17
aa(lp18
S'prepared'
p19
aS'A'
p20
aS'VBN'
p21
aa(lp22
S'using'
p23
aS'N'
p24
aS'VBG'
p25
aa(lp26
S'a'
p27
aS'N'
p28
aS'DT'
p29
aa(lp30
S'wet-chemical'
p31
aS'E'
p32
aS'JJ'
p33
aa(lp34
S'process'
p35
aS'E'
p36
aS'NN'
p37
aa(lp38
S'with'
p39
aS'N'
p40
aS'IN'
p41
aa(lp42
S'a'
p43
aS'N'
p44
ag29
aa(lp45
S'stoichiometric'
p46
aS'P'
p47
ag33
aa(lp48
S'mixture'
p49
aS'P'
p50
ag37
aa(lp51
S'of'
p52
aS'N'
p53
aS'IN'
p54
aa(lp55
S'lithium'
p56
aS'I'
p57
ag37
aa(lp58
S'chloride'
p59
aS'I'
p60
ag37
aa(lp61
S'(LiCl)'
p62
aS'I'
p63
ag10
aa(lp64
S','
p65
aS'N'
p66
aS','
p67
aa(lp68
S'titanium'
p69
aS'I'
p70
ag37
aa(lp71
S'butoxide'
p72
aS'I'
p73
ag37
aa(lp74
S'(Ti(OCH2(CH2)2CH3)4)'
p75
aS'I'
p76
ag10
aa(lp77
S','
p78
aS'N'
p79
ag67
aa(lp80
S'aluminum'
p81
aS'I'
p82
ag37
aa(lp83
S'nitrate'
p84
aS'I'
p85
ag37
aa(lp86
S'(Al(NO3)39H2O)'
p87
aS'I'
p88
ag37
aa(lp89
S','
p90
aS'N'
p91
ag67
aa(lp92
S'and'
p93
aS'N'
p94
aS'CC'
p95
aa(lp96
S'ammonium'
p97
aS'I'
p98
ag37
aa(lp99
S'dihydrogen'
p100
aS'I'
p101
ag37
aa(lp102
S'phosphate'
p103
aS'I'
p104
ag37
aa(lp105
S'(NH4H2PO4)'
p106
aS'I'
p107
ag37
aa(lp108
S'.'
p109
aS'N'
p110
aS'.'
p111
aa(lp112
S'***END***'
p113
ag4
ag4
aa(lp114
S'***END2***'
p115
ag4
ag4
aaa(lp116
(lp117
g3
ag4
ag4
aa(lp118
g6
ag4
ag4
aa(lp119
S'The'
p120
aS'N'
p121
aS'DT'
p122
aa(lp123
S'precursors'
p124
aS'I'
p125
aS'NNS'
p126
aa(lp127
S'were'
p128
aS'A'
p129
aS'VBD'
p130
aa(lp131
S'dissolved'
p132
aS'A'
p133
aS'VBN'
p134
aa(lp135
S'in'
p136
aS'N'
p137
aS'IN'
p138
aa(lp139
S'distilled'
p140
aS'I'
p141
aS'JJ'
p142
aa(lp143
S'water'
p144
aS'I'
p145
aS'NN'
p146
aa(lp147
S','
p148
aS'N'
p149
aS','
p150
aa(lp151
S'and'
p152
aS'N'
p153
aS'CC'
p154
aa(lp155
S'titanium'
p156
aS'I'
p157
aS'NN'
p158
aa(lp159
S'butoxide'
p160
aS'I'
p161
ag158
aa(lp162
S'solution'
p163
aS'I'
p164
ag158
aa(lp165
S'was'
p166
aS'A'
p167
aS'VBD'
p168
aa(lp169
S'added'
p170
aS'A'
p171
ag134
aa(lp172
S'dropwise'
p173
aS'P'
p174
ag158
aa(lp175
S'to'
p176
aS'N'
p177
aS'TO'
p178
aa(lp179
S'the'
p180
aS'N'
p181
aS'DT'
p182
aa(lp183
S'prepared'
p184
aS'R'
p185
ag142
aa(lp186
S'solution'
p187
aS'R'
p188
ag158
aa(lp189
S'with'
p190
aS'N'
p191
aS'IN'
p192
aa(lp193
S'constant'
p194
aS'P'
p195
ag142
aa(lp196
S'stirring'
p197
aS'P'
p198
ag158
aa(lp199
S'.'
p200
aS'N'
p201
aS'.'
p202
aa(lp203
g113
ag4
ag4
aa(lp204
g115
ag4
ag4
aaa(lp205
(lp206
g3
ag4
ag4
aa(lp207
g6
ag4
ag4
aa(lp208
S'The'
p209
aS'N'
p210
aS'DT'
p211
aa(lp212
S'resultant'
p213
aS'R'
p214
aS'JJ'
p215
aa(lp216
S'solution'
p217
aS'R'
p218
aS'NN'
p219
aa(lp220
S'was'
p221
aS'A'
p222
aS'VBD'
p223
aa(lp224
S'ball-milled'
p225
aS'A'
p226
aS'VBN'
p227
aa(lp228
S'for'
p229
aS'N'
p230
aS'IN'
p231
aa(lp232
S'24'
p233
aS'P'
p234
aS'CD'
p235
aa(lp236
S'h'
p237
aS'P'
p238
ag219
aa(lp239
S'.'
p240
aS'N'
p241
aS'.'
p242
aa(lp243
g113
ag4
ag4
aa(lp244
g115
ag4
ag4
aaa(lp245
(lp246
g3
ag4
ag4
aa(lp247
g6
ag4
ag4
aa(lp248
S'The'
p249
aS'N'
p250
aS'DT'
p251
aa(lp252
S'mixture'
p253
aS'R'
p254
aS'NN'
p255
aa(lp256
S'was'
p257
aS'A'
p258
aS'VBD'
p259
aa(lp260
S'dried'
p261
aS'A'
p262
aS'VBN'
p263
aa(lp264
S'at'
p265
aS'N'
p266
aS'IN'
p267
aa(lp268
S'80'
p269
aS'P'
p270
aS'CD'
p271
aa(lp272
S'8C'
p273
aS'P'
p274
aS'CD'
p275
aa(lp276
S','
p277
aS'N'
p278
aS','
p279
aa(lp280
S'and'
p281
aS'N'
p282
aS'CC'
p283
aa(lp284
S'the'
p285
aS'R'
p286
aS'DT'
p287
aa(lp288
S'obtained'
p289
aS'R'
p290
aS'JJ'
p291
aa(lp292
S'powder'
p293
aS'R'
p294
ag255
aa(lp295
S'was'
p296
aS'A'
p297
ag259
aa(lp298
S'heated'
p299
aS'A'
p300
ag263
aa(lp301
S'to'
p302
aS'N'
p303
aS'TO'
p304
aa(lp305
S'10008C'
p306
aS'P'
p307
ag275
aa(lp308
S'for'
p309
aS'N'
p310
aS'IN'
p311
aa(lp312
S'4'
p313
aS'P'
p314
aS'CD'
p315
aa(lp316
S'h'
p317
aS'P'
p318
ag255
aa(lp319
S'in'
p320
aS'N'
p321
aS'IN'
p322
aa(lp323
S'air'
p324
aS'P'
p325
ag255
aa(lp326
S'.'
p327
aS'N'
p328
aS'.'
p329
aa(lp330
g113
ag4
ag4
aa(lp331
g115
ag4
ag4
aaa(lp332
(lp333
g3
ag4
ag4
aa(lp334
g6
ag4
ag4
aa(lp335
S'A'
p336
aS'N'
p337
aS'DT'
p338
aa(lp339
S'PVdF'
p340
aS'I'
p341
aS'NNP'
p342
aa(lp343
S'polymer'
p344
aS'I'
p345
aS'NN'
p346
aa(lp347
S'was'
p348
aS'A'
p349
aS'VBD'
p350
aa(lp351
S'used'
p352
aS'A'
p353
aS'VBN'
p354
aa(lp355
S'as'
p356
aS'N'
p357
aS'IN'
p358
aa(lp359
S'a'
p360
aS'N'
p361
aS'DT'
p362
aa(lp363
S'binder'
p364
aS'N'
p365
ag346
aa(lp366
S'.'
p367
aS'N'
p368
aS'.'
p369
aa(lp370
g113
ag4
ag4
aa(lp371
g115
ag4
ag4
aaa(lp372
(lp373
g3
ag4
ag4
aa(lp374
g6
ag4
ag4
aa(lp375
S'The'
p376
aS'N'
p377
aS'DT'
p378
aa(lp379
S'PVdF'
p380
aS'I'
p381
aS'NNP'
p382
aa(lp383
S'solution'
p384
aS'PR'
p385
aS'NN'
p386
aa(lp387
S'was'
p388
aS'A'
p389
aS'VBD'
p390
aa(lp391
S'prepared'
p392
aS'A'
p393
aS'VBN'
p394
aa(lp395
S'in'
p396
aS'N'
p397
aS'IN'
p398
aa(lp399
S'dimethylacetamide'
p400
aS'I'
p401
ag386
aa(lp402
S'(DMAc)/acetone'
p403
aS'I'
p404
aS'CD'
p405
aa(lp406
S'(1:2'
p407
aS'P'
p408
ag386
aa(lp409
S'volume'
p410
aS'N'
p411
aS'NN'
p412
aa(lp413
S'ratio)'
p414
aS'P'
p415
ag386
aa(lp416
S'solvent'
p417
aS'N'
p418
ag386
aa(lp419
S'.'
p420
aS'N'
p421
aS'.'
p422
aa(lp423
g113
ag4
ag4
aa(lp424
g115
ag4
ag4
aaa(lp425
(lp426
g3
ag4
ag4
aa(lp427
g6
ag4
ag4
aa(lp428
S'The'
p429
aS'N'
p430
aS'DT'
p431
aa(lp432
S'prepared'
p433
aS'R'
p434
aS'JJ'
p435
aa(lp436
S'LTAP'
p437
aS'R'
p438
aS'NNP'
p439
aa(lp440
S'powder'
p441
aS'R'
p442
aS'NN'
p443
aa(lp444
S'was'
p445
aS'A'
p446
aS'VBD'
p447
aa(lp448
S'added'
p449
aS'A'
p450
aS'VBN'
p451
aa(lp452
S'to'
p453
aS'N'
p454
aS'TO'
p455
aa(lp456
S'the'
p457
aS'N'
p458
aS'DT'
p459
aa(lp460
S'polymer'
p461
aS'R'
p462
ag435
aa(lp463
S'solution'
p464
aS'R'
p465
ag443
aa(lp466
S'and'
p467
aS'N'
p468
aS'CC'
p469
aa(lp470
S'mixed'
p471
aS'A'
p472
ag435
aa(lp473
S'to'
p474
aS'N'
p475
ag455
aa(lp476
S'prepare'
p477
aS'P'
p478
aS'VB'
p479
aa(lp480
S'the'
p481
aS'N'
p482
ag459
aa(lp483
S'slurry'
p484
aS'PR'
p485
ag443
aa(lp486
S'.'
p487
aS'N'
p488
aS'.'
p489
aa(lp490
g113
ag4
ag4
aa(lp491
g115
ag4
ag4
aaa(lp492
(lp493
g3
ag4
ag4
aa(lp494
g6
ag4
ag4
aa(lp495
S'The'
p496
aS'N'
p497
aS'DT'
p498
aa(lp499
S'prepared'
p500
aS'R'
p501
aS'JJ'
p502
aa(lp503
S'slurry'
p504
aS'R'
p505
aS'NN'
p506
aa(lp507
S'was'
p508
aS'A'
p509
aS'VBD'
p510
aa(lp511
S'cast'
p512
aS'A'
p513
aS'VBN'
p514
aa(lp515
S'onto'
p516
aS'N'
p517
aS'IN'
p518
aa(lp519
S'a'
p520
aS'N'
p521
aS'DT'
p522
aa(lp523
S'glass'
p524
aS'I'
p525
ag506
aa(lp526
S'plate'
p527
aS'I'
p528
ag506
aa(lp529
S'using'
p530
aS'N'
p531
aS'VBG'
p532
aa(lp533
S'a'
p534
aS'N'
p535
ag522
aa(lp536
S'doctor'
p537
aS'E'
p538
ag506
aa(lp539
S'blade'
p540
aS'E'
p541
ag506
aa(lp542
S'with'
p543
aS'N'
p544
aS'IN'
p545
aa(lp546
S'a'
p547
aS'N'
p548
ag522
aa(lp549
S'flow'
p550
aS'P'
p551
ag506
aa(lp552
S'of'
p553
aS'P'
p554
aS'IN'
p555
aa(lp556
S'distilled'
p557
aS'P'
p558
ag502
aa(lp559
S'water'
p560
aS'P'
p561
aS'NN'
p562
aa(lp563
S'to'
p564
aS'N'
p565
aS'TO'
p566
aa(lp567
S'the'
p568
aS'N'
p569
aS'DT'
p570
aa(lp571
S'sample'
p572
aS'N'
p573
ag506
aa(lp574
S'.'
p575
aS'N'
p576
aS'.'
p577
aa(lp578
g113
ag4
ag4
aa(lp579
g115
ag4
ag4
aaa(lp580
(lp581
g3
ag4
ag4
aa(lp582
g6
ag4
ag4
aa(lp583
S'Then,'
p584
aS'N'
p585
aS'IN'
p586
aa(lp587
S'the'
p588
aS'N'
p589
aS'DT'
p590
aa(lp591
S'LTPA-based'
p592
aS'R'
p593
aS'JJ'
p594
aa(lp595
S'composite'
p596
aS'R'
p597
ag594
aa(lp598
S'solid'
p599
aS'R'
p600
ag594
aa(lp601
S'membrane'
p602
aS'R'
p603
aS'NN'
p604
aa(lp605
S'floated'
p606
aS'A'
p607
aS'VBD'
p608
aa(lp609
S'to'
p610
aS'N'
p611
aS'TO'
p612
aa(lp613
S'the'
p614
aS'P'
p615
ag590
aa(lp616
S'distilled'
p617
aS'P'
p618
ag594
aa(lp619
S'water'
p620
aS'P'
p621
aS'NN'
p622
aa(lp623
S'layer'
p624
aS'P'
p625
ag604
aa(lp626
S'.'
p627
aS'N'
p628
aS'.'
p629
aa(lp630
g113
ag4
ag4
aa(lp631
g115
ag4
ag4
aaa(lp632
(lp633
g3
ag4
ag4
aa(lp634
g6
ag4
ag4
aa(lp635
S'The'
p636
aS'N'
p637
aS'DT'
p638
aa(lp639
S'composite'
p640
aS'I'
p641
aS'JJ'
p642
aa(lp643
S'membrane'
p644
aS'I'
p645
aS'NN'
p646
aa(lp647
S'was'
p648
aS'A'
p649
aS'VBD'
p650
aa(lp651
S'pressed'
p652
aS'A'
p653
aS'VBN'
p654
aa(lp655
S'with'
p656
aS'N'
p657
aS'IN'
p658
aa(lp659
S'a'
p660
aS'N'
p661
aS'DT'
p662
aa(lp663
S'2-tonne'
p664
aS'E'
p665
ag642
aa(lp666
S'press'
p667
aS'E'
p668
ag646
aa(lp669
S'and'
p670
aS'N'
p671
aS'CC'
p672
aa(lp673
S'dried'
p674
aS'A'
p675
ag654
aa(lp676
S'in'
p677
aS'N'
p678
aS'IN'
p679
aa(lp680
S'a'
p681
aS'N'
p682
ag662
aa(lp683
S'vacuum'
p684
aS'E'
p685
ag646
aa(lp686
S'oven'
p687
aS'E'
p688
aS'RB'
p689
aa(lp690
S'(808C'
p691
aS'P'
p692
aS'NNP'
p693
aa(lp694
S','
p695
aS'N'
p696
aS','
p697
aa(lp698
S'24'
p699
aS'P'
p700
aS'CD'
p701
aa(lp702
S'h)'
p703
aS'P'
p704
ag646
aa(lp705
S'.'
p706
aS'N'
p707
aS'.'
p708
aa(lp709
g113
ag4
ag4
aa(lp710
g115
ag4
ag4
aaa(lp711
(lp712
g3
ag4
ag4
aa(lp713
g6
ag4
ag4
aa(lp714
S'The'
p715
aS'N'
p716
aS'DT'
p717
aa(lp718
S'LTAP-based'
p719
aS'R'
p720
aS'JJ'
p721
aa(lp722
S'composite'
p723
aS'R'
p724
ag721
aa(lp725
S'solid'
p726
aS'R'
p727
ag721
aa(lp728
S'electrolyte'
p729
aS'R'
p730
aS'NN'
p731
aa(lp732
S'was'
p733
aS'A'
p734
aS'VBD'
p735
aa(lp736
S'prepared'
p737
aS'A'
p738
aS'VBN'
p739
aa(lp740
S'by'
p741
aS'N'
p742
aS'IN'
p743
aa(lp744
S'soaking'
p745
aS'P'
p746
aS'VBG'
p747
aa(lp748
S'the'
p749
aS'N'
p750
aS'DT'
p751
aa(lp752
S'solid'
p753
aS'I'
p754
ag721
aa(lp755
S'membrane'
p756
aS'I'
p757
ag731
aa(lp758
S'for'
p759
aS'N'
p760
aS'IN'
p761
aa(lp762
S'20'
p763
aS'P'
p764
aS'CD'
p765
aa(lp766
S'min'
p767
aS'P'
p768
ag731
aa(lp769
S'in'
p770
aS'N'
p771
aS'IN'
p772
aa(lp773
S'a'
p774
aS'N'
p775
aS'DT'
p776
aa(lp777
S'solution'
p778
aS'N'
p779
ag731
aa(lp780
S'of'
p781
aS'N'
p782
aS'IN'
p783
aa(lp784
S'1m'
p785
aS'P'
p786
aS'CD'
p787
aa(lp788
S'LiPF6'
p789
aS'I'
p790
aS'NNP'
p791
aa(lp792
S'in'
p793
aS'N'
p794
ag772
aa(lp795
S'EC/DMC'
p796
aS'I'
p797
ag791
aa(lp798
S'.'
p799
aS'N'
p800
aS'.'
p801
aa(lp802
g113
ag4
ag4
aa(lp803
g115
ag4
ag4
aaa(lp804
(lp805
g3
ag4
ag4
aa(lp806
g6
ag4
ag4
aa(lp807
S'The'
p808
aS'N'
p809
aS'DT'
p810
aa(lp811
S'ionic'
p812
aS'PR'
p813
aS'JJ'
p814
aa(lp815
S'conductivity'
p816
aS'PR'
p817
aS'NN'
p818
aa(lp819
S'was'
p820
aS'A'
p821
aS'VBD'
p822
aa(lp823
S'calculated'
p824
aS'A'
p825
aS'VBN'
p826
aa(lp827
S'by'
p828
aS'N'
p829
aS'IN'
p830
aa(lp831
S's=l/(R'
p832
aS'N'
p833
ag818
aa(lp834
S'A)'
p835
aS'E'
p836
aS'NNP'
p837
aa(lp838
S'equation'
p839
aS'E'
p840
ag818
aa(lp841
S','
p842
aS'N'
p843
aS','
p844
aa(lp845
S'where'
p846
aS'N'
p847
aS'WRB'
p848
aa(lp849
S'R'
p850
aS'N'
p851
ag837
aa(lp852
S'is'
p853
aS'N'
p854
aS'VBZ'
p855
aa(lp856
S'total'
p857
aS'N'
p858
ag814
aa(lp859
S'resistance'
p860
aS'N'
p861
ag818
aa(lp862
S'(ohm),'
p863
aS'N'
p864
ag837
aa(lp865
S'l'
p866
aS'N'
p867
ag818
aa(lp868
S'is'
p869
aS'N'
p870
ag855
aa(lp871
S'thickness'
p872
aS'N'
p873
ag814
aa(lp874
S'of'
p875
aS'N'
p876
aS'IN'
p877
aa(lp878
S'sample'
p879
aS'N'
p880
ag814
aa(lp881
S'(cm),'
p882
aS'N'
p883
ag837
aa(lp884
S'and'
p885
aS'N'
p886
aS'CC'
p887
aa(lp888
S'A'
p889
aS'N'
p890
ag837
aa(lp891
S'is'
p892
aS'N'
p893
ag855
aa(lp894
S'area'
p895
aS'N'
p896
aS'NN'
p897
aa(lp898
S'of'
p899
aS'N'
p900
ag877
aa(lp901
S'sample'
p902
aS'N'
p903
ag814
aa(lp904
S'(cm2)'
p905
aS'N'
p906
ag837
aa(lp907
S'.'
p908
aS'N'
p909
aS'.'
p910
aa(lp911
g113
ag4
ag4
aa(lp912
g115
ag4
ag4
aaa(lp913
(lp914
g3
ag4
ag4
aa(lp915
g6
ag4
ag4
aa(lp916
S'To'
p917
aS'N'
p918
aS'TO'
p919
aa(lp920
S'prepare'
p921
aS'N'
p922
aS'VB'
p923
aa(lp924
S'the'
p925
aS'N'
p926
aS'DT'
p927
aa(lp928
S'electrode'
p929
aS'PR'
p930
aS'NN'
p931
aa(lp932
S','
p933
aS'N'
p934
aS','
p935
aa(lp936
S'the'
p937
aS'N'
p938
ag927
aa(lp939
S'active'
p940
aS'I'
p941
aS'JJ'
p942
aa(lp943
S'material'
p944
aS'I'
p945
ag931
aa(lp946
S'powder'
p947
aS'I'
p948
ag931
aa(lp949
S'(cathode:'
p950
aS'P'
p951
aS'NNP'
p952
aa(lp953
S'LiMn2O4'
p954
aS'P'
p955
ag952
aa(lp956
S','
p957
aS'N'
p958
ag935
aa(lp959
S'anode:'
p960
aS'P'
p961
aS'VBZ'
p962
aa(lp963
S'graphite'
p964
aS'P'
p965
aS'JJ'
p966
aa(lp967
S'),'
p968
aS'N'
p969
ag966
aa(lp970
S'super-p'
p971
aS'I'
p972
ag966
aa(lp973
S'carbon'
p974
aS'I'
p975
ag931
aa(lp976
S'black'
p977
aS'I'
p978
aS'JJ'
p979
aa(lp980
S','
p981
aS'N'
p982
ag935
aa(lp983
S'and'
p984
aS'N'
p985
aS'CC'
p986
aa(lp987
S'poly(tetrafluoroethylene)'
p988
aS'I'
p989
ag966
aa(lp990
S'(PTFE)'
p991
aS'I'
p992
ag931
aa(lp993
S'binder'
p994
aS'N'
p995
ag931
aa(lp996
S'were'
p997
aS'A'
p998
aS'VBD'
p999
aa(lp1000
S'mixed'
p1001
aS'A'
p1002
ag966
aa(lp1003
S'in'
p1004
aS'N'
p1005
aS'IN'
p1006
aa(lp1007
S'a'
p1008
aS'N'
p1009
aS'DT'
p1010
aa(lp1011
S'ratio'
p1012
aS'R'
p1013
ag931
aa(lp1014
S'of'
p1015
aS'R'
p1016
aS'IN'
p1017
aa(lp1018
S'70:10:20'
p1019
aS'R'
p1020
aS'CD'
p1021
aa(lp1022
S'by'
p1023
aS'R'
p1024
aS'IN'
p1025
aa(lp1026
S'weight'
p1027
aS'R'
p1028
ag931
aa(lp1029
S'.'
p1030
aS'N'
p1031
aS'.'
p1032
aa(lp1033
g113
ag4
ag4
aa(lp1034
g115
ag4
ag4
aaa(lp1035
(lp1036
g3
ag4
ag4
aa(lp1037
g6
ag4
ag4
aa(lp1038
S'The'
p1039
aS'N'
p1040
aS'DT'
p1041
aa(lp1042
S'complete'
p1043
aS'R'
p1044
aS'JJ'
p1045
aa(lp1046
S'mixture'
p1047
aS'R'
p1048
aS'NN'
p1049
aa(lp1050
S'was'
p1051
aS'A'
p1052
aS'VBD'
p1053
aa(lp1054
S'rolled'
p1055
aS'A'
p1056
aS'VBN'
p1057
aa(lp1058
S'and'
p1059
aS'N'
p1060
aS'CC'
p1061
aa(lp1062
S'pressed'
p1063
aS'A'
p1064
ag1057
aa(lp1065
S'into'
p1066
aS'N'
p1067
aS'IN'
p1068
aa(lp1069
S'thin'
p1070
aS'P'
p1071
ag1045
aa(lp1072
S'sheets'
p1073
aS'P'
p1074
aS'NNS'
p1075
aa(lp1076
S'.'
p1077
aS'N'
p1078
aS'.'
p1079
aa(lp1080
g113
ag4
ag4
aa(lp1081
g115
ag4
ag4
aaa(lp1082
(lp1083
g3
ag4
ag4
aa(lp1084
g6
ag4
ag4
aa(lp1085
S'The'
p1086
aS'N'
p1087
aS'DT'
p1088
aa(lp1089
S'flexible'
p1090
aS'PR'
p1091
aS'JJ'
p1092
aa(lp1093
S'solid'
p1094
aS'PR'
p1095
ag1092
aa(lp1096
S'cell'
p1097
aS'PR'
p1098
aS'NN'
p1099
aa(lp1100
S'was'
p1101
aS'A'
p1102
aS'VBD'
p1103
aa(lp1104
S'stacked'
p1105
aS'A'
p1106
aS'VBN'
p1107
aa(lp1108
S'as'
p1109
aS'N'
p1110
aS'IN'
p1111
aa(lp1112
S'follows:'
p1113
aS'N'
p1114
ag1099
aa(lp1115
S'prepared'
p1116
aS'P'
p1117
ag1092
aa(lp1118
S'cathode'
p1119
aS'P'
p1120
ag1099
aa(lp1121
S'sheet/LTAP-based'
p1122
aS'P'
p1123
ag1092
aa(lp1124
S'composite'
p1125
aS'P'
p1126
ag1092
aa(lp1127
S'solid'
p1128
aS'P'
p1129
ag1092
aa(lp1130
S'electrolyte/anode'
p1131
aS'P'
p1132
ag1099
aa(lp1133
S'sheet'
p1134
aS'P'
p1135
ag1099
aa(lp1136
S'.'
p1137
aS'N'
p1138
aS'.'
p1139
aa(lp1140
g113
ag4
ag4
aa(lp1141
g115
ag4
ag4
aaa(lp1142
(lp1143
g3
ag4
ag4
aa(lp1144
g6
ag4
ag4
aa(lp1145
S'The'
p1146
aS'N'
p1147
aS'DT'
p1148
aa(lp1149
S'electrochemical'
p1150
aS'E'
p1151
aS'JJ'
p1152
aa(lp1153
S'cell'
p1154
aS'E'
p1155
aS'NN'
p1156
aa(lp1157
S'test'
p1158
aS'E'
p1159
ag1156
aa(lp1160
S'was'
p1161
aS'A'
p1162
aS'VBD'
p1163
aa(lp1164
S'performed'
p1165
aS'A'
p1166
aS'VBN'
p1167
aa(lp1168
S'using'
p1169
aS'N'
p1170
aS'VBG'
p1171
aa(lp1172
S'an'
p1173
aS'N'
p1174
aS'DT'
p1175
aa(lp1176
S'automatic'
p1177
aS'E'
p1178
ag1152
aa(lp1179
S'galvanostatic'
p1180
aS'E'
p1181
ag1152
aa(lp1182
S'chargedischarge'
p1183
aS'E'
p1184
ag1156
aa(lp1185
S'unit'
p1186
aS'E'
p1187
aS'NN'
p1188
aa(lp1189
S'(WonATech.'
p1190
aS'N'
p1191
aS'NNP'
p1192
aa(lp1193
S'Co.)'
p1194
aS'N'
p1195
ag1192
aa(lp1196
S'with'
p1197
aS'N'
p1198
aS'IN'
p1199
aa(lp1200
S'a'
p1201
aS'N'
p1202
aS'DT'
p1203
aa(lp1204
S'2032'
p1205
aS'E'
p1206
aS'CD'
p1207
aa(lp1208
S'coin-type'
p1209
aS'E'
p1210
ag1156
aa(lp1211
S'cell'
p1212
aS'E'
p1213
ag1156
aa(lp1214
S'between'
p1215
aS'N'
p1216
aS'IN'
p1217
aa(lp1218
S'0.1'
p1219
aS'P'
p1220
ag1207
aa(lp1221
S'and'
p1222
aS'P'
p1223
aS'CC'
p1224
aa(lp1225
S'1.5'
p1226
aS'P'
p1227
aS'CD'
p1228
aa(lp1229
S'V'
p1230
aS'P'
p1231
ag1192
aa(lp1232
S'with'
p1233
aS'N'
p1234
ag1199
aa(lp1235
S'a'
p1236
aS'N'
p1237
ag1203
aa(lp1238
S'0.1'
p1239
aS'P'
p1240
ag1207
aa(lp1241
S'mA'
p1242
aS'P'
p1243
ag1156
aa(lp1244
S'current'
p1245
aS'P'
p1246
aS'JJ'
p1247
aa(lp1248
S'density'
p1249
aS'P'
p1250
ag1156
aa(lp1251
S'.'
p1252
aS'N'
p1253
aS'.'
p1254
aa(lp1255
g113
ag4
ag4
aa(lp1256
g115
ag4
ag4
aaa.