(lp0
(lp1
(lp2
S'***START***'
p3
aS'None'
p4
ag4
aa(lp5
S'***START2***'
p6
ag4
ag4
aa(lp7
S'As'
p8
aS'N'
p9
aS'IN'
p10
aa(lp11
S'an'
p12
aS'N'
p13
aS'DT'
p14
aa(lp15
S'electronic-conducting'
p16
aS'R'
p17
aS'JJ'
p18
aa(lp19
S'precursor'
p20
aS'R'
p21
aS'NN'
p22
aa(lp23
S','
p24
aS'N'
p25
aS','
p26
aa(lp27
S'different'
p28
aS'P'
p29
aS'JJ'
p30
aa(lp31
S'amounts'
p32
aS'P'
p33
aS'NNS'
p34
aa(lp35
S'of'
p36
aS'N'
p37
aS'IN'
p38
aa(lp39
S'sucrose'
p40
aS'R'
p41
ag18
aa(lp42
S'(C12H22O11)'
p43
aS'R'
p44
ag34
aa(lp45
S'were'
p46
aS'A'
p47
aS'VBD'
p48
aa(lp49
S'added'
p50
aS'A'
p51
aS'VBN'
p52
aa(lp53
S'to'
p54
aS'N'
p55
aS'TO'
p56
aa(lp57
S'a'
p58
aS'N'
p59
aS'DT'
p60
aa(lp61
S'water-based'
p62
aS'R'
p63
ag18
aa(lp64
S'HNO3'
p65
aS'R'
p66
aS'NNP'
p67
aa(lp68
S'solution'
p69
aS'R'
p70
ag22
aa(lp71
S'of'
p72
aS'N'
p73
ag38
aa(lp74
S'lithium'
p75
aS'R'
p76
ag22
aa(lp77
S'carbonate'
p78
aS'R'
p79
ag22
aa(lp80
S','
p81
aS'N'
p82
ag26
aa(lp83
S'iron'
p84
aS'R'
p85
ag22
aa(lp86
S'oxalate'
p87
aS'R'
p88
ag22
aa(lp89
S'and'
p90
aS'N'
p91
aS'CC'
p92
aa(lp93
S'ammonium'
p94
aS'R'
p95
ag22
aa(lp96
S'di-hydrogen'
p97
aS'R'
p98
ag22
aa(lp99
S'phosphate'
p100
aS'R'
p101
ag22
aa(lp102
S'containing'
p103
aS'N'
p104
aS'VBG'
p105
aa(lp106
S'Li:Fe:P'
p107
aS'P'
p108
ag67
aa(lp109
S'in'
p110
aS'P'
p111
aS'IN'
p112
aa(lp113
S'the'
p114
aS'P'
p115
aS'DT'
p116
aa(lp117
S'stoichiometric'
p118
aS'P'
p119
ag18
aa(lp120
S'ratio'
p121
aS'P'
p122
ag22
aa(lp123
S'='
p124
aS'P'
p125
aS'VBD'
p126
aa(lp127
S'1:1:1'
p128
aS'P'
p129
aS'CD'
p130
aa(lp131
S'.'
p132
aS'N'
p133
aS'.'
p134
aa(lp135
S'***END***'
p136
ag4
ag4
aa(lp137
S'***END2***'
p138
ag4
ag4
aaa(lp139
(lp140
g3
ag4
ag4
aa(lp141
g6
ag4
ag4
aa(lp142
S'The'
p143
aS'N'
p144
aS'DT'
p145
aa(lp146
S'sucrose'
p147
aS'R'
p148
aS'JJ'
p149
aa(lp150
S'solution'
p151
aS'R'
p152
aS'NN'
p153
aa(lp154
S'was'
p155
aS'A'
p156
aS'VBD'
p157
aa(lp158
S'added'
p159
aS'A'
p160
aS'VBN'
p161
aa(lp162
S'to'
p163
aS'N'
p164
aS'TO'
p165
aa(lp166
S'ensure'
p167
aS'N'
p168
aS'VB'
p169
aa(lp170
S'nominal'
p171
aS'N'
p172
ag149
aa(lp173
S'carbon'
p174
aS'P'
p175
ag153
aa(lp176
S'content'
p177
aS'P'
p178
ag153
aa(lp179
S'15'
p180
aS'P'
p181
aS'CD'
p182
aa(lp183
S'or'
p184
aS'P'
p185
aS'CC'
p186
aa(lp187
S'20'
p188
aS'P'
p189
aS'CD'
p190
aa(lp191
S'wt.%'
p192
aS'P'
p193
ag153
aa(lp194
S'in'
p195
aS'N'
p196
aS'IN'
p197
aa(lp198
S'the'
p199
aS'N'
p200
aS'DT'
p201
aa(lp202
S'mixture'
p203
aS'R'
p204
ag153
aa(lp205
S'.'
p206
aS'N'
p207
aS'.'
p208
aa(lp209
g136
ag4
ag4
aa(lp210
g138
ag4
ag4
aaa(lp211
(lp212
g3
ag4
ag4
aa(lp213
g6
ag4
ag4
aa(lp214
S'These'
p215
aS'N'
p216
aS'DT'
p217
aa(lp218
S'values'
p219
aS'N'
p220
aS'NNS'
p221
aa(lp222
S'are'
p223
aS'N'
p224
aS'VBP'
p225
aa(lp226
S'close'
p227
aS'N'
p228
aS'JJ'
p229
aa(lp230
S'to'
p231
aS'N'
p232
aS'TO'
p233
aa(lp234
S'the'
p235
aS'N'
p236
aS'DT'
p237
aa(lp238
S'amount'
p239
aS'N'
p240
aS'NN'
p241
aa(lp242
S'of'
p243
aS'N'
p244
aS'IN'
p245
aa(lp246
S'carbon'
p247
aS'N'
p248
ag241
aa(lp249
S'black'
p250
aS'N'
p251
aS'JJ'
p252
aa(lp253
S'mixed'
p254
aS'N'
p255
ag229
aa(lp256
S'with'
p257
aS'N'
p258
aS'IN'
p259
aa(lp260
S'electrode'
p261
aS'N'
p262
ag229
aa(lp263
S'material'
p264
aS'N'
p265
ag241
aa(lp266
S'in'
p267
aS'N'
p268
aS'IN'
p269
aa(lp270
S'the'
p271
aS'N'
p272
ag237
aa(lp273
S'battery'
p274
aS'N'
p275
ag241
aa(lp276
S'industry'
p277
aS'N'
p278
aS'NN'
p279
aa(lp280
S'.'
p281
aS'N'
p282
aS'.'
p283
aa(lp284
g136
ag4
ag4
aa(lp285
g138
ag4
ag4
aaa(lp286
(lp287
g3
ag4
ag4
aa(lp288
g6
ag4
ag4
aa(lp289
S'The'
p290
aS'N'
p291
aS'DT'
p292
aa(lp293
S'solution'
p294
aS'R'
p295
aS'NN'
p296
aa(lp297
S'was'
p298
aS'A'
p299
aS'VBD'
p300
aa(lp301
S'sprayed'
p302
aS'A'
p303
aS'VBN'
p304
aa(lp305
S'in'
p306
aS'N'
p307
aS'IN'
p308
aa(lp309
S'a'
p310
aS'N'
p311
aS'DT'
p312
aa(lp313
S'heat'
p314
aS'R'
p315
ag296
aa(lp316
S'reactor'
p317
aS'R'
p318
ag296
aa(lp319
S'at'
p320
aS'N'
p321
aS'IN'
p322
aa(lp323
S'450'
p324
aS'P'
p325
aS'CD'
p326
aa(lp327
S'C'
p328
aS'P'
p329
aS'NNP'
p330
aa(lp331
S'and'
p332
aS'N'
p333
aS'CC'
p334
aa(lp335
S'the'
p336
aS'N'
p337
aS'DT'
p338
aa(lp339
S'obtained'
p340
aS'R'
p341
ag304
aa(lp342
S'precursor'
p343
aS'R'
p344
ag296
aa(lp345
S'was'
p346
aS'A'
p347
ag300
aa(lp348
S'briefly'
p349
aS'N'
p350
ag296
aa(lp351
S'sintered'
p352
aS'A'
p353
ag300
aa(lp354
S'at'
p355
aS'N'
p356
ag322
aa(lp357
S'700'
p358
aS'P'
p359
ag326
aa(lp360
S'C'
p361
aS'P'
p362
ag330
aa(lp363
S'(for'
p364
aS'N'
p365
ag300
aa(lp366
S'4'
p367
aS'P'
p368
aS'CD'
p369
aa(lp370
S'h)'
p371
aS'P'
p372
ag296
aa(lp373
S'.'
p374
aS'N'
p375
aS'.'
p376
aa(lp377
g136
ag4
ag4
aa(lp378
g138
ag4
ag4
aaa(lp379
(lp380
g3
ag4
ag4
aa(lp381
g6
ag4
ag4
aa(lp382
S'This'
p383
aS'N'
p384
aS'DT'
p385
aa(lp386
S'regime'
p387
aS'N'
p388
aS'NN'
p389
aa(lp390
S'was'
p391
aS'N'
p392
aS'VBD'
p393
aa(lp394
S'found'
p395
aS'N'
p396
aS'VBN'
p397
aa(lp398
S'to'
p399
aS'N'
p400
aS'TO'
p401
aa(lp402
S'be'
p403
aS'N'
p404
aS'VB'
p405
aa(lp406
S'most'
p407
aS'N'
p408
aS'RBS'
p409
aa(lp410
S'appropriate'
p411
aS'N'
p412
aS'JJ'
p413
aa(lp414
S'to'
p415
aS'N'
p416
ag401
aa(lp417
S'produce'
p418
aS'N'
p419
aS'VB'
p420
aa(lp421
S'the'
p422
aS'N'
p423
aS'DT'
p424
aa(lp425
S'finest'
p426
aS'N'
p427
aS'JJS'
p428
aa(lp429
S'powder'
p430
aS'N'
p431
ag389
aa(lp432
S'and'
p433
aS'N'
p434
aS'CC'
p435
aa(lp436
S'therefore'
p437
aS'N'
p438
aS'RB'
p439
aa(lp440
S'to'
p441
aS'N'
p442
ag401
aa(lp443
S'promote'
p444
aS'N'
p445
ag420
aa(lp446
S'Li'
p447
aS'N'
p448
aS'NNP'
p449
aa(lp450
S'diffusion'
p451
aS'N'
p452
ag389
aa(lp453
S','
p454
aS'N'
p455
aS','
p456
aa(lp457
S'which'
p458
aS'N'
p459
aS'WDT'
p460
aa(lp461
S'is'
p462
aS'N'
p463
aS'VBZ'
p464
aa(lp465
S'a'
p466
aS'N'
p467
aS'DT'
p468
aa(lp469
S'limiting'
p470
aS'N'
p471
ag413
aa(lp472
S'factor'
p473
aS'N'
p474
ag389
aa(lp475
S'in'
p476
aS'N'
p477
aS'IN'
p478
aa(lp479
S'LFP'
p480
aS'N'
p481
ag449
aa(lp482
S'materials'
p483
aS'N'
p484
aS'NNS'
p485
aa(lp486
S'.'
p487
aS'N'
p488
aS'.'
p489
aa(lp490
g136
ag4
ag4
aa(lp491
g138
ag4
ag4
aaa(lp492
(lp493
g3
ag4
ag4
aa(lp494
g6
ag4
ag4
aa(lp495
S'In'
p496
aS'N'
p497
aS'IN'
p498
aa(lp499
S'some'
p500
aS'N'
p501
aS'DT'
p502
aa(lp503
S'cases'
p504
aS'N'
p505
aS'NNS'
p506
aa(lp507
S','
p508
aS'N'
p509
aS','
p510
aa(lp511
S'the'
p512
aS'N'
p513
aS'DT'
p514
aa(lp515
S'powder'
p516
aS'N'
p517
aS'NN'
p518
aa(lp519
S'was'
p520
aS'N'
p521
aS'VBD'
p522
aa(lp523
S'slightly'
p524
aS'N'
p525
aS'RB'
p526
aa(lp527
S'compacted'
p528
aS'N'
p529
aS'VBN'
p530
aa(lp531
S'before'
p532
aS'N'
p533
ag498
aa(lp534
S'the'
p535
aS'N'
p536
ag514
aa(lp537
S'final'
p538
aS'N'
p539
aS'JJ'
p540
aa(lp541
S'sintering'
p542
aS'N'
p543
ag518
aa(lp544
S'.'
p545
aS'N'
p546
aS'.'
p547
aa(lp548
g136
ag4
ag4
aa(lp549
g138
ag4
ag4
aaa(lp550
(lp551
g3
ag4
ag4
aa(lp552
g6
ag4
ag4
aa(lp553
S'The'
p554
aS'N'
p555
aS'DT'
p556
aa(lp557
S'materials'
p558
aS'R'
p559
aS'NNS'
p560
aa(lp561
S'were'
p562
aS'A'
p563
aS'VBD'
p564
aa(lp565
S'analyzed'
p566
aS'A'
p567
aS'VBN'
p568
aa(lp569
S'by'
p570
aS'N'
p571
aS'IN'
p572
aa(lp573
S'X-ray'
p574
aS'R'
p575
aS'JJ'
p576
aa(lp577
S'diffraction'
p578
aS'R'
p579
aS'NN'
p580
aa(lp581
S'analysis'
p582
aS'R'
p583
ag580
aa(lp584
S'(XRD)'
p585
aS'R'
p586
aS'NNP'
p587
aa(lp588
S','
p589
aS'N'
p590
aS','
p591
aa(lp592
S'scanning'
p593
aS'R'
p594
aS'VBG'
p595
aa(lp596
S'electron'
p597
aS'R'
p598
ag580
aa(lp599
S'microscopy'
p600
aS'R'
p601
ag580
aa(lp602
S'(SEM)'
p603
aS'R'
p604
ag587
aa(lp605
S'and'
p606
aS'N'
p607
aS'CC'
p608
aa(lp609
S'a'
p610
aS'N'
p611
aS'DT'
p612
aa(lp613
S'gas'
p614
aS'R'
p615
aS'NN'
p616
aa(lp617
S'sorption'
p618
aS'R'
p619
ag580
aa(lp620
S'technique'
p621
aS'R'
p622
ag580
aa(lp623
S'to'
p624
aS'N'
p625
aS'TO'
p626
aa(lp627
S'evaluate'
p628
aS'N'
p629
aS'VB'
p630
aa(lp631
S'the'
p632
aS'N'
p633
aS'DT'
p634
aa(lp635
S'specific'
p636
aS'P'
p637
ag576
aa(lp638
S'surface'
p639
aS'P'
p640
ag580
aa(lp641
S'area'
p642
aS'P'
p643
aS'NN'
p644
aa(lp645
S'by'
p646
aS'N'
p647
ag572
aa(lp648
S'the'
p649
aS'N'
p650
ag634
aa(lp651
S'BET'
p652
aS'R'
p653
ag587
aa(lp654
S'method'
p655
aS'R'
p656
ag580
aa(lp657
S'.'
p658
aS'N'
p659
aS'.'
p660
aa(lp661
g136
ag4
ag4
aa(lp662
g138
ag4
ag4
aaa(lp663
(lp664
g3
ag4
ag4
aa(lp665
g6
ag4
ag4
aa(lp666
S'For'
p667
aS'N'
p668
aS'IN'
p669
aa(lp670
S'electrochemical'
p671
aS'N'
p672
aS'JJ'
p673
aa(lp674
S'characterization'
p675
aS'N'
p676
aS'NN'
p677
aa(lp678
S','
p679
aS'N'
p680
aS','
p681
aa(lp682
S'Li-ion'
p683
aS'R'
p684
aS'NNP'
p685
aa(lp686
S'cells'
p687
aS'R'
p688
aS'NNS'
p689
aa(lp690
S'were'
p691
aS'A'
p692
aS'VBD'
p693
aa(lp694
S'assembled'
p695
aS'A'
p696
aS'VBN'
p697
aa(lp698
S'in'
p699
aS'N'
p700
aS'IN'
p701
aa(lp702
S'which'
p703
aS'N'
p704
aS'WDT'
p705
aa(lp706
S'the'
p707
aS'N'
p708
aS'DT'
p709
aa(lp710
S'carbon-containing'
p711
aS'R'
p712
ag677
aa(lp713
S'LFP'
p714
aS'R'
p715
ag685
aa(lp716
S'materials'
p717
aS'R'
p718
aS'NNS'
p719
aa(lp720
S'were'
p721
aS'N'
p722
ag693
aa(lp723
S'used'
p724
aS'N'
p725
ag697
aa(lp726
S'as'
p727
aS'N'
p728
aS'IN'
p729
aa(lp730
S'a'
p731
aS'N'
p732
aS'DT'
p733
aa(lp734
S'cathode'
p735
aS'N'
p736
ag677
aa(lp737
S'material'
p738
aS'N'
p739
ag677
aa(lp740
S'and'
p741
aS'N'
p742
aS'CC'
p743
aa(lp744
S'graphite'
p745
aS'R'
p746
ag673
aa(lp747
S'powder'
p748
aS'R'
p749
ag677
aa(lp750
S'was'
p751
aS'N'
p752
aS'VBD'
p753
aa(lp754
S'used'
p755
aS'N'
p756
ag697
aa(lp757
S'as'
p758
aS'N'
p759
ag729
aa(lp760
S'an'
p761
aS'N'
p762
aS'DT'
p763
aa(lp764
S'anode'
p765
aS'N'
p766
ag673
aa(lp767
S'material'
p768
aS'N'
p769
ag677
aa(lp770
S'.'
p771
aS'N'
p772
aS'.'
p773
aa(lp774
g136
ag4
ag4
aa(lp775
g138
ag4
ag4
aaa(lp776
(lp777
g3
ag4
ag4
aa(lp778
g6
ag4
ag4
aa(lp779
S'One'
p780
aS'P'
p781
aS'CD'
p782
aa(lp783
S'mole'
p784
aS'P'
p785
aS'NN'
p786
aa(lp787
S'LiPF6'
p788
aS'R'
p789
aS'NNP'
p790
aa(lp791
S'in'
p792
aS'N'
p793
aS'IN'
p794
aa(lp795
S'a'
p796
aS'N'
p797
aS'DT'
p798
aa(lp799
S'1:1'
p800
aS'P'
p801
ag782
aa(lp802
S'mixture'
p803
aS'P'
p804
ag786
aa(lp805
S'with'
p806
aS'N'
p807
aS'IN'
p808
aa(lp809
S'ethylene'
p810
aS'R'
p811
aS'JJ'
p812
aa(lp813
S'carbonate'
p814
aS'R'
p815
ag786
aa(lp816
S'and'
p817
aS'N'
p818
aS'CC'
p819
aa(lp820
S'dimethyl'
p821
aS'R'
p822
ag786
aa(lp823
S'carbonate'
p824
aS'R'
p825
ag786
aa(lp826
S'was'
p827
aS'A'
p828
aS'VBD'
p829
aa(lp830
S'used'
p831
aS'A'
p832
aS'VBN'
p833
aa(lp834
S'as'
p835
aS'N'
p836
aS'IN'
p837
aa(lp838
S'the'
p839
aS'N'
p840
aS'DT'
p841
aa(lp842
S'electrolyte'
p843
aS'N'
p844
ag786
aa(lp845
S'.'
p846
aS'N'
p847
aS'.'
p848
aa(lp849
g136
ag4
ag4
aa(lp850
g138
ag4
ag4
aaa.