(lp0
(lp1
(lp2
S'***START***'
p3
aS'None'
p4
ag4
aa(lp5
S'***START2***'
p6
ag4
ag4
aa(lp7
S'The'
p8
aS'N'
p9
aS'DT'
p10
aa(lp11
S'S/C'
p12
aS'PR'
p13
aS'NNP'
p14
aa(lp15
S'composites'
p16
aS'PR'
p17
aS'NNS'
p18
aa(lp19
S'were'
p20
aS'A'
p21
aS'VBD'
p22
aa(lp23
S'pulverized'
p24
aS'A'
p25
aS'VBN'
p26
aa(lp27
S'using'
p28
aS'N'
p29
aS'VBG'
p30
aa(lp31
S'a'
p32
aS'N'
p33
aS'DT'
p34
aa(lp35
S'ball'
p36
aS'E'
p37
aS'NN'
p38
aa(lp39
S'mill'
p40
aS'E'
p41
ag38
aa(lp42
S'and'
p43
aS'N'
p44
aS'CC'
p45
aa(lp46
S'sieved'
p47
aS'E'
p48
aS'VBD'
p49
aa(lp50
S'through'
p51
aS'N'
p52
aS'IN'
p53
aa(lp54
S'a'
p55
aS'N'
p56
ag34
aa(lp57
S'25'
p58
aS'P'
p59
aS'CD'
p60
aa(lp61
S'm'
p62
aS'P'
p63
ag38
aa(lp64
S'opening'
p65
aS'P'
p66
ag38
aa(lp67
S'stainless'
p68
aS'I'
p69
ag38
aa(lp70
S'steel'
p71
aS'I'
p72
aS'NN'
p73
aa(lp74
S'sieve'
p75
aS'I'
p76
ag18
aa(lp77
S'.'
p78
aS'N'
p79
aS'.'
p80
aa(lp81
S'***END***'
p82
ag4
ag4
aa(lp83
S'***END2***'
p84
ag4
ag4
aaa(lp85
(lp86
g3
ag4
ag4
aa(lp87
g6
ag4
ag4
aa(lp88
S'Slurries'
p89
aS'PR'
p90
aS'NNS'
p91
aa(lp92
S'were'
p93
aS'A'
p94
aS'VBD'
p95
aa(lp96
S'prepared'
p97
aS'A'
p98
aS'VBN'
p99
aa(lp100
S'using'
p101
aS'N'
p102
aS'VBG'
p103
aa(lp104
S'the'
p105
aS'N'
p106
aS'DT'
p107
aa(lp108
S'S/C'
p109
aS'R'
p110
aS'NNP'
p111
aa(lp112
S'composites'
p113
aS'R'
p114
ag91
aa(lp115
S'and'
p116
aS'N'
p117
aS'CC'
p118
aa(lp119
S'a'
p120
aS'N'
p121
aS'DT'
p122
aa(lp123
S'solution'
p124
aS'N'
p125
aS'NN'
p126
aa(lp127
S'of'
p128
aS'N'
p129
aS'IN'
p130
aa(lp131
S'1'
p132
aS'P'
p133
aS'CD'
p134
aa(lp135
S'wt'
p136
aS'P'
p137
ag126
aa(lp138
S'%'
p139
aS'P'
p140
aS'NN'
p141
aa(lp142
S'fluoride)'
p143
aS'I'
p144
aS'JJ'
p145
aa(lp146
S'(PVDF)'
p147
aS'I'
p148
ag126
aa(lp149
S'in'
p150
aS'N'
p151
aS'IN'
p152
aa(lp153
S'anhydrous'
p154
aS'I'
p155
ag145
aa(lp156
S'N-methyl-2-pyrolidinone'
p157
aS'I'
p158
ag145
aa(lp159
S'(NMP)'
p160
aS'I'
p161
ag126
aa(lp162
S'with'
p163
aS'N'
p164
aS'IN'
p165
aa(lp166
S'a'
p167
aS'N'
p168
ag122
aa(lp169
S'ratio'
p170
aS'P'
p171
ag126
aa(lp172
S'of'
p173
aS'P'
p174
ag130
aa(lp175
S'1:5'
p176
aS'P'
p177
aS'CD'
p178
aa(lp179
S'.'
p180
aS'N'
p181
aS'.'
p182
aa(lp183
g82
ag4
ag4
aa(lp184
g84
ag4
ag4
aaa(lp185
(lp186
g3
ag4
ag4
aa(lp187
g6
ag4
ag4
aa(lp188
S'The'
p189
aS'N'
p190
aS'DT'
p191
aa(lp192
S'slurries'
p193
aS'R'
p194
aS'NNS'
p195
aa(lp196
S'were'
p197
aS'A'
p198
aS'VBD'
p199
aa(lp200
S'applied'
p201
aS'A'
p202
aS'VBN'
p203
aa(lp204
S'to'
p205
aS'N'
p206
aS'TO'
p207
aa(lp208
S'10'
p209
aS'P'
p210
aS'CD'
p211
aa(lp212
S'mm'
p213
aS'P'
p214
ag195
aa(lp215
S'diameter'
p216
aS'P'
p217
aS'RB'
p218
aa(lp219
S'aluminum'
p220
aS'I'
p221
aS'VBP'
p222
aa(lp223
S'current'
p224
aS'N'
p225
aS'JJ'
p226
aa(lp227
S'collectors'
p228
aS'N'
p229
ag195
aa(lp230
S'and'
p231
aS'N'
p232
aS'CC'
p233
aa(lp234
S'dried'
p235
aS'A'
p236
ag203
aa(lp237
S'at'
p238
aS'N'
p239
aS'IN'
p240
aa(lp241
S'120'
p242
aS'P'
p243
aS'CD'
p244
aa(lp245
S'C'
p246
aS'P'
p247
aS'NNP'
p248
aa(lp249
S'for'
p250
aS'N'
p251
aS'IN'
p252
aa(lp253
S'4'
p254
aS'P'
p255
aS'CD'
p256
aa(lp257
S'h'
p258
aS'P'
p259
aS'NN'
p260
aa(lp261
S'.'
p262
aS'N'
p263
aS'.'
p264
aa(lp265
g82
ag4
ag4
aa(lp266
g84
ag4
ag4
aaa(lp267
(lp268
g3
ag4
ag4
aa(lp269
g6
ag4
ag4
aa(lp270
S'For'
p271
aS'N'
p272
aS'IN'
p273
aa(lp274
S'the'
p275
aS'N'
p276
aS'DT'
p277
aa(lp278
S'purpose'
p279
aS'N'
p280
aS'NN'
p281
aa(lp282
S'of'
p283
aS'N'
p284
aS'IN'
p285
aa(lp286
S'comparison'
p287
aS'N'
p288
ag281
aa(lp289
S','
p290
aS'N'
p291
aS','
p292
aa(lp293
S'the'
p294
aS'N'
p295
ag277
aa(lp296
S'original'
p297
aS'N'
p298
aS'JJ'
p299
aa(lp300
S'mesoporous'
p301
aS'I'
p302
ag299
aa(lp303
S'carbon'
p304
aS'I'
p305
ag281
aa(lp306
S'(MPC)'
p307
aS'I'
p308
ag281
aa(lp309
S'with'
p310
aS'N'
p311
aS'IN'
p312
aa(lp313
S'24.1'
p314
aS'P'
p315
aS'CD'
p316
aa(lp317
S'wt'
p318
aS'P'
p319
aS'NNS'
p320
aa(lp321
S'%'
p322
aS'P'
p323
aS'NN'
p324
aa(lp325
S'sulfur'
p326
aS'I'
p327
ag299
aa(lp328
S'loading'
p329
aS'N'
p330
ag281
aa(lp331
S'and'
p332
aS'N'
p333
aS'CC'
p334
aa(lp335
S'WVA-1500'
p336
aS'I'
p337
aS'NNP'
p338
aa(lp339
S'(MeadWestvaco'
p340
aS'N'
p341
ag338
aa(lp342
S'Corporation)'
p343
aS'N'
p344
ag338
aa(lp345
S'with'
p346
aS'N'
p347
ag312
aa(lp348
S'sulfur'
p349
aS'I'
p350
ag299
aa(lp351
S'loading'
p352
aS'N'
p353
ag281
aa(lp354
S'of'
p355
aS'N'
p356
ag285
aa(lp357
S'25.2'
p358
aS'P'
p359
ag316
aa(lp360
S'wt'
p361
aS'P'
p362
ag320
aa(lp363
S'%'
p364
aS'P'
p365
ag324
aa(lp366
S'were'
p367
aS'A'
p368
aS'VBD'
p369
aa(lp370
S'also'
p371
aS'N'
p372
aS'RB'
p373
aa(lp374
S'prepared'
p375
aS'A'
p376
aS'VBN'
p377
aa(lp378
S'as'
p379
aS'N'
p380
aS'IN'
p381
aa(lp382
S'cathodes'
p383
aS'N'
p384
ag320
aa(lp385
S'by'
p386
aS'N'
p387
aS'IN'
p388
aa(lp389
S'applying'
p390
aS'N'
p391
aS'VBG'
p392
aa(lp393
S'an'
p394
aS'N'
p395
aS'DT'
p396
aa(lp397
S'identical'
p398
aS'E'
p399
ag299
aa(lp400
S'procedure'
p401
aS'E'
p402
ag281
aa(lp403
S'that'
p404
aS'N'
p405
aS'WDT'
p406
aa(lp407
S'was'
p408
aS'N'
p409
aS'VBD'
p410
aa(lp411
S'used'
p412
aS'N'
p413
ag377
aa(lp414
S'for'
p415
aS'N'
p416
aS'IN'
p417
aa(lp418
S'the'
p419
aS'N'
p420
ag277
aa(lp421
S'preparation'
p422
aS'N'
p423
ag281
aa(lp424
S'of'
p425
aS'N'
p426
ag285
aa(lp427
S'S/C'
p428
aS'N'
p429
ag338
aa(lp430
S'composite'
p431
aS'N'
p432
ag299
aa(lp433
S'cathodes'
p434
aS'N'
p435
ag320
aa(lp436
S'.'
p437
aS'N'
p438
aS'.'
p439
aa(lp440
g82
ag4
ag4
aa(lp441
g84
ag4
ag4
aaa(lp442
(lp443
g3
ag4
ag4
aa(lp444
g6
ag4
ag4
aa(lp445
S'The'
p446
aS'N'
p447
aS'DT'
p448
aa(lp449
S'batteries'
p450
aS'PR'
p451
aS'NNS'
p452
aa(lp453
S'were'
p454
aS'A'
p455
aS'VBD'
p456
aa(lp457
S'assembled'
p458
aS'A'
p459
aS'VBN'
p460
aa(lp461
S'as'
p462
aS'N'
p463
aS'IN'
p464
aa(lp465
S'Swagelok'
p466
aS'E'
p467
aS'NNP'
p468
aa(lp469
S'cells'
p470
aS'E'
p471
aS'NNS'
p472
aa(lp473
S'by'
p474
aS'N'
p475
aS'IN'
p476
aa(lp477
S'using'
p478
aS'N'
p479
aS'VBG'
p480
aa(lp481
S'the'
p482
aS'N'
p483
aS'DT'
p484
aa(lp485
S'S/C'
p486
aS'R'
p487
ag468
aa(lp488
S'composite'
p489
aS'R'
p490
aS'JJ'
p491
aa(lp492
S'coated'
p493
aS'R'
p494
aS'VBD'
p495
aa(lp496
S'aluminum'
p497
aS'R'
p498
aS'NN'
p499
aa(lp500
S'foil'
p501
aS'R'
p502
ag499
aa(lp503
S'(10'
p504
aS'P'
p505
ag468
aa(lp506
S'mm'
p507
aS'P'
p508
ag499
aa(lp509
S'diameter'
p510
aS'P'
p511
ag499
aa(lp512
S','
p513
aS'N'
p514
aS','
p515
aa(lp516
S'7'
p517
aS'P'
p518
aS'CD'
p519
aa(lp520
S'mm'
p521
aS'P'
p522
ag499
aa(lp523
S'thickness)'
p524
aS'P'
p525
ag499
aa(lp526
S'as'
p527
aS'N'
p528
ag464
aa(lp529
S'the'
p530
aS'N'
p531
ag484
aa(lp532
S'cathode'
p533
aS'N'
p534
ag499
aa(lp535
S','
p536
aS'N'
p537
ag515
aa(lp538
S'and'
p539
aS'N'
p540
aS'CC'
p541
aa(lp542
S'a'
p543
aS'N'
p544
aS'DT'
p545
aa(lp546
S'lithium'
p547
aS'I'
p548
ag499
aa(lp549
S'foil'
p550
aS'I'
p551
ag499
aa(lp552
S'(7'
p553
aS'P'
p554
ag468
aa(lp555
S'mm'
p556
aS'P'
p557
ag499
aa(lp558
S'thickness'
p559
aS'P'
p560
ag499
aa(lp561
S'and'
p562
aS'N'
p563
ag541
aa(lp564
S'10'
p565
aS'P'
p566
aS'CD'
p567
aa(lp568
S'mm'
p569
aS'P'
p570
ag499
aa(lp571
S'diameter)'
p572
aS'P'
p573
ag499
aa(lp574
S'as'
p575
aS'N'
p576
ag464
aa(lp577
S'the'
p578
aS'N'
p579
ag484
aa(lp580
S'anode'
p581
aS'N'
p582
ag499
aa(lp583
S','
p584
aS'N'
p585
ag515
aa(lp586
S'a'
p587
aS'N'
p588
ag545
aa(lp589
S'Celgard'
p590
aS'I'
p591
ag468
aa(lp592
S'3225'
p593
aS'I'
p594
aS'CD'
p595
aa(lp596
S'separator'
p597
aS'I'
p598
ag499
aa(lp599
S'(10.3'
p600
aS'P'
p601
ag468
aa(lp602
S'mm'
p603
aS'P'
p604
ag499
aa(lp605
S'diameter)'
p606
aS'P'
p607
ag499
aa(lp608
S','
p609
aS'N'
p610
ag515
aa(lp611
S'and'
p612
aS'N'
p613
ag541
aa(lp614
S'an'
p615
aS'N'
p616
aS'DT'
p617
aa(lp618
S'organic'
p619
aS'R'
p620
ag491
aa(lp621
S'electrolyte'
p622
aS'R'
p623
ag499
aa(lp624
S'.'
p625
aS'N'
p626
aS'.'
p627
aa(lp628
g82
ag4
ag4
aa(lp629
g84
ag4
ag4
aaa(lp630
(lp631
g3
ag4
ag4
aa(lp632
g6
ag4
ag4
aa(lp633
S'The'
p634
aS'N'
p635
aS'DT'
p636
aa(lp637
S'organic'
p638
aS'PR'
p639
aS'JJ'
p640
aa(lp641
S'electrolytes'
p642
aS'PR'
p643
aS'NNS'
p644
aa(lp645
S'were'
p646
aS'N'
p647
aS'VBD'
p648
aa(lp649
S'solutions'
p650
aS'N'
p651
ag644
aa(lp652
S'of'
p653
aS'N'
p654
aS'IN'
p655
aa(lp656
S'Bis-'
p657
aS'I'
p658
aS'NNP'
p659
aa(lp660
S'(trifluoromethane)sulfonimide'
p661
aS'I'
p662
ag659
aa(lp663
S'lithium'
p664
aS'I'
p665
aS'NN'
p666
aa(lp667
S'(LiTFSI)'
p668
aS'I'
p669
ag659
aa(lp670
S'(99.95%'
p671
aS'P'
p672
ag659
aa(lp673
S'trace'
p674
aS'P'
p675
ag666
aa(lp676
S'metals'
p677
aS'P'
p678
ag644
aa(lp679
S'basis)'
p680
aS'P'
p681
aS'VBP'
p682
aa(lp683
S'in'
p684
aS'N'
p685
aS'IN'
p686
aa(lp687
S'a'
p688
aS'N'
p689
aS'DT'
p690
aa(lp691
S'mixed'
p692
aS'N'
p693
ag640
aa(lp694
S'solvent'
p695
aS'N'
p696
ag666
aa(lp697
S'of'
p698
aS'N'
p699
ag655
aa(lp700
S'1,3-dioxolane'
p701
aS'I'
p702
ag640
aa(lp703
S'(DOL)'
p704
aS'I'
p705
ag666
aa(lp706
S'and'
p707
aS'N'
p708
aS'CC'
p709
aa(lp710
S'dimethoxyethane'
p711
aS'I'
p712
ag666
aa(lp713
S'(DME)'
p714
aS'I'
p715
ag644
aa(lp716
S'with'
p717
aS'N'
p718
aS'IN'
p719
aa(lp720
S'volume'
p721
aS'P'
p722
aS'NN'
p723
aa(lp724
S'ratio'
p725
aS'P'
p726
ag666
aa(lp727
S'of'
p728
aS'P'
p729
ag655
aa(lp730
S'55:40'
p731
aS'P'
p732
aS'CD'
p733
aa(lp734
S'.'
p735
aS'N'
p736
aS'.'
p737
aa(lp738
g82
ag4
ag4
aa(lp739
g84
ag4
ag4
aaa(lp740
(lp741
g3
ag4
ag4
aa(lp742
g6
ag4
ag4
aa(lp743
S'The'
p744
aS'N'
p745
aS'DT'
p746
aa(lp747
S'organic'
p748
aS'N'
p749
aS'JJ'
p750
aa(lp751
S'electrolyte'
p752
aS'N'
p753
aS'NN'
p754
aa(lp755
S'filled'
p756
aS'N'
p757
aS'VBD'
p758
aa(lp759
S'the'
p760
aS'N'
p761
aS'DT'
p762
aa(lp763
S'pores'
p764
aS'N'
p765
aS'NNS'
p766
aa(lp767
S'of'
p768
aS'N'
p769
aS'IN'
p770
aa(lp771
S'the'
p772
aS'N'
p773
ag762
aa(lp774
S'cathode'
p775
aS'N'
p776
ag754
aa(lp777
S'and'
p778
aS'N'
p779
aS'CC'
p780
aa(lp781
S'separator'
p782
aS'N'
p783
ag754
aa(lp784
S'.'
p785
aS'N'
p786
aS'.'
p787
aa(lp788
g82
ag4
ag4
aa(lp789
g84
ag4
ag4
aaa(lp790
(lp791
g3
ag4
ag4
aa(lp792
g6
ag4
ag4
aa(lp793
S'The'
p794
aS'N'
p795
aS'DT'
p796
aa(lp797
S'cathode'
p798
aS'R'
p799
aS'NN'
p800
aa(lp801
S','
p802
aS'N'
p803
aS','
p804
aa(lp805
S'separator'
p806
aS'R'
p807
ag800
aa(lp808
S','
p809
aS'N'
p810
ag804
aa(lp811
S'and'
p812
aS'N'
p813
aS'CC'
p814
aa(lp815
S'anode'
p816
aS'R'
p817
aS'NNS'
p818
aa(lp819
S'were'
p820
aS'A'
p821
aS'VBD'
p822
aa(lp823
S'pressed'
p824
aS'A'
p825
aS'VBN'
p826
aa(lp827
S'by'
p828
aS'N'
p829
aS'IN'
p830
aa(lp831
S'a'
p832
aS'N'
p833
aS'DT'
p834
aa(lp835
S'spring'
p836
aS'I'
p837
ag800
aa(lp838
S'to'
p839
aS'N'
p840
aS'TO'
p841
aa(lp842
S'ensure'
p843
aS'N'
p844
aS'VB'
p845
aa(lp846
S'tight'
p847
aS'N'
p848
aS'JJ'
p849
aa(lp850
S'contact'
p851
aS'N'
p852
ag800
aa(lp853
S'.'
p854
aS'N'
p855
aS'.'
p856
aa(lp857
g82
ag4
ag4
aa(lp858
g84
ag4
ag4
aaa(lp859
(lp860
g3
ag4
ag4
aa(lp861
g6
ag4
ag4
aa(lp862
S'A'
p863
aS'N'
p864
aS'DT'
p865
aa(lp866
S'typical'
p867
aS'N'
p868
aS'JJ'
p869
aa(lp870
S'cell'
p871
aS'N'
p872
aS'NN'
p873
aa(lp874
S'contained'
p875
aS'N'
p876
aS'VBD'
p877
aa(lp878
S'about'
p879
aS'N'
p880
aS'IN'
p881
aa(lp882
S'0.2'
p883
aS'N'
p884
aS'CD'
p885
aa(lp886
S'mg'
p887
aS'N'
p888
aS'NNS'
p889
aa(lp890
S'of'
p891
aS'N'
p892
aS'IN'
p893
aa(lp894
S'sulfur'
p895
aS'N'
p896
ag873
aa(lp897
S'.'
p898
aS'N'
p899
aS'.'
p900
aa(lp901
g82
ag4
ag4
aa(lp902
g84
ag4
ag4
aaa(lp903
(lp904
g3
ag4
ag4
aa(lp905
g6
ag4
ag4
aa(lp906
S'No'
p907
aS'N'
p908
aS'DT'
p909
aa(lp910
S'excess'
p911
aS'N'
p912
aS'NN'
p913
aa(lp914
S'of'
p915
aS'N'
p916
aS'IN'
p917
aa(lp918
S'electrolyte'
p919
aS'N'
p920
ag913
aa(lp921
S'was'
p922
aS'N'
p923
aS'VBD'
p924
aa(lp925
S'left'
p926
aS'N'
p927
aS'VBN'
p928
aa(lp929
S'in'
p930
aS'N'
p931
aS'IN'
p932
aa(lp933
S'the'
p934
aS'N'
p935
aS'DT'
p936
aa(lp937
S'assembled'
p938
aS'N'
p939
aS'JJ'
p940
aa(lp941
S'cell'
p942
aS'N'
p943
ag913
aa(lp944
S'.'
p945
aS'N'
p946
aS'.'
p947
aa(lp948
g82
ag4
ag4
aa(lp949
g84
ag4
ag4
aaa(lp950
(lp951
g3
ag4
ag4
aa(lp952
g6
ag4
ag4
aa(lp953
S'The'
p954
aS'N'
p955
aS'DT'
p956
aa(lp957
S'batteries'
p958
aS'R'
p959
aS'NNS'
p960
aa(lp961
S'were'
p962
aS'A'
p963
aS'VBD'
p964
aa(lp965
S'tested'
p966
aS'A'
p967
aS'VBN'
p968
aa(lp969
S'in'
p970
aS'N'
p971
aS'IN'
p972
aa(lp973
S'a'
p974
aS'N'
p975
aS'DT'
p976
aa(lp977
S'Maccor'
p978
aS'E'
p979
aS'NNP'
p980
aa(lp981
S'4000'
p982
aS'E'
p983
aS'CD'
p984
aa(lp985
S'series'
p986
aS'E'
p987
aS'NN'
p988
aa(lp989
S'battery'
p990
aS'E'
p991
aS'NN'
p992
aa(lp993
S'tester'
p994
aS'E'
p995
ag992
aa(lp996
S'.'
p997
aS'N'
p998
aS'.'
p999
aa(lp1000
g82
ag4
ag4
aa(lp1001
g84
ag4
ag4
aaa(lp1002
(lp1003
g3
ag4
ag4
aa(lp1004
g6
ag4
ag4
aa(lp1005
S'The'
p1006
aS'N'
p1007
aS'DT'
p1008
aa(lp1009
S'batteries'
p1010
aS'R'
p1011
aS'NNS'
p1012
aa(lp1013
S'were'
p1014
aS'A'
p1015
aS'VBD'
p1016
aa(lp1017
S'cycled'
p1018
aS'A'
p1019
aS'VBN'
p1020
aa(lp1021
S'between'
p1022
aS'P'
p1023
aS'IN'
p1024
aa(lp1025
S'1.0'
p1026
aS'P'
p1027
aS'CD'
p1028
aa(lp1029
S'to'
p1030
aS'P'
p1031
aS'TO'
p1032
aa(lp1033
S'3.6'
p1034
aS'P'
p1035
ag1028
aa(lp1036
S'V'
p1037
aS'P'
p1038
aS'NNP'
p1039
aa(lp1040
S'.'
p1041
aS'N'
p1042
aS'.'
p1043
aa(lp1044
g82
ag4
ag4
aa(lp1045
g84
ag4
ag4
aaa(lp1046
(lp1047
g3
ag4
ag4
aa(lp1048
g6
ag4
ag4
aa(lp1049
S'Each'
p1050
aS'N'
p1051
aS'DT'
p1052
aa(lp1053
S'cycle'
p1054
aS'N'
p1055
aS'NN'
p1056
aa(lp1057
S'was'
p1058
aS'N'
p1059
aS'VBD'
p1060
aa(lp1061
S'started'
p1062
aS'N'
p1063
aS'VBN'
p1064
aa(lp1065
S'with'
p1066
aS'N'
p1067
aS'IN'
p1068
aa(lp1069
S'the'
p1070
aS'N'
p1071
aS'DT'
p1072
aa(lp1073
S'discharge'
p1074
aS'N'
p1075
aS'NN'
p1076
aa(lp1077
S'half-cycle'
p1078
aS'N'
p1079
ag1076
aa(lp1080
S'.'
p1081
aS'N'
p1082
aS'.'
p1083
aa(lp1084
g82
ag4
ag4
aa(lp1085
g84
ag4
ag4
aaa(lp1086
(lp1087
g3
ag4
ag4
aa(lp1088
g6
ag4
ag4
aa(lp1089
S'Unless'
p1090
aS'N'
p1091
aS'IN'
p1092
aa(lp1093
S'specified'
p1094
aS'N'
p1095
aS'VBN'
p1096
aa(lp1097
S','
p1098
aS'N'
p1099
aS','
p1100
aa(lp1101
S'all'
p1102
aS'N'
p1103
aS'DT'
p1104
aa(lp1105
S'batteries'
p1106
aS'R'
p1107
aS'NNS'
p1108
aa(lp1109
S'were'
p1110
aS'A'
p1111
aS'VBD'
p1112
aa(lp1113
S'tested'
p1114
aS'A'
p1115
ag1096
aa(lp1116
S'at'
p1117
aS'N'
p1118
aS'IN'
p1119
aa(lp1120
S'the'
p1121
aS'N'
p1122
aS'DT'
p1123
aa(lp1124
S'same'
p1125
aS'N'
p1126
aS'JJ'
p1127
aa(lp1128
S'current'
p1129
aS'P'
p1130
aS'JJ'
p1131
aa(lp1132
S'of'
p1133
aS'P'
p1134
aS'IN'
p1135
aa(lp1136
S'0.5'
p1137
aS'P'
p1138
aS'CD'
p1139
aa(lp1140
S'mA'
p1141
aS'P'
p1142
aS'NN'
p1143
aa(lp1144
S'for'
p1145
aS'N'
p1146
aS'IN'
p1147
aa(lp1148
S'both'
p1149
aS'N'
p1150
ag1104
aa(lp1151
S'charging'
p1152
aS'N'
p1153
aS'VBG'
p1154
aa(lp1155
S'and'
p1156
aS'N'
p1157
aS'CC'
p1158
aa(lp1159
S'discharging'
p1160
aS'N'
p1161
ag1154
aa(lp1162
S'.'
p1163
aS'N'
p1164
aS'.'
p1165
aa(lp1166
g82
ag4
ag4
aa(lp1167
g84
ag4
ag4
aaa(lp1168
(lp1169
g3
ag4
ag4
aa(lp1170
g6
ag4
ag4
aa(lp1171
S'An'
p1172
aS'N'
p1173
aS'DT'
p1174
aa(lp1175
S'average'
p1176
aS'N'
p1177
aS'JJ'
p1178
aa(lp1179
S'current'
p1180
aS'P'
p1181
aS'JJ'
p1182
aa(lp1183
S'density'
p1184
aS'P'
p1185
aS'NN'
p1186
aa(lp1187
S'of'
p1188
aS'P'
p1189
aS'IN'
p1190
aa(lp1191
S'2.5'
p1192
aS'P'
p1193
aS'CD'
p1194
aa(lp1195
S'A/g'
p1196
aS'P'
p1197
aS'NNP'
p1198
aa(lp1199
S'was'
p1200
aS'A'
p1201
aS'VBD'
p1202
aa(lp1203
S'used'
p1204
aS'A'
p1205
aS'VBN'
p1206
aa(lp1207
S'for'
p1208
aS'N'
p1209
aS'IN'
p1210
aa(lp1211
S'all'
p1212
aS'N'
p1213
aS'DT'
p1214
aa(lp1215
S'cells'
p1216
aS'R'
p1217
aS'NNS'
p1218
aa(lp1219
S'.'
p1220
aS'N'
p1221
aS'.'
p1222
aa(lp1223
g82
ag4
ag4
aa(lp1224
g84
ag4
ag4
aaa(lp1225
(lp1226
g3
ag4
ag4
aa(lp1227
g6
ag4
ag4
aa(lp1228
S'The'
p1229
aS'N'
p1230
aS'DT'
p1231
aa(lp1232
S'cutoff'
p1233
aS'PR'
p1234
aS'NN'
p1235
aa(lp1236
S'current'
p1237
aS'PR'
p1238
aS'JJ'
p1239
aa(lp1240
S'for'
p1241
aS'N'
p1242
aS'IN'
p1243
aa(lp1244
S'the'
p1245
aS'N'
p1246
aS'DT'
p1247
aa(lp1248
S'charge'
p1249
aS'E'
p1250
ag1235
aa(lp1251
S'cycle'
p1252
aS'E'
p1253
aS'NN'
p1254
aa(lp1255
S'was'
p1256
aS'A'
p1257
aS'VBD'
p1258
aa(lp1259
S'set'
p1260
aS'A'
p1261
aS'VBN'
p1262
aa(lp1263
S'to'
p1264
aS'N'
p1265
aS'TO'
p1266
aa(lp1267
S'0.05'
p1268
aS'P'
p1269
aS'CD'
p1270
aa(lp1271
S'mA'
p1272
aS'P'
p1273
aS'NNS'
p1274
aa(lp1275
S'.'
p1276
aS'N'
p1277
aS'.'
p1278
aa(lp1279
g82
ag4
ag4
aa(lp1280
g84
ag4
ag4
aaa(lp1281
(lp1282
g3
ag4
ag4
aa(lp1283
g6
ag4
ag4
aa(lp1284
S'The'
p1285
aS'N'
p1286
aS'DT'
p1287
aa(lp1288
S'calculation'
p1289
aS'N'
p1290
aS'NN'
p1291
aa(lp1292
S'of'
p1293
aS'N'
p1294
aS'IN'
p1295
aa(lp1296
S'specific'
p1297
aS'N'
p1298
aS'JJ'
p1299
aa(lp1300
S'discharge'
p1301
aS'N'
p1302
ag1291
aa(lp1303
S'capacities'
p1304
aS'N'
p1305
aS'NNS'
p1306
aa(lp1307
S'is'
p1308
aS'N'
p1309
aS'VBZ'
p1310
aa(lp1311
S'based'
p1312
aS'N'
p1313
aS'VBN'
p1314
aa(lp1315
S'on'
p1316
aS'N'
p1317
aS'IN'
p1318
aa(lp1319
S'the'
p1320
aS'N'
p1321
aS'DT'
p1322
aa(lp1323
S'mass'
p1324
aS'N'
p1325
ag1291
aa(lp1326
S'of'
p1327
aS'N'
p1328
ag1295
aa(lp1329
S'elemental'
p1330
aS'N'
p1331
ag1299
aa(lp1332
S'sulfur'
p1333
aS'N'
p1334
ag1291
aa(lp1335
S'.'
p1336
aS'N'
p1337
aS'.'
p1338
aa(lp1339
g82
ag4
ag4
aa(lp1340
g84
ag4
ag4
aaa.