(lp0
(lp1
(lp2
S'***START***'
p3
aS'None'
p4
ag4
aa(lp5
S'***START2***'
p6
ag4
ag4
aa(lp7
S'The'
p8
aS'N'
p9
aS'DT'
p10
aa(lp11
S'S/C'
p12
aS'R'
p13
aS'NNP'
p14
aa(lp15
S'composites'
p16
aS'R'
p17
aS'NNS'
p18
aa(lp19
S'were'
p20
aS'A'
p21
aS'VBD'
p22
aa(lp23
S'pulverized'
p24
aS'A'
p25
aS'VBN'
p26
aa(lp27
S'using'
p28
aS'N'
p29
aS'VBG'
p30
aa(lp31
S'a'
p32
aS'N'
p33
aS'DT'
p34
aa(lp35
S'ball'
p36
aS'R'
p37
aS'NN'
p38
aa(lp39
S'mill'
p40
aS'R'
p41
ag38
aa(lp42
S'and'
p43
aS'N'
p44
aS'CC'
p45
aa(lp46
S'sieved'
p47
aS'A'
p48
aS'VBD'
p49
aa(lp50
S'through'
p51
aS'N'
p52
aS'IN'
p53
aa(lp54
S'a'
p55
aS'N'
p56
ag34
aa(lp57
S'25'
p58
aS'P'
p59
aS'CD'
p60
aa(lp61
S'm'
p62
aS'P'
p63
ag38
aa(lp64
S'opening'
p65
aS'P'
p66
ag38
aa(lp67
S'stainless'
p68
aS'R'
p69
ag38
aa(lp70
S'steel'
p71
aS'R'
p72
aS'NN'
p73
aa(lp74
S'sieve'
p75
aS'R'
p76
ag18
aa(lp77
S'.'
p78
aS'N'
p79
aS'.'
p80
aa(lp81
S'***END***'
p82
ag4
ag4
aa(lp83
S'***END2***'
p84
ag4
ag4
aaa(lp85
(lp86
g3
ag4
ag4
aa(lp87
g6
ag4
ag4
aa(lp88
S'Slurries'
p89
aS'R'
p90
aS'NNS'
p91
aa(lp92
S'were'
p93
aS'A'
p94
aS'VBD'
p95
aa(lp96
S'prepared'
p97
aS'A'
p98
aS'VBN'
p99
aa(lp100
S'using'
p101
aS'N'
p102
aS'VBG'
p103
aa(lp104
S'the'
p105
aS'N'
p106
aS'DT'
p107
aa(lp108
S'S/C'
p109
aS'R'
p110
aS'NNP'
p111
aa(lp112
S'composites'
p113
aS'R'
p114
ag91
aa(lp115
S'and'
p116
aS'N'
p117
aS'CC'
p118
aa(lp119
S'a'
p120
aS'N'
p121
aS'DT'
p122
aa(lp123
S'solution'
p124
aS'N'
p125
aS'NN'
p126
aa(lp127
S'of'
p128
aS'N'
p129
aS'IN'
p130
aa(lp131
S'1'
p132
aS'P'
p133
aS'CD'
p134
aa(lp135
S'wt'
p136
aS'P'
p137
ag126
aa(lp138
S'%'
p139
aS'P'
p140
aS'NN'
p141
aa(lp142
S'poly(vinylidene'
p143
aS'N'
p144
ag126
aa(lp145
S'fluoride)'
p146
aS'R'
p147
ag126
aa(lp148
S'(PVDF)'
p149
aS'R'
p150
ag126
aa(lp151
S'in'
p152
aS'N'
p153
aS'IN'
p154
aa(lp155
S'anhydrous'
p156
aS'R'
p157
aS'JJ'
p158
aa(lp159
S'N-methyl-2-pyrolidinone'
p160
aS'R'
p161
ag158
aa(lp162
S'(NMP)'
p163
aS'R'
p164
ag126
aa(lp165
S'with'
p166
aS'N'
p167
aS'IN'
p168
aa(lp169
S'a'
p170
aS'N'
p171
ag122
aa(lp172
S'ratio'
p173
aS'P'
p174
ag126
aa(lp175
S'of'
p176
aS'P'
p177
ag130
aa(lp178
S'1:5'
p179
aS'P'
p180
aS'CD'
p181
aa(lp182
S'.'
p183
aS'N'
p184
aS'.'
p185
aa(lp186
g82
ag4
ag4
aa(lp187
g84
ag4
ag4
aaa(lp188
(lp189
g3
ag4
ag4
aa(lp190
g6
ag4
ag4
aa(lp191
S'The'
p192
aS'N'
p193
aS'DT'
p194
aa(lp195
S'slurries'
p196
aS'R'
p197
aS'NNS'
p198
aa(lp199
S'were'
p200
aS'A'
p201
aS'VBD'
p202
aa(lp203
S'applied'
p204
aS'A'
p205
aS'VBN'
p206
aa(lp207
S'to'
p208
aS'N'
p209
aS'TO'
p210
aa(lp211
S'10'
p212
aS'P'
p213
aS'CD'
p214
aa(lp215
S'mm'
p216
aS'P'
p217
ag198
aa(lp218
S'diameter'
p219
aS'P'
p220
aS'RB'
p221
aa(lp222
S'aluminum'
p223
aS'R'
p224
aS'VBP'
p225
aa(lp226
S'current'
p227
aS'N'
p228
aS'JJ'
p229
aa(lp230
S'collectors'
p231
aS'N'
p232
ag198
aa(lp233
S'and'
p234
aS'N'
p235
aS'CC'
p236
aa(lp237
S'dried'
p238
aS'A'
p239
ag206
aa(lp240
S'at'
p241
aS'N'
p242
aS'IN'
p243
aa(lp244
S'120'
p245
aS'P'
p246
aS'CD'
p247
aa(lp248
S'C'
p249
aS'P'
p250
aS'NNP'
p251
aa(lp252
S'for'
p253
aS'N'
p254
aS'IN'
p255
aa(lp256
S'4'
p257
aS'P'
p258
aS'CD'
p259
aa(lp260
S'h'
p261
aS'P'
p262
aS'NN'
p263
aa(lp264
S'.'
p265
aS'N'
p266
aS'.'
p267
aa(lp268
g82
ag4
ag4
aa(lp269
g84
ag4
ag4
aaa(lp270
(lp271
g3
ag4
ag4
aa(lp272
g6
ag4
ag4
aa(lp273
S'For'
p274
aS'N'
p275
aS'IN'
p276
aa(lp277
S'the'
p278
aS'N'
p279
aS'DT'
p280
aa(lp281
S'purpose'
p282
aS'N'
p283
aS'NN'
p284
aa(lp285
S'of'
p286
aS'N'
p287
aS'IN'
p288
aa(lp289
S'comparison'
p290
aS'N'
p291
ag284
aa(lp292
S','
p293
aS'N'
p294
aS','
p295
aa(lp296
S'the'
p297
aS'N'
p298
ag280
aa(lp299
S'original'
p300
aS'N'
p301
aS'JJ'
p302
aa(lp303
S'mesoporous'
p304
aS'R'
p305
ag302
aa(lp306
S'carbon'
p307
aS'R'
p308
ag284
aa(lp309
S'(MPC)'
p310
aS'R'
p311
ag284
aa(lp312
S'with'
p313
aS'N'
p314
aS'IN'
p315
aa(lp316
S'24.1'
p317
aS'P'
p318
aS'CD'
p319
aa(lp320
S'wt'
p321
aS'P'
p322
aS'NNS'
p323
aa(lp324
S'%'
p325
aS'P'
p326
aS'NN'
p327
aa(lp328
S'sulfur'
p329
aS'R'
p330
ag302
aa(lp331
S'loading'
p332
aS'N'
p333
ag284
aa(lp334
S'and'
p335
aS'N'
p336
aS'CC'
p337
aa(lp338
S'WVA-1500'
p339
aS'R'
p340
aS'NNP'
p341
aa(lp342
S'(MeadWestvaco'
p343
aS'N'
p344
ag341
aa(lp345
S'Corporation)'
p346
aS'N'
p347
ag341
aa(lp348
S'with'
p349
aS'N'
p350
ag315
aa(lp351
S'sulfur'
p352
aS'R'
p353
ag302
aa(lp354
S'loading'
p355
aS'N'
p356
ag284
aa(lp357
S'of'
p358
aS'N'
p359
ag288
aa(lp360
S'25.2'
p361
aS'P'
p362
ag319
aa(lp363
S'wt'
p364
aS'P'
p365
ag323
aa(lp366
S'%'
p367
aS'P'
p368
ag327
aa(lp369
S'were'
p370
aS'A'
p371
aS'VBD'
p372
aa(lp373
S'also'
p374
aS'N'
p375
aS'RB'
p376
aa(lp377
S'prepared'
p378
aS'A'
p379
aS'VBN'
p380
aa(lp381
S'as'
p382
aS'N'
p383
aS'IN'
p384
aa(lp385
S'cathodes'
p386
aS'N'
p387
ag323
aa(lp388
S'by'
p389
aS'N'
p390
aS'IN'
p391
aa(lp392
S'applying'
p393
aS'N'
p394
aS'VBG'
p395
aa(lp396
S'an'
p397
aS'N'
p398
aS'DT'
p399
aa(lp400
S'identical'
p401
aS'R'
p402
ag302
aa(lp403
S'procedure'
p404
aS'R'
p405
ag284
aa(lp406
S'that'
p407
aS'N'
p408
aS'WDT'
p409
aa(lp410
S'was'
p411
aS'N'
p412
aS'VBD'
p413
aa(lp414
S'used'
p415
aS'N'
p416
ag380
aa(lp417
S'for'
p418
aS'N'
p419
aS'IN'
p420
aa(lp421
S'the'
p422
aS'N'
p423
ag280
aa(lp424
S'preparation'
p425
aS'N'
p426
ag284
aa(lp427
S'of'
p428
aS'N'
p429
ag288
aa(lp430
S'S/C'
p431
aS'N'
p432
ag341
aa(lp433
S'composite'
p434
aS'N'
p435
ag302
aa(lp436
S'cathodes'
p437
aS'N'
p438
ag323
aa(lp439
S'.'
p440
aS'N'
p441
aS'.'
p442
aa(lp443
g82
ag4
ag4
aa(lp444
g84
ag4
ag4
aaa(lp445
(lp446
g3
ag4
ag4
aa(lp447
g6
ag4
ag4
aa(lp448
S'The'
p449
aS'N'
p450
aS'DT'
p451
aa(lp452
S'batteries'
p453
aS'R'
p454
aS'NNS'
p455
aa(lp456
S'were'
p457
aS'A'
p458
aS'VBD'
p459
aa(lp460
S'assembled'
p461
aS'A'
p462
aS'VBN'
p463
aa(lp464
S'as'
p465
aS'N'
p466
aS'IN'
p467
aa(lp468
S'Swagelok'
p469
aS'R'
p470
aS'NNP'
p471
aa(lp472
S'cells'
p473
aS'R'
p474
aS'NNS'
p475
aa(lp476
S'by'
p477
aS'N'
p478
aS'IN'
p479
aa(lp480
S'using'
p481
aS'N'
p482
aS'VBG'
p483
aa(lp484
S'the'
p485
aS'N'
p486
aS'DT'
p487
aa(lp488
S'S/C'
p489
aS'R'
p490
ag471
aa(lp491
S'composite'
p492
aS'R'
p493
aS'JJ'
p494
aa(lp495
S'coated'
p496
aS'R'
p497
aS'VBD'
p498
aa(lp499
S'aluminum'
p500
aS'R'
p501
aS'NN'
p502
aa(lp503
S'foil'
p504
aS'R'
p505
ag502
aa(lp506
S'(10'
p507
aS'P'
p508
ag471
aa(lp509
S'mm'
p510
aS'P'
p511
ag502
aa(lp512
S'diameter'
p513
aS'P'
p514
ag502
aa(lp515
S','
p516
aS'N'
p517
aS','
p518
aa(lp519
S'7'
p520
aS'P'
p521
aS'CD'
p522
aa(lp523
S'mm'
p524
aS'P'
p525
ag502
aa(lp526
S'thickness)'
p527
aS'P'
p528
ag502
aa(lp529
S'as'
p530
aS'N'
p531
ag467
aa(lp532
S'the'
p533
aS'N'
p534
ag487
aa(lp535
S'cathode'
p536
aS'N'
p537
ag502
aa(lp538
S','
p539
aS'N'
p540
ag518
aa(lp541
S'and'
p542
aS'N'
p543
aS'CC'
p544
aa(lp545
S'a'
p546
aS'N'
p547
aS'DT'
p548
aa(lp549
S'lithium'
p550
aS'R'
p551
ag502
aa(lp552
S'foil'
p553
aS'R'
p554
ag502
aa(lp555
S'(7'
p556
aS'P'
p557
ag471
aa(lp558
S'mm'
p559
aS'P'
p560
ag502
aa(lp561
S'thickness'
p562
aS'P'
p563
ag502
aa(lp564
S'and'
p565
aS'N'
p566
ag544
aa(lp567
S'10'
p568
aS'P'
p569
aS'CD'
p570
aa(lp571
S'mm'
p572
aS'P'
p573
ag502
aa(lp574
S'diameter)'
p575
aS'P'
p576
ag502
aa(lp577
S'as'
p578
aS'N'
p579
ag467
aa(lp580
S'the'
p581
aS'N'
p582
ag487
aa(lp583
S'anode'
p584
aS'N'
p585
ag502
aa(lp586
S','
p587
aS'N'
p588
ag518
aa(lp589
S'a'
p590
aS'N'
p591
ag548
aa(lp592
S'Celgard'
p593
aS'R'
p594
ag471
aa(lp595
S'3225'
p596
aS'R'
p597
aS'CD'
p598
aa(lp599
S'separator'
p600
aS'R'
p601
ag502
aa(lp602
S'(10.3'
p603
aS'P'
p604
ag471
aa(lp605
S'mm'
p606
aS'P'
p607
ag502
aa(lp608
S'diameter)'
p609
aS'P'
p610
ag502
aa(lp611
S','
p612
aS'N'
p613
ag518
aa(lp614
S'and'
p615
aS'N'
p616
ag544
aa(lp617
S'an'
p618
aS'N'
p619
aS'DT'
p620
aa(lp621
S'organic'
p622
aS'R'
p623
ag494
aa(lp624
S'electrolyte'
p625
aS'R'
p626
ag502
aa(lp627
S'.'
p628
aS'N'
p629
aS'.'
p630
aa(lp631
g82
ag4
ag4
aa(lp632
g84
ag4
ag4
aaa(lp633
(lp634
g3
ag4
ag4
aa(lp635
g6
ag4
ag4
aa(lp636
S'The'
p637
aS'N'
p638
aS'DT'
p639
aa(lp640
S'organic'
p641
aS'R'
p642
aS'JJ'
p643
aa(lp644
S'electrolytes'
p645
aS'R'
p646
aS'NNS'
p647
aa(lp648
S'were'
p649
aS'A'
p650
aS'VBD'
p651
aa(lp652
S'solutions'
p653
aS'N'
p654
ag647
aa(lp655
S'of'
p656
aS'N'
p657
aS'IN'
p658
aa(lp659
S'Bis-'
p660
aS'R'
p661
aS'NNP'
p662
aa(lp663
S'(trifluoromethane)sulfonimide'
p664
aS'R'
p665
ag662
aa(lp666
S'lithium'
p667
aS'R'
p668
aS'NN'
p669
aa(lp670
S'(LiTFSI)'
p671
aS'R'
p672
ag662
aa(lp673
S'(99.95%'
p674
aS'P'
p675
ag662
aa(lp676
S'trace'
p677
aS'P'
p678
ag669
aa(lp679
S'metals'
p680
aS'P'
p681
ag647
aa(lp682
S'basis)'
p683
aS'P'
p684
aS'VBP'
p685
aa(lp686
S'in'
p687
aS'N'
p688
aS'IN'
p689
aa(lp690
S'a'
p691
aS'N'
p692
aS'DT'
p693
aa(lp694
S'mixed'
p695
aS'N'
p696
ag643
aa(lp697
S'solvent'
p698
aS'N'
p699
ag669
aa(lp700
S'of'
p701
aS'N'
p702
ag658
aa(lp703
S'1,3-dioxolane'
p704
aS'R'
p705
ag643
aa(lp706
S'(DOL)'
p707
aS'R'
p708
ag669
aa(lp709
S'and'
p710
aS'N'
p711
aS'CC'
p712
aa(lp713
S'dimethoxyethane'
p714
aS'R'
p715
ag669
aa(lp716
S'(DME)'
p717
aS'R'
p718
ag647
aa(lp719
S'with'
p720
aS'N'
p721
aS'IN'
p722
aa(lp723
S'volume'
p724
aS'P'
p725
aS'NN'
p726
aa(lp727
S'ratio'
p728
aS'P'
p729
ag669
aa(lp730
S'of'
p731
aS'P'
p732
ag658
aa(lp733
S'55:40'
p734
aS'P'
p735
aS'CD'
p736
aa(lp737
S'.'
p738
aS'N'
p739
aS'.'
p740
aa(lp741
g82
ag4
ag4
aa(lp742
g84
ag4
ag4
aaa(lp743
(lp744
g3
ag4
ag4
aa(lp745
g6
ag4
ag4
aa(lp746
S'The'
p747
aS'N'
p748
aS'DT'
p749
aa(lp750
S'organic'
p751
aS'R'
p752
aS'JJ'
p753
aa(lp754
S'electrolyte'
p755
aS'R'
p756
aS'NN'
p757
aa(lp758
S'filled'
p759
aS'A'
p760
aS'VBD'
p761
aa(lp762
S'the'
p763
aS'N'
p764
aS'DT'
p765
aa(lp766
S'pores'
p767
aS'P'
p768
aS'NNS'
p769
aa(lp770
S'of'
p771
aS'N'
p772
aS'IN'
p773
aa(lp774
S'the'
p775
aS'N'
p776
ag765
aa(lp777
S'cathode'
p778
aS'R'
p779
ag757
aa(lp780
S'and'
p781
aS'N'
p782
aS'CC'
p783
aa(lp784
S'separator'
p785
aS'R'
p786
ag757
aa(lp787
S'.'
p788
aS'N'
p789
aS'.'
p790
aa(lp791
g82
ag4
ag4
aa(lp792
g84
ag4
ag4
aaa(lp793
(lp794
g3
ag4
ag4
aa(lp795
g6
ag4
ag4
aa(lp796
S'The'
p797
aS'N'
p798
aS'DT'
p799
aa(lp800
S'cathode'
p801
aS'R'
p802
aS'NN'
p803
aa(lp804
S','
p805
aS'N'
p806
aS','
p807
aa(lp808
S'separator'
p809
aS'R'
p810
ag803
aa(lp811
S','
p812
aS'N'
p813
ag807
aa(lp814
S'and'
p815
aS'N'
p816
aS'CC'
p817
aa(lp818
S'anode'
p819
aS'R'
p820
aS'NNS'
p821
aa(lp822
S'were'
p823
aS'A'
p824
aS'VBD'
p825
aa(lp826
S'pressed'
p827
aS'A'
p828
aS'VBN'
p829
aa(lp830
S'by'
p831
aS'N'
p832
aS'IN'
p833
aa(lp834
S'a'
p835
aS'N'
p836
aS'DT'
p837
aa(lp838
S'spring'
p839
aS'R'
p840
ag803
aa(lp841
S'to'
p842
aS'N'
p843
aS'TO'
p844
aa(lp845
S'ensure'
p846
aS'N'
p847
aS'VB'
p848
aa(lp849
S'tight'
p850
aS'P'
p851
aS'JJ'
p852
aa(lp853
S'contact'
p854
aS'P'
p855
ag803
aa(lp856
S'.'
p857
aS'N'
p858
aS'.'
p859
aa(lp860
g82
ag4
ag4
aa(lp861
g84
ag4
ag4
aaa(lp862
(lp863
g3
ag4
ag4
aa(lp864
g6
ag4
ag4
aa(lp865
S'A'
p866
aS'N'
p867
aS'DT'
p868
aa(lp869
S'typical'
p870
aS'N'
p871
aS'JJ'
p872
aa(lp873
S'cell'
p874
aS'N'
p875
aS'NN'
p876
aa(lp877
S'contained'
p878
aS'N'
p879
aS'VBD'
p880
aa(lp881
S'about'
p882
aS'N'
p883
aS'IN'
p884
aa(lp885
S'0.2'
p886
aS'N'
p887
aS'CD'
p888
aa(lp889
S'mg'
p890
aS'N'
p891
aS'NNS'
p892
aa(lp893
S'of'
p894
aS'N'
p895
aS'IN'
p896
aa(lp897
S'sulfur'
p898
aS'N'
p899
ag876
aa(lp900
S'.'
p901
aS'N'
p902
aS'.'
p903
aa(lp904
g82
ag4
ag4
aa(lp905
g84
ag4
ag4
aaa(lp906
(lp907
g3
ag4
ag4
aa(lp908
g6
ag4
ag4
aa(lp909
S'No'
p910
aS'N'
p911
aS'DT'
p912
aa(lp913
S'excess'
p914
aS'N'
p915
aS'NN'
p916
aa(lp917
S'of'
p918
aS'N'
p919
aS'IN'
p920
aa(lp921
S'electrolyte'
p922
aS'N'
p923
ag916
aa(lp924
S'was'
p925
aS'N'
p926
aS'VBD'
p927
aa(lp928
S'left'
p929
aS'N'
p930
aS'VBN'
p931
aa(lp932
S'in'
p933
aS'N'
p934
aS'IN'
p935
aa(lp936
S'the'
p937
aS'N'
p938
aS'DT'
p939
aa(lp940
S'assembled'
p941
aS'N'
p942
aS'JJ'
p943
aa(lp944
S'cell'
p945
aS'N'
p946
ag916
aa(lp947
S'.'
p948
aS'N'
p949
aS'.'
p950
aa(lp951
g82
ag4
ag4
aa(lp952
g84
ag4
ag4
aaa(lp953
(lp954
g3
ag4
ag4
aa(lp955
g6
ag4
ag4
aa(lp956
S'The'
p957
aS'N'
p958
aS'DT'
p959
aa(lp960
S'batteries'
p961
aS'R'
p962
aS'NNS'
p963
aa(lp964
S'were'
p965
aS'A'
p966
aS'VBD'
p967
aa(lp968
S'tested'
p969
aS'A'
p970
aS'VBN'
p971
aa(lp972
S'in'
p973
aS'N'
p974
aS'IN'
p975
aa(lp976
S'a'
p977
aS'N'
p978
aS'DT'
p979
aa(lp980
S'Maccor'
p981
aS'R'
p982
aS'NNP'
p983
aa(lp984
S'4000'
p985
aS'R'
p986
aS'CD'
p987
aa(lp988
S'series'
p989
aS'R'
p990
aS'NN'
p991
aa(lp992
S'battery'
p993
aS'R'
p994
aS'NN'
p995
aa(lp996
S'tester'
p997
aS'R'
p998
ag995
aa(lp999
S'.'
p1000
aS'N'
p1001
aS'.'
p1002
aa(lp1003
g82
ag4
ag4
aa(lp1004
g84
ag4
ag4
aaa(lp1005
(lp1006
g3
ag4
ag4
aa(lp1007
g6
ag4
ag4
aa(lp1008
S'The'
p1009
aS'N'
p1010
aS'DT'
p1011
aa(lp1012
S'batteries'
p1013
aS'R'
p1014
aS'NNS'
p1015
aa(lp1016
S'were'
p1017
aS'A'
p1018
aS'VBD'
p1019
aa(lp1020
S'cycled'
p1021
aS'A'
p1022
aS'VBN'
p1023
aa(lp1024
S'between'
p1025
aS'P'
p1026
aS'IN'
p1027
aa(lp1028
S'1.0'
p1029
aS'P'
p1030
aS'CD'
p1031
aa(lp1032
S'to'
p1033
aS'P'
p1034
aS'TO'
p1035
aa(lp1036
S'3.6'
p1037
aS'P'
p1038
ag1031
aa(lp1039
S'V'
p1040
aS'P'
p1041
aS'NNP'
p1042
aa(lp1043
S'.'
p1044
aS'N'
p1045
aS'.'
p1046
aa(lp1047
g82
ag4
ag4
aa(lp1048
g84
ag4
ag4
aaa(lp1049
(lp1050
g3
ag4
ag4
aa(lp1051
g6
ag4
ag4
aa(lp1052
S'Each'
p1053
aS'N'
p1054
aS'DT'
p1055
aa(lp1056
S'cycle'
p1057
aS'N'
p1058
aS'NN'
p1059
aa(lp1060
S'was'
p1061
aS'N'
p1062
aS'VBD'
p1063
aa(lp1064
S'started'
p1065
aS'N'
p1066
aS'VBN'
p1067
aa(lp1068
S'with'
p1069
aS'N'
p1070
aS'IN'
p1071
aa(lp1072
S'the'
p1073
aS'N'
p1074
aS'DT'
p1075
aa(lp1076
S'discharge'
p1077
aS'N'
p1078
aS'NN'
p1079
aa(lp1080
S'half-cycle'
p1081
aS'N'
p1082
ag1079
aa(lp1083
S'.'
p1084
aS'N'
p1085
aS'.'
p1086
aa(lp1087
g82
ag4
ag4
aa(lp1088
g84
ag4
ag4
aaa(lp1089
(lp1090
g3
ag4
ag4
aa(lp1091
g6
ag4
ag4
aa(lp1092
S'Unless'
p1093
aS'N'
p1094
aS'IN'
p1095
aa(lp1096
S'specified'
p1097
aS'N'
p1098
aS'VBN'
p1099
aa(lp1100
S','
p1101
aS'N'
p1102
aS','
p1103
aa(lp1104
S'all'
p1105
aS'N'
p1106
aS'DT'
p1107
aa(lp1108
S'batteries'
p1109
aS'R'
p1110
aS'NNS'
p1111
aa(lp1112
S'were'
p1113
aS'A'
p1114
aS'VBD'
p1115
aa(lp1116
S'tested'
p1117
aS'A'
p1118
ag1099
aa(lp1119
S'at'
p1120
aS'N'
p1121
aS'IN'
p1122
aa(lp1123
S'the'
p1124
aS'N'
p1125
aS'DT'
p1126
aa(lp1127
S'same'
p1128
aS'N'
p1129
aS'JJ'
p1130
aa(lp1131
S'current'
p1132
aS'P'
p1133
aS'JJ'
p1134
aa(lp1135
S'of'
p1136
aS'P'
p1137
aS'IN'
p1138
aa(lp1139
S'0.5'
p1140
aS'P'
p1141
aS'CD'
p1142
aa(lp1143
S'mA'
p1144
aS'P'
p1145
aS'NN'
p1146
aa(lp1147
S'for'
p1148
aS'N'
p1149
aS'IN'
p1150
aa(lp1151
S'both'
p1152
aS'N'
p1153
ag1107
aa(lp1154
S'charging'
p1155
aS'P'
p1156
aS'VBG'
p1157
aa(lp1158
S'and'
p1159
aS'P'
p1160
aS'CC'
p1161
aa(lp1162
S'discharging'
p1163
aS'P'
p1164
ag1157
aa(lp1165
S'.'
p1166
aS'N'
p1167
aS'.'
p1168
aa(lp1169
g82
ag4
ag4
aa(lp1170
g84
ag4
ag4
aaa(lp1171
(lp1172
g3
ag4
ag4
aa(lp1173
g6
ag4
ag4
aa(lp1174
S'An'
p1175
aS'N'
p1176
aS'DT'
p1177
aa(lp1178
S'average'
p1179
aS'N'
p1180
aS'JJ'
p1181
aa(lp1182
S'current'
p1183
aS'P'
p1184
aS'JJ'
p1185
aa(lp1186
S'density'
p1187
aS'P'
p1188
aS'NN'
p1189
aa(lp1190
S'of'
p1191
aS'P'
p1192
aS'IN'
p1193
aa(lp1194
S'2.5'
p1195
aS'P'
p1196
aS'CD'
p1197
aa(lp1198
S'A/g'
p1199
aS'P'
p1200
aS'NNP'
p1201
aa(lp1202
S'was'
p1203
aS'A'
p1204
aS'VBD'
p1205
aa(lp1206
S'used'
p1207
aS'A'
p1208
aS'VBN'
p1209
aa(lp1210
S'for'
p1211
aS'N'
p1212
aS'IN'
p1213
aa(lp1214
S'all'
p1215
aS'N'
p1216
aS'DT'
p1217
aa(lp1218
S'cells'
p1219
aS'R'
p1220
aS'NNS'
p1221
aa(lp1222
S'.'
p1223
aS'N'
p1224
aS'.'
p1225
aa(lp1226
g82
ag4
ag4
aa(lp1227
g84
ag4
ag4
aaa(lp1228
(lp1229
g3
ag4
ag4
aa(lp1230
g6
ag4
ag4
aa(lp1231
S'The'
p1232
aS'N'
p1233
aS'DT'
p1234
aa(lp1235
S'cutoff'
p1236
aS'R'
p1237
aS'NN'
p1238
aa(lp1239
S'current'
p1240
aS'R'
p1241
aS'JJ'
p1242
aa(lp1243
S'for'
p1244
aS'N'
p1245
aS'IN'
p1246
aa(lp1247
S'the'
p1248
aS'N'
p1249
aS'DT'
p1250
aa(lp1251
S'charge'
p1252
aS'R'
p1253
ag1238
aa(lp1254
S'cycle'
p1255
aS'R'
p1256
aS'NN'
p1257
aa(lp1258
S'was'
p1259
aS'A'
p1260
aS'VBD'
p1261
aa(lp1262
S'set'
p1263
aS'A'
p1264
aS'VBN'
p1265
aa(lp1266
S'to'
p1267
aS'N'
p1268
aS'TO'
p1269
aa(lp1270
S'0.05'
p1271
aS'P'
p1272
aS'CD'
p1273
aa(lp1274
S'mA'
p1275
aS'P'
p1276
aS'NNS'
p1277
aa(lp1278
S'.'
p1279
aS'N'
p1280
aS'.'
p1281
aa(lp1282
g82
ag4
ag4
aa(lp1283
g84
ag4
ag4
aaa(lp1284
(lp1285
g3
ag4
ag4
aa(lp1286
g6
ag4
ag4
aa(lp1287
S'The'
p1288
aS'N'
p1289
aS'DT'
p1290
aa(lp1291
S'calculation'
p1292
aS'N'
p1293
aS'NN'
p1294
aa(lp1295
S'of'
p1296
aS'N'
p1297
aS'IN'
p1298
aa(lp1299
S'specific'
p1300
aS'R'
p1301
aS'JJ'
p1302
aa(lp1303
S'discharge'
p1304
aS'R'
p1305
ag1294
aa(lp1306
S'capacities'
p1307
aS'R'
p1308
aS'NNS'
p1309
aa(lp1310
S'is'
p1311
aS'A'
p1312
aS'VBZ'
p1313
aa(lp1314
S'based'
p1315
aS'A'
p1316
aS'VBN'
p1317
aa(lp1318
S'on'
p1319
aS'N'
p1320
aS'IN'
p1321
aa(lp1322
S'the'
p1323
aS'N'
p1324
aS'DT'
p1325
aa(lp1326
S'mass'
p1327
aS'P'
p1328
ag1294
aa(lp1329
S'of'
p1330
aS'P'
p1331
ag1298
aa(lp1332
S'elemental'
p1333
aS'P'
p1334
ag1302
aa(lp1335
S'sulfur'
p1336
aS'P'
p1337
ag1294
aa(lp1338
S'.'
p1339
aS'N'
p1340
aS'.'
p1341
aa(lp1342
g82
ag4
ag4
aa(lp1343
g84
ag4
ag4
aaa.