(lp0
(lp1
(lp2
S'***START***'
p3
aS'None'
p4
ag4
aa(lp5
S'***START2***'
p6
ag4
ag4
aa(lp7
S'Electrochemical'
p8
aS'N'
p9
aS'JJ'
p10
aa(lp11
S'analysis'
p12
aS'N'
p13
aS'NN'
p14
aa(lp15
S'was'
p16
aS'N'
p17
aS'VBD'
p18
aa(lp19
S'conducted'
p20
aS'N'
p21
aS'VBN'
p22
aa(lp23
S'on'
p24
aS'N'
p25
aS'IN'
p26
aa(lp27
S'the'
p28
aS'N'
p29
aS'DT'
p30
aa(lp31
S'electrodes'
p32
aS'N'
p33
aS'NNS'
p34
aa(lp35
S'fabricated'
p36
aS'N'
p37
ag18
aa(lp38
S'as'
p39
aS'N'
p40
aS'IN'
p41
aa(lp42
S'follows'
p43
aS'N'
p44
aS'VBZ'
p45
aa(lp46
S'.'
p47
aS'N'
p48
aS'.'
p49
aa(lp50
S'***END***'
p51
ag4
ag4
aa(lp52
S'***END2***'
p53
ag4
ag4
aaa(lp54
(lp55
g3
ag4
ag4
aa(lp56
g6
ag4
ag4
aa(lp57
S'The'
p58
aS'N'
p59
aS'DT'
p60
aa(lp61
S'working'
p62
aS'PR'
p63
aS'VBG'
p64
aa(lp65
S'electrode'
p66
aS'PR'
p67
aS'NN'
p68
aa(lp69
S'(WE)'
p70
aS'PR'
p71
ag68
aa(lp72
S'was'
p73
aS'A'
p74
aS'VBD'
p75
aa(lp76
S'prepared'
p77
aS'A'
p78
aS'VBN'
p79
aa(lp80
S'using'
p81
aS'N'
p82
aS'VBG'
p83
aa(lp84
S'80%'
p85
aS'P'
p86
aS'CD'
p87
aa(lp88
S'of'
p89
aS'N'
p90
aS'IN'
p91
aa(lp92
S'the'
p93
aS'N'
p94
aS'DT'
p95
aa(lp96
S'active'
p97
aS'I'
p98
aS'JJ'
p99
aa(lp100
S'material'
p101
aS'I'
p102
ag68
aa(lp103
S','
p104
aS'N'
p105
aS','
p106
aa(lp107
S'10%'
p108
aS'P'
p109
ag87
aa(lp110
S'carbon'
p111
aS'I'
p112
ag68
aa(lp113
S'black'
p114
aS'I'
p115
aS'JJ'
p116
aa(lp117
S'(CB)'
p118
aS'I'
p119
ag68
aa(lp120
S','
p121
aS'N'
p122
ag106
aa(lp123
S'and'
p124
aS'N'
p125
aS'CC'
p126
aa(lp127
S'10%'
p128
aS'P'
p129
ag87
aa(lp130
S'polyvinylidene'
p131
aS'I'
p132
ag68
aa(lp133
S'fluoride'
p134
aS'I'
p135
aS'JJ'
p136
aa(lp137
S'(PVDF)'
p138
aS'I'
p139
aS'NNP'
p140
aa(lp141
S'binder'
p142
aS'N'
p143
ag68
aa(lp144
S'.'
p145
aS'N'
p146
aS'.'
p147
aa(lp148
g51
ag4
ag4
aa(lp149
g53
ag4
ag4
aaa(lp150
(lp151
g3
ag4
ag4
aa(lp152
g6
ag4
ag4
aa(lp153
S'Slurry'
p154
aS'PR'
p155
aS'NNP'
p156
aa(lp157
S'was'
p158
aS'A'
p159
aS'VBD'
p160
aa(lp161
S'made'
p162
aS'A'
p163
aS'VBN'
p164
aa(lp165
S'in'
p166
aS'N'
p167
aS'IN'
p168
aa(lp169
S'N-methyl-2-pyrrolidinone'
p170
aS'I'
p171
ag156
aa(lp172
S'(NMP)'
p173
aS'I'
p174
ag156
aa(lp175
S'.'
p176
aS'N'
p177
aS'.'
p178
aa(lp179
g51
ag4
ag4
aa(lp180
g53
ag4
ag4
aaa(lp181
(lp182
g3
ag4
ag4
aa(lp183
g6
ag4
ag4
aa(lp184
S'This'
p185
aS'N'
p186
aS'DT'
p187
aa(lp188
S'slurry'
p189
aS'R'
p190
aS'NN'
p191
aa(lp192
S'was'
p193
aS'A'
p194
aS'VBD'
p195
aa(lp196
S'then'
p197
aS'N'
p198
aS'RB'
p199
aa(lp200
S'uniformly'
p201
aS'A'
p202
aS'RB'
p203
aa(lp204
S'coated'
p205
aS'A'
p206
aS'VBN'
p207
aa(lp208
S'onto'
p209
aS'N'
p210
aS'IN'
p211
aa(lp212
S'a'
p213
aS'N'
p214
aS'DT'
p215
aa(lp216
S'aluminum'
p217
aS'I'
p218
ag191
aa(lp219
S'foil'
p220
aS'I'
p221
ag191
aa(lp222
S'current'
p223
aS'N'
p224
aS'JJ'
p225
aa(lp226
S'collector'
p227
aS'N'
p228
ag191
aa(lp229
S'using'
p230
aS'N'
p231
aS'VBG'
p232
aa(lp233
S'an'
p234
aS'N'
p235
aS'DT'
p236
aa(lp237
S'applicator'
p238
aS'E'
p239
ag191
aa(lp240
S'to'
p241
aS'N'
p242
aS'TO'
p243
aa(lp244
S'generate'
p245
aS'N'
p246
aS'VB'
p247
aa(lp248
S'a'
p249
aS'N'
p250
ag215
aa(lp251
S'coating'
p252
aS'N'
p253
ag191
aa(lp254
S'of'
p255
aS'N'
p256
aS'IN'
p257
aa(lp258
S'120'
p259
aS'P'
p260
aS'CD'
p261
aa(lp262
S'um'
p263
aS'P'
p264
aS'JJ'
p265
aa(lp266
S'thickness'
p267
aS'P'
p268
ag191
aa(lp269
S'.'
p270
aS'N'
p271
aS'.'
p272
aa(lp273
g51
ag4
ag4
aa(lp274
g53
ag4
ag4
aaa(lp275
(lp276
g3
ag4
ag4
aa(lp277
g6
ag4
ag4
aa(lp278
S'After'
p279
aS'N'
p280
aS'IN'
p281
aa(lp282
S'drying'
p283
aS'A'
p284
aS'VBG'
p285
aa(lp286
S'in'
p287
aS'N'
p288
aS'IN'
p289
aa(lp290
S'the'
p291
aS'N'
p292
aS'DT'
p293
aa(lp294
S'fume'
p295
aS'E'
p296
aS'NN'
p297
aa(lp298
S'hood'
p299
aS'E'
p300
ag297
aa(lp301
S'for'
p302
aS'N'
p303
aS'IN'
p304
aa(lp305
S'24'
p306
aS'P'
p307
aS'CD'
p308
aa(lp309
S'h'
p310
aS'P'
p311
ag297
aa(lp312
S','
p313
aS'N'
p314
aS','
p315
aa(lp316
S'the'
p317
aS'N'
p318
ag293
aa(lp319
S'coated'
p320
aS'R'
p321
aS'JJ'
p322
aa(lp323
S'foil'
p324
aS'R'
p325
ag297
aa(lp326
S'was'
p327
aS'A'
p328
aS'VBD'
p329
aa(lp330
S'cut'
p331
aS'A'
p332
aS'VBN'
p333
aa(lp334
S'into'
p335
aS'N'
p336
aS'IN'
p337
aa(lp338
S'0.5'
p339
aS'P'
p340
aS'CD'
p341
aa(lp342
S'in.'
p343
aS'P'
p344
ag322
aa(lp345
S'diameter'
p346
aS'P'
p347
ag297
aa(lp348
S'circles'
p349
aS'P'
p350
aS'NNS'
p351
aa(lp352
S','
p353
aS'N'
p354
ag315
aa(lp355
S'creating'
p356
aS'N'
p357
aS'VBG'
p358
aa(lp359
S'the'
p360
aS'PR'
p361
ag293
aa(lp362
S'working'
p363
aS'PR'
p364
ag285
aa(lp365
S'electrodes'
p366
aS'PR'
p367
ag351
aa(lp368
S'.'
p369
aS'N'
p370
aS'.'
p371
aa(lp372
g51
ag4
ag4
aa(lp373
g53
ag4
ag4
aaa(lp374
(lp375
g3
ag4
ag4
aa(lp376
g6
ag4
ag4
aa(lp377
S'These'
p378
aS'N'
p379
aS'DT'
p380
aa(lp381
S'electrodes'
p382
aS'R'
p383
aS'NNS'
p384
aa(lp385
S'were'
p386
aS'A'
p387
aS'VBD'
p388
aa(lp389
S'placed'
p390
aS'A'
p391
aS'VBN'
p392
aa(lp393
S'in'
p394
aS'N'
p395
aS'IN'
p396
aa(lp397
S'a'
p398
aS'N'
p399
aS'DT'
p400
aa(lp401
S'two-electrode'
p402
aS'E'
p403
aS'JJ'
p404
aa(lp405
S'coin'
p406
aS'E'
p407
aS'NN'
p408
aa(lp409
S'cell'
p410
aS'E'
p411
ag408
aa(lp412
S'using'
p413
aS'N'
p414
aS'VBG'
p415
aa(lp416
S'lithium'
p417
aS'I'
p418
ag404
aa(lp419
S'foil'
p420
aS'I'
p421
ag408
aa(lp422
S'as'
p423
aS'N'
p424
aS'IN'
p425
aa(lp426
S'the'
p427
aS'N'
p428
aS'DT'
p429
aa(lp430
S'counter'
p431
aS'N'
p432
ag408
aa(lp433
S'electrode'
p434
aS'N'
p435
ag408
aa(lp436
S'(CE)'
p437
aS'N'
p438
aS'NNP'
p439
aa(lp440
S'and'
p441
aS'N'
p442
aS'CC'
p443
aa(lp444
S'1'
p445
aS'P'
p446
aS'CD'
p447
aa(lp448
S'M'
p449
aS'P'
p450
ag439
aa(lp451
S'LiPF6'
p452
aS'I'
p453
ag439
aa(lp454
S'salt'
p455
aS'I'
p456
ag408
aa(lp457
S'in'
p458
aS'I'
p459
ag396
aa(lp460
S'ethylene'
p461
aS'I'
p462
ag404
aa(lp463
S'carbonate/diethyl'
p464
aS'I'
p465
ag408
aa(lp466
S'carbonate'
p467
aS'I'
p468
ag408
aa(lp469
S'by'
p470
aS'I'
p471
aS'IN'
p472
aa(lp473
S'volume'
p474
aS'I'
p475
aS'NN'
p476
aa(lp477
S'EC:DEC)'
p478
aS'I'
p479
ag439
aa(lp480
S'solution'
p481
aS'I'
p482
ag408
aa(lp483
S'as'
p484
aS'N'
p485
ag425
aa(lp486
S'the'
p487
aS'N'
p488
ag429
aa(lp489
S'electrolyte'
p490
aS'N'
p491
ag408
aa(lp492
S'.'
p493
aS'N'
p494
aS'.'
p495
aa(lp496
g51
ag4
ag4
aa(lp497
g53
ag4
ag4
aaa(lp498
(lp499
g3
ag4
ag4
aa(lp500
g6
ag4
ag4
aa(lp501
S'A'
p502
aS'N'
p503
aS'DT'
p504
aa(lp505
S'micro-porous'
p506
aS'I'
p507
aS'JJ'
p508
aa(lp509
S'separator'
p510
aS'I'
p511
aS'NN'
p512
aa(lp513
S'(Celgard3501)'
p514
aS'I'
p515
ag512
aa(lp516
S'was'
p517
aS'A'
p518
aS'VBD'
p519
aa(lp520
S'placed'
p521
aS'A'
p522
aS'VBN'
p523
aa(lp524
S'between'
p525
aS'P'
p526
aS'IN'
p527
aa(lp528
S'the'
p529
aS'P'
p530
aS'DT'
p531
aa(lp532
S'working'
p533
aS'P'
p534
ag512
aa(lp535
S'and'
p536
aS'P'
p537
aS'CC'
p538
aa(lp539
S'counter'
p540
aS'P'
p541
ag512
aa(lp542
S'electrodes'
p543
aS'P'
p544
aS'NNS'
p545
aa(lp546
S'.'
p547
aS'N'
p548
aS'.'
p549
aa(lp550
g51
ag4
ag4
aa(lp551
g53
ag4
ag4
aaa(lp552
(lp553
g3
ag4
ag4
aa(lp554
g6
ag4
ag4
aa(lp555
S'NaFePO4'
p556
aS'I'
p557
aS'NNP'
p558
aa(lp559
S'annealed'
p560
aS'A'
p561
aS'VBD'
p562
aa(lp563
S'in'
p564
aS'N'
p565
aS'IN'
p566
aa(lp567
S'Ar'
p568
aS'P'
p569
ag558
aa(lp570
S'at'
p571
aS'N'
p572
aS'IN'
p573
aa(lp574
S'600'
p575
aS'P'
p576
aS'CD'
p577
aa(lp578
S'C'
p579
aS'P'
p580
ag558
aa(lp581
S'have'
p582
aS'N'
p583
aS'VBP'
p584
aa(lp585
S'been'
p586
aS'A'
p587
aS'VBN'
p588
aa(lp589
S'used'
p590
aS'A'
p591
aS'VBN'
p592
aa(lp593
S'to'
p594
aS'N'
p595
aS'TO'
p596
aa(lp597
S'test'
p598
aS'P'
p599
aS'VB'
p600
aa(lp601
S'the'
p602
aS'N'
p603
aS'DT'
p604
aa(lp605
S'electrochemical'
p606
aS'N'
p607
aS'JJ'
p608
aa(lp609
S'properties'
p610
aS'N'
p611
aS'NNS'
p612
aa(lp613
S'.'
p614
aS'N'
p615
aS'.'
p616
aa(lp617
g51
ag4
ag4
aa(lp618
g53
ag4
ag4
aaa(lp619
(lp620
g3
ag4
ag4
aa(lp621
g6
ag4
ag4
aa(lp622
S'The'
p623
aS'N'
p624
aS'DT'
p625
aa(lp626
S'battery'
p627
aS'E'
p628
aS'NN'
p629
aa(lp630
S'cycle'
p631
aS'E'
p632
aS'NN'
p633
aa(lp634
S'tests'
p635
aS'E'
p636
aS'NNS'
p637
aa(lp638
S'were'
p639
aS'A'
p640
aS'VBD'
p641
aa(lp642
S'performed'
p643
aS'A'
p644
aS'VBN'
p645
aa(lp646
S'between'
p647
aS'P'
p648
aS'IN'
p649
aa(lp650
S'2'
p651
aS'P'
p652
aS'CD'
p653
aa(lp654
S'V'
p655
aS'P'
p656
aS'NNP'
p657
aa(lp658
S'and'
p659
aS'P'
p660
aS'CC'
p661
aa(lp662
S'4'
p663
aS'P'
p664
aS'CD'
p665
aa(lp666
S'V'
p667
aS'P'
p668
ag657
aa(lp669
S'using'
p670
aS'N'
p671
aS'VBG'
p672
aa(lp673
S'the'
p674
aS'N'
p675
aS'DT'
p676
aa(lp677
S'Solartron'
p678
aS'E'
p679
ag657
aa(lp680
S'and'
p681
aS'N'
p682
ag661
aa(lp683
S'Arbin'
p684
aS'E'
p685
ag657
aa(lp686
S'battery'
p687
aS'E'
p688
ag629
aa(lp689
S'test'
p690
aS'E'
p691
ag629
aa(lp692
S'stations'
p693
aS'E'
p694
ag637
aa(lp695
S'.'
p696
aS'N'
p697
aS'.'
p698
aa(lp699
g51
ag4
ag4
aa(lp700
g53
ag4
ag4
aaa(lp701
(lp702
g3
ag4
ag4
aa(lp703
g6
ag4
ag4
aa(lp704
S'Cyclic'
p705
aS'E'
p706
aS'JJ'
p707
aa(lp708
S'voltammetry'
p709
aS'E'
p710
aS'NN'
p711
aa(lp712
S'at'
p713
aS'N'
p714
aS'IN'
p715
aa(lp716
S'a'
p717
aS'N'
p718
aS'DT'
p719
aa(lp720
S'rate'
p721
aS'N'
p722
aS'NN'
p723
aa(lp724
S'of'
p725
aS'N'
p726
aS'IN'
p727
aa(lp728
S'0.1'
p729
aS'P'
p730
aS'CD'
p731
aa(lp732
S'mV/s'
p733
aS'P'
p734
ag711
aa(lp735
S'was'
p736
aS'A'
p737
aS'VBD'
p738
aa(lp739
S'performed'
p740
aS'A'
p741
aS'VBN'
p742
aa(lp743
S'using'
p744
aS'N'
p745
aS'VBG'
p746
aa(lp747
S'the'
p748
aS'N'
p749
aS'DT'
p750
aa(lp751
S'Solartron'
p752
aS'E'
p753
aS'NNP'
p754
aa(lp755
S'unit'
p756
aS'E'
p757
aS'NN'
p758
aa(lp759
g51
ag4
ag4
aa(lp760
g53
ag4
ag4
aaa(lp761
(lp762
g3
ag4
ag4
aa(lp763
g6
ag4
ag4
aa(lp764
S'Two'
p765
aS'N'
p766
aS'CD'
p767
aa(lp768
S'separate'
p769
aS'N'
p770
aS'JJ'
p771
aa(lp772
S'current'
p773
aS'N'
p774
aS'JJ'
p775
aa(lp776
S'rates'
p777
aS'N'
p778
aS'NNS'
p779
aa(lp780
S'5'
p781
aS'P'
p782
aS'CD'
p783
aa(lp784
S'mA'
p785
aS'P'
p786
aS'NN'
p787
aa(lp788
S'and'
p789
aS'N'
p790
aS'CC'
p791
aa(lp792
S'20'
p793
aS'P'
p794
aS'CD'
p795
aa(lp796
S'mA'
p797
aS'P'
p798
ag787
aa(lp799
S'were'
p800
aS'A'
p801
aS'VBD'
p802
aa(lp803
S'used'
p804
aS'A'
p805
aS'VBN'
p806
aa(lp807
S'to'
p808
aS'N'
p809
aS'TO'
p810
aa(lp811
S'charge/discharge'
p812
aS'P'
p813
aS'VB'
p814
aa(lp815
S'the'
p816
aS'N'
p817
aS'DT'
p818
aa(lp819
S'cells'
p820
aS'R'
p821
aS'NNS'
p822
aa(lp823
S'.'
p824
aS'N'
p825
aS'.'
p826
aa(lp827
g51
ag4
ag4
aa(lp828
g53
ag4
ag4
aaa(lp829
(lp830
g3
ag4
ag4
aa(lp831
g6
ag4
ag4
aa(lp832
S'The'
p833
aS'N'
p834
aS'DT'
p835
aa(lp836
S'electrochemical'
p837
aS'E'
p838
aS'JJ'
p839
aa(lp840
S'impedance'
p841
aS'E'
p842
aS'NN'
p843
aa(lp844
S'spectroscopy'
p845
aS'E'
p846
ag843
aa(lp847
S'(EIS)'
p848
aS'E'
p849
ag843
aa(lp850
S'measurements'
p851
aS'E'
p852
aS'NNS'
p853
aa(lp854
S'were'
p855
aS'A'
p856
aS'VBD'
p857
aa(lp858
S'performed'
p859
aS'A'
p860
aS'VBN'
p861
aa(lp862
S'after'
p863
aS'N'
p864
aS'IN'
p865
aa(lp866
S'the'
p867
aS'N'
p868
aS'DT'
p869
aa(lp870
S'electrode'
p871
aS'N'
p872
ag843
aa(lp873
S'reached'
p874
aS'N'
p875
aS'VBD'
p876
aa(lp877
S'the'
p878
aS'N'
p879
ag869
aa(lp880
S'end'
p881
aS'N'
p882
ag843
aa(lp883
S'of'
p884
aS'N'
p885
aS'IN'
p886
aa(lp887
S'each'
p888
aS'N'
p889
aS'DT'
p890
aa(lp891
S'charge'
p892
aS'N'
p893
ag843
aa(lp894
S'and'
p895
aS'N'
p896
aS'CC'
p897
aa(lp898
S'discharge'
p899
aS'N'
p900
ag843
aa(lp901
S'states'
p902
aS'N'
p903
ag853
aa(lp904
S'.'
p905
aS'N'
p906
aS'.'
p907
aa(lp908
g51
ag4
ag4
aa(lp909
g53
ag4
ag4
aaa(lp910
(lp911
g3
ag4
ag4
aa(lp912
g6
ag4
ag4
aa(lp913
S'The'
p914
aS'N'
p915
aS'DT'
p916
aa(lp917
S'measurements'
p918
aS'E'
p919
aS'NNS'
p920
aa(lp921
S'were'
p922
aS'A'
p923
aS'VBD'
p924
aa(lp925
S'taken'
p926
aS'A'
p927
aS'VBN'
p928
aa(lp929
S'over'
p930
aS'N'
p931
aS'RP'
p932
aa(lp933
S'a'
p934
aS'N'
p935
aS'DT'
p936
aa(lp937
S'range'
p938
aS'N'
p939
aS'NN'
p940
aa(lp941
S'of'
p942
aS'N'
p943
aS'IN'
p944
aa(lp945
S'1000'
p946
aS'P'
p947
aS'CD'
p948
aa(lp949
S'kHz'
p950
aS'P'
p951
ag940
aa(lp952
S'to'
p953
aS'P'
p954
aS'TO'
p955
aa(lp956
S'1'
p957
aS'P'
p958
aS'CD'
p959
aa(lp960
S'MHz'
p961
aS'P'
p962
aS'NNP'
p963
aa(lp964
S'with'
p965
aS'N'
p966
aS'IN'
p967
aa(lp968
S'AC'
p969
aS'N'
p970
ag963
aa(lp971
S'amplitude'
p972
aS'N'
p973
ag940
aa(lp974
S'of'
p975
aS'N'
p976
ag944
aa(lp977
S'10'
p978
aS'P'
p979
aS'CD'
p980
aa(lp981
S'mV'
p982
aS'P'
p983
ag920
aa(lp984
S'using'
p985
aS'N'
p986
aS'VBG'
p987
aa(lp988
S'a'
p989
aS'N'
p990
ag936
aa(lp991
S'Solartron'
p992
aS'E'
p993
ag963
aa(lp994
S'analyzer'
p995
aS'E'
p996
ag940
aa(lp997
S'.'
p998
aS'N'
p999
aS'.'
p1000
aa(lp1001
g51
ag4
ag4
aa(lp1002
g53
ag4
ag4
aaa.